ARM GAS  C:\Users\Aayush\AppData\Local\Temp\ccvWu1Je.s 			page 1


   1              		.cpu cortex-m3
   2              		.arch armv7-m
   3              		.fpu softvfp
   4              		.eabi_attribute 20, 1	@ Tag_ABI_FP_denormal
   5              		.eabi_attribute 21, 1	@ Tag_ABI_FP_exceptions
   6              		.eabi_attribute 23, 3	@ Tag_ABI_FP_number_model
   7              		.eabi_attribute 24, 1	@ Tag_ABI_align8_needed
   8              		.eabi_attribute 25, 1	@ Tag_ABI_align8_preserved
   9              		.eabi_attribute 26, 1	@ Tag_ABI_enum_size
  10              		.eabi_attribute 30, 6	@ Tag_ABI_optimization_goals
  11              		.eabi_attribute 34, 1	@ Tag_CPU_unaligned_access
  12              		.eabi_attribute 18, 4	@ Tag_ABI_PCS_wchar_t
  13              		.file	"main.c"
  14              	@ GNU C99 (GNU Arm Embedded Toolchain 10.3-2021.10) version 10.3.1 20210824 (release) (arm-none-eab
  15              	@	compiled by GNU C version 7.3-win32 20180312, GMP version 6.1.0, MPFR version 3.1.4, MPC version 
  16              	
  17              	@ GGC heuristics: --param ggc-min-expand=100 --param ggc-min-heapsize=131072
  18              	@ options passed:  -I . -I ../../Include -I ../../Include/PrimeFramework
  19              	@ -I ../../Include/AppHelper -I ../../Include/GameEngine
  20              	@ -I ../../Include/GameEngine/Graphics -I ../../Include/GameEngine/Object
  21              	@ -I ../../Include/GameEngine/Renderer -I ../../Include/GameEngine/Resource
  22              	@ -imultilib thumb/v7-m/nofp
  23              	@ -iprefix c:\program files (x86)\gnu arm embedded toolchain\10 2021.10\bin\../lib/gcc/arm-none-eab
  24              	@ -isysroot c:\program files (x86)\gnu arm embedded toolchain\10 2021.10\bin\../arm-none-eabi
  25              	@ -MD Build/Obj/Debug/main.d -MF .dep/main.o.d -MP
  26              	@ -MQ Build/Obj/Debug/main.o -D__USES_INITFINI__ -D MCU_CHIP_lpc1768
  27              	@ -D PRIME_DEBUG main.c -mcpu=cortex-m3 -mthumb -mfloat-abi=soft
  28              	@ -mlibarch=armv7-m -march=armv7-m -auxbase-strip Build/Obj/Debug/main.o
  29              	@ -gdwarf-2 -O0 -Wall -Wno-cpp -std=gnu99 -fomit-frame-pointer
  30              	@ -fverbose-asm
  31              	@ options enabled:  -faggressive-loop-optimizations -fallocation-dce
  32              	@ -fauto-inc-dec -fdelete-null-pointer-checks -fdwarf2-cfi-asm
  33              	@ -fearly-inlining -feliminate-unused-debug-symbols
  34              	@ -feliminate-unused-debug-types -ffp-int-builtin-inexact -ffunction-cse
  35              	@ -fgcse-lm -fgnu-unique -fident -finline-atomics -fipa-stack-alignment
  36              	@ -fira-hoist-pressure -fira-share-save-slots -fira-share-spill-slots
  37              	@ -fivopts -fkeep-static-consts -fleading-underscore -flifetime-dse
  38              	@ -fmath-errno -fmerge-debug-strings -fomit-frame-pointer -fpeephole -fplt
  39              	@ -fprefetch-loop-arrays -freg-struct-return
  40              	@ -fsched-critical-path-heuristic -fsched-dep-count-heuristic
  41              	@ -fsched-group-heuristic -fsched-interblock -fsched-last-insn-heuristic
  42              	@ -fsched-rank-heuristic -fsched-spec -fsched-spec-insn-heuristic
  43              	@ -fsched-stalled-insns-dep -fsemantic-interposition -fshow-column
  44              	@ -fshrink-wrap-separate -fsigned-zeros -fsplit-ivs-in-unroller
  45              	@ -fssa-backprop -fstdarg-opt -fstrict-volatile-bitfields -fsync-libcalls
  46              	@ -ftrapping-math -ftree-cselim -ftree-forwprop -ftree-loop-if-convert
  47              	@ -ftree-loop-im -ftree-loop-ivcanon -ftree-loop-optimize
  48              	@ -ftree-parallelize-loops= -ftree-phiprop -ftree-reassoc -ftree-scev-cprop
  49              	@ -funit-at-a-time -fverbose-asm -fzero-initialized-in-bss
  50              	@ -masm-syntax-unified -mbe32 -mfix-cortex-m3-ldrd -mlittle-endian
  51              	@ -mpic-data-is-text-relative -msched-prolog -mthumb -munaligned-access
  52              	@ -mvectorize-with-neon-quad
  53              	
  54              		.text
  55              	.Ltext0:
  56              		.cfi_sections	.debug_frame
  57              		.global	windowID
ARM GAS  C:\Users\Aayush\AppData\Local\Temp\ccvWu1Je.s 			page 2


  58              		.bss
  59              		.type	windowID, %object
  60              		.size	windowID, 1
  61              	windowID:
  62 0000 00       		.space	1
  63              		.global	canvasID
  64              		.type	canvasID, %object
  65              		.size	canvasID, 1
  66              	canvasID:
  67 0001 00       		.space	1
  68              		.global	widget1ID
  69              		.type	widget1ID, %object
  70              		.size	widget1ID, 1
  71              	widget1ID:
  72 0002 00       		.space	1
  73              		.global	widget2ID
  74              		.type	widget2ID, %object
  75              		.size	widget2ID, 1
  76              	widget2ID:
  77 0003 00       		.space	1
  78              		.global	widget3ID
  79              		.type	widget3ID, %object
  80              		.size	widget3ID, 1
  81              	widget3ID:
  82 0004 00       		.space	1
  83              		.global	widget4ID
  84              		.type	widget4ID, %object
  85              		.size	widget4ID, 1
  86              	widget4ID:
  87 0005 00       		.space	1
  88              		.global	widget5ID
  89              		.type	widget5ID, %object
  90              		.size	widget5ID, 1
  91              	widget5ID:
  92 0006 00       		.space	1
  93              		.global	widget6ID
  94              		.type	widget6ID, %object
  95              		.size	widget6ID, 1
  96              	widget6ID:
  97 0007 00       		.space	1
  98              		.global	x
  99              		.align	2
 100              		.type	x, %object
 101              		.size	x, 4
 102              	x:
 103 0008 00000000 		.space	4
 104              		.global	y
 105              		.align	2
 106              		.type	y, %object
 107              		.size	y, 4
 108              	y:
 109 000c 00000000 		.space	4
 110              		.global	a
 111              		.align	2
 112              		.type	a, %object
 113              		.size	a, 4
 114              	a:
ARM GAS  C:\Users\Aayush\AppData\Local\Temp\ccvWu1Je.s 			page 3


 115 0010 00000000 		.space	4
 116              		.global	b
 117              		.align	2
 118              		.type	b, %object
 119              		.size	b, 4
 120              	b:
 121 0014 00000000 		.space	4
 122              		.global	c
 123              		.align	2
 124              		.type	c, %object
 125              		.size	c, 4
 126              	c:
 127 0018 00000000 		.space	4
 128              		.global	d
 129              		.align	2
 130              		.type	d, %object
 131              		.size	d, 4
 132              	d:
 133 001c 00000000 		.space	4
 134              		.global	val
 135              		.data
 136              		.align	2
 137              		.type	val, %object
 138              		.size	val, 4
 139              	val:
 140 0000 0A000000 		.word	10
 141              		.global	idx
 142              		.bss
 143              		.align	2
 144              		.type	idx, %object
 145              		.size	idx, 4
 146              	idx:
 147 0020 00000000 		.space	4
 148              		.section	.rodata
 149              		.align	2
 150              	.LC0:
 151 0000 57696E64 		.ascii	"Window 1\000"
 151      6F772031 
 151      00
 152              		.data
 153              		.align	2
 154              		.type	window1, %object
 155              		.size	window1, 20
 156              	window1:
 157              	@ windowAttr:
 158              	@ name:
 159 0004 00000000 		.word	.LC0
 160              	@ topLeft:
 161              	@ xValue:
 162 0008 0000     		.short	0
 163              	@ yValue:
 164 000a 0000     		.short	0
 165              	@ size:
 166              	@ width:
 167 000c F000     		.short	240
 168              	@ height:
 169 000e 4001     		.short	320
ARM GAS  C:\Users\Aayush\AppData\Local\Temp\ccvWu1Je.s 			page 4


 170              	@ backgroundColor:
 171 0010 FFFF     		.short	-1
 172              	@ border:
 173 0012 00       		.byte	0
 174 0013 00       		.space	1
 175              	@ oneShotHandler:
 176 0014 00000000 		.word	0
 177              		.section	.rodata
 178 0009 000000   		.align	2
 179              	.LC1:
 180 000c 43616E76 		.ascii	"Canvas\000"
 180      617300
 181 0013 00       		.align	2
 182              	.LC2:
 183 0014 00       		.ascii	"\000"
 184              		.data
 185              		.align	2
 186              		.type	Canvas, %object
 187              		.size	Canvas, 32
 188              	Canvas:
 189              	@ canvasAttr:
 190              	@ name:
 191 0018 0C000000 		.word	.LC1
 192              	@ topLeft:
 193              	@ xValue:
 194 001c 0000     		.short	0
 195              	@ yValue:
 196 001e 2800     		.short	40
 197              	@ size:
 198              	@ width:
 199 0020 F000     		.short	240
 200              	@ height:
 201 0022 1801     		.short	280
 202              	@ backgroundColor:
 203 0024 FFFF     		.short	-1
 204              	@ border:
 205 0026 01       		.byte	1
 206 0027 00       		.space	1
 207              	@ eventHandler:
 208 0028 00000000 		.word	canvasEventHandler
 209              	@ displayString:
 210 002c 14000000 		.word	.LC2
 211              	@ font:
 212 0030 01       		.byte	1
 213              	@ fontColor:
 214 0031 00       		.space	1
 215 0032 FFFF     		.short	-1
 216              	@ image1:
 217 0034 00000000 		.word	0
 218              		.section	.rodata
 219 0015 000000   		.align	2
 220              	.LC3:
 221 0018 46726565 		.ascii	"Freehand button widget\000"
 221      68616E64 
 221      20627574 
 221      746F6E20 
 221      77696467 
ARM GAS  C:\Users\Aayush\AppData\Local\Temp\ccvWu1Je.s 			page 5


 222 002f 00       		.align	2
 223              	.LC4:
 224 0030 20204648 		.ascii	"  FH\000"
 224      00
 225              		.data
 226              		.align	2
 227              		.type	freeHandBtnWidget, %object
 228              		.size	freeHandBtnWidget, 32
 229              	freeHandBtnWidget:
 230              	@ widgetAttr:
 231              	@ name:
 232 0038 18000000 		.word	.LC3
 233              	@ topLeft:
 234              	@ xValue:
 235 003c 0000     		.short	0
 236              	@ yValue:
 237 003e 0000     		.short	0
 238              	@ size:
 239              	@ width:
 240 0040 2600     		.short	38
 241              	@ height:
 242 0042 2800     		.short	40
 243              	@ backgroundColor:
 244 0044 FFFF     		.short	-1
 245              	@ border:
 246 0046 01       		.byte	1
 247 0047 00       		.space	1
 248              	@ eventHandler:
 249 0048 00000000 		.word	freeHandBtnEventHandler
 250              	@ displayString:
 251 004c 30000000 		.word	.LC4
 252              	@ font:
 253 0050 01       		.byte	1
 254              	@ fontColor:
 255 0051 00       		.space	1
 256 0052 0000     		.short	0
 257              	@ image1:
 258 0054 00000000 		.word	0
 259              		.section	.rodata
 260 0035 000000   		.align	2
 261              	.LC5:
 262 0038 4C696E65 		.ascii	"Line button widget\000"
 262      20627574 
 262      746F6E20 
 262      77696467 
 262      657400
 263              		.data
 264              		.align	2
 265              		.type	lineBtnWidget, %object
 266              		.size	lineBtnWidget, 32
 267              	lineBtnWidget:
 268              	@ widgetAttr:
 269              	@ name:
 270 0058 38000000 		.word	.LC5
 271              	@ topLeft:
 272              	@ xValue:
 273 005c 2600     		.short	38
ARM GAS  C:\Users\Aayush\AppData\Local\Temp\ccvWu1Je.s 			page 6


 274              	@ yValue:
 275 005e 0000     		.short	0
 276              	@ size:
 277              	@ width:
 278 0060 2600     		.short	38
 279              	@ height:
 280 0062 2800     		.short	40
 281              	@ backgroundColor:
 282 0064 FFFF     		.short	-1
 283              	@ border:
 284 0066 01       		.byte	1
 285 0067 00       		.space	1
 286              	@ eventHandler:
 287 0068 00000000 		.word	lineBtnEventHandler
 288              	@ displayString:
 289 006c 14000000 		.word	.LC2
 290              	@ font:
 291 0070 01       		.byte	1
 292              	@ fontColor:
 293 0071 00       		.space	1
 294 0072 0000     		.short	0
 295              	@ image1:
 296 0074 00000000 		.word	0
 297              		.section	.rodata
 298 004b 00       		.align	2
 299              	.LC6:
 300 004c 43697263 		.ascii	"Circle button widget\000"
 300      6C652062 
 300      7574746F 
 300      6E207769 
 300      64676574 
 301              		.data
 302              		.align	2
 303              		.type	circleBtnWidget, %object
 304              		.size	circleBtnWidget, 32
 305              	circleBtnWidget:
 306              	@ widgetAttr:
 307              	@ name:
 308 0078 4C000000 		.word	.LC6
 309              	@ topLeft:
 310              	@ xValue:
 311 007c 4C00     		.short	76
 312              	@ yValue:
 313 007e 0000     		.short	0
 314              	@ size:
 315              	@ width:
 316 0080 2600     		.short	38
 317              	@ height:
 318 0082 2800     		.short	40
 319              	@ backgroundColor:
 320 0084 FFFF     		.short	-1
 321              	@ border:
 322 0086 01       		.byte	1
 323 0087 00       		.space	1
 324              	@ eventHandler:
 325 0088 00000000 		.word	circleBtnEventHandler
 326              	@ displayString:
ARM GAS  C:\Users\Aayush\AppData\Local\Temp\ccvWu1Je.s 			page 7


 327 008c 14000000 		.word	.LC2
 328              	@ font:
 329 0090 01       		.byte	1
 330              	@ fontColor:
 331 0091 00       		.space	1
 332 0092 0000     		.short	0
 333              	@ image1:
 334 0094 00000000 		.word	0
 335              		.section	.rodata
 336 0061 000000   		.align	2
 337              	.LC7:
 338 0064 52656374 		.ascii	"Rectangle button widget\000"
 338      616E676C 
 338      65206275 
 338      74746F6E 
 338      20776964 
 339              		.data
 340              		.align	2
 341              		.type	rectangleBtnWidget, %object
 342              		.size	rectangleBtnWidget, 32
 343              	rectangleBtnWidget:
 344              	@ widgetAttr:
 345              	@ name:
 346 0098 64000000 		.word	.LC7
 347              	@ topLeft:
 348              	@ xValue:
 349 009c 7200     		.short	114
 350              	@ yValue:
 351 009e 0000     		.short	0
 352              	@ size:
 353              	@ width:
 354 00a0 2600     		.short	38
 355              	@ height:
 356 00a2 2800     		.short	40
 357              	@ backgroundColor:
 358 00a4 FFFF     		.short	-1
 359              	@ border:
 360 00a6 01       		.byte	1
 361 00a7 00       		.space	1
 362              	@ eventHandler:
 363 00a8 00000000 		.word	rectangleBtnEventHandler
 364              	@ displayString:
 365 00ac 14000000 		.word	.LC2
 366              	@ font:
 367 00b0 01       		.byte	1
 368              	@ fontColor:
 369 00b1 00       		.space	1
 370 00b2 0000     		.short	0
 371              	@ image1:
 372 00b4 00000000 		.word	0
 373              		.section	.rodata
 374              		.align	2
 375              	.LC8:
 376 007c 436C6561 		.ascii	"Clearscreen button widget\000"
 376      72736372 
 376      65656E20 
 376      62757474 
ARM GAS  C:\Users\Aayush\AppData\Local\Temp\ccvWu1Je.s 			page 8


 376      6F6E2077 
 377 0096 0000     		.align	2
 378              	.LC9:
 379 0098 20434C53 		.ascii	" CLS\000"
 379      00
 380              		.data
 381              		.align	2
 382              		.type	clearscreenBtnWidget, %object
 383              		.size	clearscreenBtnWidget, 32
 384              	clearscreenBtnWidget:
 385              	@ widgetAttr:
 386              	@ name:
 387 00b8 7C000000 		.word	.LC8
 388              	@ topLeft:
 389              	@ xValue:
 390 00bc 9800     		.short	152
 391              	@ yValue:
 392 00be 0000     		.short	0
 393              	@ size:
 394              	@ width:
 395 00c0 2600     		.short	38
 396              	@ height:
 397 00c2 2800     		.short	40
 398              	@ backgroundColor:
 399 00c4 FFFF     		.short	-1
 400              	@ border:
 401 00c6 01       		.byte	1
 402 00c7 00       		.space	1
 403              	@ eventHandler:
 404 00c8 00000000 		.word	clearscreenBtnEventHandler
 405              	@ displayString:
 406 00cc 98000000 		.word	.LC9
 407              	@ font:
 408 00d0 01       		.byte	1
 409              	@ fontColor:
 410 00d1 00       		.space	1
 411 00d2 0000     		.short	0
 412              	@ image1:
 413 00d4 00000000 		.word	0
 414              		.section	.rodata
 415 009d 000000   		.align	2
 416              	.LC10:
 417 00a0 53617665 		.ascii	"Save button widget\000"
 417      20627574 
 417      746F6E20 
 417      77696467 
 417      657400
 418              		.data
 419              		.align	2
 420              		.type	saveBtnWidget, %object
 421              		.size	saveBtnWidget, 32
 422              	saveBtnWidget:
 423              	@ widgetAttr:
 424              	@ name:
 425 00d8 A0000000 		.word	.LC10
 426              	@ topLeft:
 427              	@ xValue:
ARM GAS  C:\Users\Aayush\AppData\Local\Temp\ccvWu1Je.s 			page 9


 428 00dc C000     		.short	192
 429              	@ yValue:
 430 00de 0000     		.short	0
 431              	@ size:
 432              	@ width:
 433 00e0 3000     		.short	48
 434              	@ height:
 435 00e2 2800     		.short	40
 436              	@ backgroundColor:
 437 00e4 FFFF     		.short	-1
 438              	@ border:
 439 00e6 01       		.byte	1
 440 00e7 00       		.space	1
 441              	@ eventHandler:
 442 00e8 00000000 		.word	saveBtnEventHandler
 443              	@ displayString:
 444 00ec 14000000 		.word	.LC2
 445              	@ font:
 446 00f0 01       		.byte	1
 447              	@ fontColor:
 448 00f1 00       		.space	1
 449 00f2 0000     		.short	0
 450              	@ image1:
 451 00f4 00000000 		.word	0
 452              		.text
 453              		.align	1
 454              		.global	main
 455              		.syntax unified
 456              		.thumb
 457              		.thumb_func
 458              		.type	main, %function
 459              	main:
 460              	.LFB60:
 461              		.file 1 "main.c"
   1:main.c        **** 
   2:main.c        **** #include "app.h"
   3:main.c        **** #include "gameEngine.h"
   4:main.c        **** 
   5:main.c        **** 
   6:main.c        **** 
   7:main.c        **** PFbyte windowID, canvasID, widget1ID, widget2ID, widget3ID, widget4ID, widget5ID, widget6ID;
   8:main.c        **** PFdword x,y,a,b,c,d,val=10;
   9:main.c        **** int idx=0;
  10:main.c        **** 
  11:main.c        **** 
  12:main.c        **** 
  13:main.c        **** PFdword sqroot(PFdword r);      // Function to find square root of a PFdword type variable
  14:main.c        **** void freeHandBtnEventHandler(void);
  15:main.c        **** void lineBtnEventHandler(void);
  16:main.c        **** void circleBtnEventHandler(void);
  17:main.c        **** void rectangleBtnEventHandler(void);
  18:main.c        **** void saveBtnEventHandler(void);
  19:main.c        **** void homeScreen(void);
  20:main.c        **** void clearscreenBtnEventHandler(void);
  21:main.c        **** void canvasEventHandler(void);
  22:main.c        **** 
  23:main.c        **** 
ARM GAS  C:\Users\Aayush\AppData\Local\Temp\ccvWu1Je.s 			page 10


  24:main.c        **** 
  25:main.c        **** 
  26:main.c        **** 
  27:main.c        **** static WindowCfg window1= 
  28:main.c        **** {
  29:main.c        ****     {
  30:main.c        ****         "Window 1",
  31:main.c        ****         {0,0},
  32:main.c        ****         {240,320},
  33:main.c        ****         WHITE,
  34:main.c        ****         enBooleanFalse
  35:main.c        ****     },
  36:main.c        ****     NULL
  37:main.c        **** };
  38:main.c        **** 
  39:main.c        **** static CanvasCfg Canvas=
  40:main.c        **** {
  41:main.c        ****     {
  42:main.c        ****         "Canvas",
  43:main.c        ****         {0,40},
  44:main.c        ****         {240,280},
  45:main.c        ****         WHITE,
  46:main.c        ****         enBooleanTrue
  47:main.c        ****     },
  48:main.c        ****     canvasEventHandler,
  49:main.c        ****     "",
  50:main.c        ****     enGfxFont_8X16,
  51:main.c        ****     WHITE,
  52:main.c        ****     0
  53:main.c        **** };
  54:main.c        **** 
  55:main.c        **** static WidgetCfg freeHandBtnWidget=
  56:main.c        **** {
  57:main.c        ****     {
  58:main.c        ****         "Freehand button widget",
  59:main.c        ****         {0,0},
  60:main.c        ****         {38,40},
  61:main.c        ****         WHITE,
  62:main.c        ****         enBooleanTrue
  63:main.c        ****     },
  64:main.c        ****     freeHandBtnEventHandler,
  65:main.c        ****     "  FH",
  66:main.c        ****     enGfxFont_8X16,
  67:main.c        ****     BLACK,
  68:main.c        ****     0
  69:main.c        **** };
  70:main.c        **** 
  71:main.c        **** static WidgetCfg lineBtnWidget=
  72:main.c        **** {
  73:main.c        ****     {
  74:main.c        ****         "Line button widget",
  75:main.c        ****         {38,0},
  76:main.c        ****         {38,40},
  77:main.c        ****         WHITE,
  78:main.c        ****         enBooleanTrue
  79:main.c        ****     },
  80:main.c        ****     lineBtnEventHandler,
ARM GAS  C:\Users\Aayush\AppData\Local\Temp\ccvWu1Je.s 			page 11


  81:main.c        ****     "",
  82:main.c        ****     enGfxFont_8X16,
  83:main.c        ****     BLACK,
  84:main.c        ****     0
  85:main.c        **** };
  86:main.c        **** 
  87:main.c        **** static WidgetCfg circleBtnWidget=
  88:main.c        **** {
  89:main.c        ****     {
  90:main.c        ****         "Circle button widget",
  91:main.c        ****         {76,0},
  92:main.c        ****         {38,40},
  93:main.c        ****         WHITE,
  94:main.c        ****         enBooleanTrue
  95:main.c        ****     },
  96:main.c        ****     circleBtnEventHandler,
  97:main.c        ****     "",
  98:main.c        ****     enGfxFont_8X16,
  99:main.c        ****     BLACK,
 100:main.c        ****     0
 101:main.c        **** };
 102:main.c        **** 
 103:main.c        **** static WidgetCfg rectangleBtnWidget=
 104:main.c        **** {
 105:main.c        ****     {
 106:main.c        ****         "Rectangle button widget",
 107:main.c        ****         {114,0},
 108:main.c        ****         {38,40},
 109:main.c        ****         WHITE,
 110:main.c        ****         enBooleanTrue
 111:main.c        ****     },
 112:main.c        ****     rectangleBtnEventHandler,
 113:main.c        ****     "",
 114:main.c        ****     enGfxFont_8X16,
 115:main.c        ****     BLACK,
 116:main.c        ****     0
 117:main.c        **** };
 118:main.c        **** 
 119:main.c        **** 
 120:main.c        **** static WidgetCfg clearscreenBtnWidget=
 121:main.c        **** {
 122:main.c        ****     {
 123:main.c        ****         "Clearscreen button widget",
 124:main.c        ****         {152,0},
 125:main.c        ****         {38,40},
 126:main.c        ****         WHITE,
 127:main.c        ****         enBooleanTrue
 128:main.c        ****     },
 129:main.c        ****     clearscreenBtnEventHandler,
 130:main.c        ****     " CLS",
 131:main.c        ****     enGfxFont_8X16,
 132:main.c        ****     BLACK,
 133:main.c        ****     0
 134:main.c        **** };
 135:main.c        **** 
 136:main.c        **** static WidgetCfg saveBtnWidget=
 137:main.c        **** {
ARM GAS  C:\Users\Aayush\AppData\Local\Temp\ccvWu1Je.s 			page 12


 138:main.c        ****     {
 139:main.c        ****         "Save button widget",
 140:main.c        ****         {192,0},
 141:main.c        ****         {48,40},
 142:main.c        ****         WHITE,
 143:main.c        ****         enBooleanTrue
 144:main.c        ****     },
 145:main.c        ****     saveBtnEventHandler,
 146:main.c        ****     "",
 147:main.c        ****     enGfxFont_8X16,
 148:main.c        ****     BLACK,
 149:main.c        ****     0
 150:main.c        **** };
 151:main.c        **** 
 152:main.c        **** 
 153:main.c        **** int main()
 154:main.c        **** {
 462              		.loc 1 154 1
 463              		.cfi_startproc
 464              		@ args = 0, pretend = 0, frame = 0
 465              		@ frame_needed = 0, uses_anonymous_args = 0
 466 0000 08B5     		push	{r3, lr}	@
 467              	.LCFI0:
 468              		.cfi_def_cfa_offset 8
 469              		.cfi_offset 3, -8
 470              		.cfi_offset 14, -4
 471              	@ main.c:156: 	appInit();						
 155:main.c        **** 
 156:main.c        **** 	appInit();						
 472              		.loc 1 156 2
 473 0002 FFF7FEFF 		bl	appInit		@
 474              	@ main.c:157: 	gameEngineInit();	
 157:main.c        **** 	gameEngineInit();	
 475              		.loc 1 157 2
 476 0006 FFF7FEFF 		bl	gameEngineInit		@
 477              	@ main.c:158:     gfxSetColor(BLACK);	
 158:main.c        ****     gfxSetColor(BLACK);	
 478              		.loc 1 158 5
 479 000a 0020     		movs	r0, #0	@,
 480 000c FFF7FEFF 		bl	gfxSetColor		@
 481              	@ main.c:159:     gfxSetPenSize(2);
 159:main.c        ****     gfxSetPenSize(2);
 482              		.loc 1 159 5
 483 0010 0220     		movs	r0, #2	@,
 484 0012 FFF7FEFF 		bl	gfxSetPenSize		@
 485              	@ main.c:162: 	createWindow(&windowID,&window1);
 160:main.c        **** 	
 161:main.c        ****     // creating widgets
 162:main.c        **** 	createWindow(&windowID,&window1);
 486              		.loc 1 162 2
 487 0016 2949     		ldr	r1, .L4	@,
 488 0018 2948     		ldr	r0, .L4+4	@,
 489 001a FFF7FEFF 		bl	createWindow		@
 490              	@ main.c:163: 	createCanvas(windowID,&canvasID,&Canvas);
 163:main.c        **** 	createCanvas(windowID,&canvasID,&Canvas);
 491              		.loc 1 163 2
 492 001e 284B     		ldr	r3, .L4+4	@ tmp129,
ARM GAS  C:\Users\Aayush\AppData\Local\Temp\ccvWu1Je.s 			page 13


 493 0020 1B78     		ldrb	r3, [r3]	@ zero_extendqisi2	@ windowID.0_1, windowID
 494 0022 284A     		ldr	r2, .L4+8	@,
 495 0024 2849     		ldr	r1, .L4+12	@,
 496 0026 1846     		mov	r0, r3	@, windowID.0_1
 497 0028 FFF7FEFF 		bl	createCanvas		@
 498              	@ main.c:164: 	createWidget(windowID,&widget1ID,&freeHandBtnWidget);
 164:main.c        **** 	createWidget(windowID,&widget1ID,&freeHandBtnWidget);
 499              		.loc 1 164 2
 500 002c 244B     		ldr	r3, .L4+4	@ tmp130,
 501 002e 1B78     		ldrb	r3, [r3]	@ zero_extendqisi2	@ windowID.1_2, windowID
 502 0030 264A     		ldr	r2, .L4+16	@,
 503 0032 2749     		ldr	r1, .L4+20	@,
 504 0034 1846     		mov	r0, r3	@, windowID.1_2
 505 0036 FFF7FEFF 		bl	createWidget		@
 506              	@ main.c:165: 	createWidget(windowID,&widget2ID,&lineBtnWidget);
 165:main.c        **** 	createWidget(windowID,&widget2ID,&lineBtnWidget);
 507              		.loc 1 165 2
 508 003a 214B     		ldr	r3, .L4+4	@ tmp131,
 509 003c 1B78     		ldrb	r3, [r3]	@ zero_extendqisi2	@ windowID.2_3, windowID
 510 003e 254A     		ldr	r2, .L4+24	@,
 511 0040 2549     		ldr	r1, .L4+28	@,
 512 0042 1846     		mov	r0, r3	@, windowID.2_3
 513 0044 FFF7FEFF 		bl	createWidget		@
 514              	@ main.c:166:     createWidget(windowID,&widget3ID,&circleBtnWidget);
 166:main.c        ****     createWidget(windowID,&widget3ID,&circleBtnWidget);
 515              		.loc 1 166 5
 516 0048 1D4B     		ldr	r3, .L4+4	@ tmp132,
 517 004a 1B78     		ldrb	r3, [r3]	@ zero_extendqisi2	@ windowID.3_4, windowID
 518 004c 234A     		ldr	r2, .L4+32	@,
 519 004e 2449     		ldr	r1, .L4+36	@,
 520 0050 1846     		mov	r0, r3	@, windowID.3_4
 521 0052 FFF7FEFF 		bl	createWidget		@
 522              	@ main.c:167:     createWidget(windowID,&widget4ID,&rectangleBtnWidget);
 167:main.c        ****     createWidget(windowID,&widget4ID,&rectangleBtnWidget);
 523              		.loc 1 167 5
 524 0056 1A4B     		ldr	r3, .L4+4	@ tmp133,
 525 0058 1B78     		ldrb	r3, [r3]	@ zero_extendqisi2	@ windowID.4_5, windowID
 526 005a 224A     		ldr	r2, .L4+40	@,
 527 005c 2249     		ldr	r1, .L4+44	@,
 528 005e 1846     		mov	r0, r3	@, windowID.4_5
 529 0060 FFF7FEFF 		bl	createWidget		@
 530              	@ main.c:168: 	createWidget(windowID,&widget5ID,&clearscreenBtnWidget);
 168:main.c        **** 	createWidget(windowID,&widget5ID,&clearscreenBtnWidget);
 531              		.loc 1 168 2
 532 0064 164B     		ldr	r3, .L4+4	@ tmp134,
 533 0066 1B78     		ldrb	r3, [r3]	@ zero_extendqisi2	@ windowID.5_6, windowID
 534 0068 204A     		ldr	r2, .L4+48	@,
 535 006a 2149     		ldr	r1, .L4+52	@,
 536 006c 1846     		mov	r0, r3	@, windowID.5_6
 537 006e FFF7FEFF 		bl	createWidget		@
 538              	@ main.c:169:     createWidget(windowID,&widget6ID,&saveBtnWidget);
 169:main.c        ****     createWidget(windowID,&widget6ID,&saveBtnWidget);
 539              		.loc 1 169 5
 540 0072 134B     		ldr	r3, .L4+4	@ tmp135,
 541 0074 1B78     		ldrb	r3, [r3]	@ zero_extendqisi2	@ windowID.6_7, windowID
 542 0076 1F4A     		ldr	r2, .L4+56	@,
 543 0078 1F49     		ldr	r1, .L4+60	@,
ARM GAS  C:\Users\Aayush\AppData\Local\Temp\ccvWu1Je.s 			page 14


 544 007a 1846     		mov	r0, r3	@, windowID.6_7
 545 007c FFF7FEFF 		bl	createWidget		@
 546              	@ main.c:172: 	homeScreen();							
 170:main.c        **** 
 171:main.c        **** 
 172:main.c        **** 	homeScreen();							
 547              		.loc 1 172 2
 548 0080 FFF7FEFF 		bl	homeScreen		@
 549              	.L3:
 550              	@ main.c:175: 		if(touchAvailable(&x,&y) == enBooleanTrue) {
 173:main.c        **** 
 174:main.c        **** 	while(1) {
 175:main.c        **** 		if(touchAvailable(&x,&y) == enBooleanTrue) {
 551              		.loc 1 175 6
 552 0084 1D49     		ldr	r1, .L4+64	@,
 553 0086 1E48     		ldr	r0, .L4+68	@,
 554 0088 FFF7FEFF 		bl	touchAvailable		@
 555 008c 0346     		mov	r3, r0	@ tmp136,
 556              	@ main.c:175: 		if(touchAvailable(&x,&y) == enBooleanTrue) {
 557              		.loc 1 175 5
 558 008e 012B     		cmp	r3, #1	@ _8,
 559 0090 F8D1     		bne	.L3		@,
 560              	@ main.c:176:             c=x;
 176:main.c        ****             c=x;
 561              		.loc 1 176 14
 562 0092 1B4B     		ldr	r3, .L4+68	@ tmp137,
 563 0094 1B68     		ldr	r3, [r3]	@ x.7_9, x
 564 0096 1B4A     		ldr	r2, .L4+72	@ tmp138,
 565 0098 1360     		str	r3, [r2]	@ x.7_9, c
 566              	@ main.c:177:             d=y;
 177:main.c        ****             d=y;
 567              		.loc 1 177 14
 568 009a 184B     		ldr	r3, .L4+64	@ tmp139,
 569 009c 1B68     		ldr	r3, [r3]	@ y.8_10, y
 570 009e 1A4A     		ldr	r2, .L4+76	@ tmp140,
 571 00a0 1360     		str	r3, [r2]	@ y.8_10, d
 572              	@ main.c:178: 			windowEventHandler(windowID, x, y);	
 178:main.c        **** 			windowEventHandler(windowID, x, y);	
 573              		.loc 1 178 4
 574 00a2 074B     		ldr	r3, .L4+4	@ tmp141,
 575 00a4 1B78     		ldrb	r3, [r3]	@ zero_extendqisi2	@ windowID.9_11, windowID
 576 00a6 164A     		ldr	r2, .L4+68	@ tmp142,
 577 00a8 1268     		ldr	r2, [r2]	@ x.10_12, x
 578 00aa 91B2     		uxth	r1, r2	@ _13, x.10_12
 579 00ac 134A     		ldr	r2, .L4+64	@ tmp143,
 580 00ae 1268     		ldr	r2, [r2]	@ y.11_14, y
 581 00b0 92B2     		uxth	r2, r2	@ _15, y.11_14
 582 00b2 1846     		mov	r0, r3	@, windowID.9_11
 583 00b4 FFF7FEFF 		bl	windowEventHandler		@
 584              	@ main.c:175: 		if(touchAvailable(&x,&y) == enBooleanTrue) {
 175:main.c        ****             c=x;
 585              		.loc 1 175 5
 586 00b8 E4E7     		b	.L3		@
 587              	.L5:
 588 00ba 00BF     		.align	2
 589              	.L4:
 590 00bc 04000000 		.word	window1
ARM GAS  C:\Users\Aayush\AppData\Local\Temp\ccvWu1Je.s 			page 15


 591 00c0 00000000 		.word	windowID
 592 00c4 18000000 		.word	Canvas
 593 00c8 00000000 		.word	canvasID
 594 00cc 38000000 		.word	freeHandBtnWidget
 595 00d0 00000000 		.word	widget1ID
 596 00d4 58000000 		.word	lineBtnWidget
 597 00d8 00000000 		.word	widget2ID
 598 00dc 78000000 		.word	circleBtnWidget
 599 00e0 00000000 		.word	widget3ID
 600 00e4 98000000 		.word	rectangleBtnWidget
 601 00e8 00000000 		.word	widget4ID
 602 00ec B8000000 		.word	clearscreenBtnWidget
 603 00f0 00000000 		.word	widget5ID
 604 00f4 D8000000 		.word	saveBtnWidget
 605 00f8 00000000 		.word	widget6ID
 606 00fc 00000000 		.word	y
 607 0100 00000000 		.word	x
 608 0104 00000000 		.word	c
 609 0108 00000000 		.word	d
 610              		.cfi_endproc
 611              	.LFE60:
 612              		.size	main, .-main
 613              		.align	1
 614              		.global	sqroot
 615              		.syntax unified
 616              		.thumb
 617              		.thumb_func
 618              		.type	sqroot, %function
 619              	sqroot:
 620              	.LFB61:
 179:main.c        **** 		}
 180:main.c        **** 	}
 181:main.c        **** 
 182:main.c        ****     return 0;
 183:main.c        **** }
 184:main.c        **** 
 185:main.c        **** 
 186:main.c        **** 
 187:main.c        **** 
 188:main.c        **** 
 189:main.c        **** PFdword sqroot(PFdword r) {
 621              		.loc 1 189 27
 622              		.cfi_startproc
 623              		@ args = 0, pretend = 0, frame = 32
 624              		@ frame_needed = 0, uses_anonymous_args = 0
 625              		@ link register save eliminated.
 626 010c 88B0     		sub	sp, sp, #32	@,,
 627              	.LCFI1:
 628              		.cfi_def_cfa_offset 32
 629 010e 0190     		str	r0, [sp, #4]	@ r, r
 630              	@ main.c:191:     if (r==0 || r==1) return r;
 190:main.c        **** 
 191:main.c        ****     if (r==0 || r==1) return r;
 631              		.loc 1 191 8
 632 0110 019B     		ldr	r3, [sp, #4]	@ tmp116, r
 633 0112 002B     		cmp	r3, #0	@ tmp116,
 634 0114 02D0     		beq	.L7		@,
ARM GAS  C:\Users\Aayush\AppData\Local\Temp\ccvWu1Je.s 			page 16


 635              	@ main.c:191:     if (r==0 || r==1) return r;
 636              		.loc 1 191 14 discriminator 2
 637 0116 019B     		ldr	r3, [sp, #4]	@ tmp117, r
 638 0118 012B     		cmp	r3, #1	@ tmp117,
 639 011a 01D1     		bne	.L8		@,
 640              	.L7:
 641              	@ main.c:191:     if (r==0 || r==1) return r;
 642              		.loc 1 191 30 discriminator 3
 643 011c 019B     		ldr	r3, [sp, #4]	@ _5, r
 644 011e 26E0     		b	.L9		@
 645              	.L8:
 646              	@ main.c:193:     PFdword start=1, end=r/2 , mid, res, sqr;
 192:main.c        ****  
 193:main.c        ****     PFdword start=1, end=r/2 , mid, res, sqr;
 647              		.loc 1 193 13
 648 0120 0123     		movs	r3, #1	@ tmp118,
 649 0122 0793     		str	r3, [sp, #28]	@ tmp118, start
 650              	@ main.c:193:     PFdword start=1, end=r/2 , mid, res, sqr;
 651              		.loc 1 193 22
 652 0124 019B     		ldr	r3, [sp, #4]	@ tmp120, r
 653 0126 5B08     		lsrs	r3, r3, #1	@ tmp119, tmp120,
 654 0128 0693     		str	r3, [sp, #24]	@ tmp119, end
 655              	@ main.c:195:     while (start<=end) {
 194:main.c        **** 
 195:main.c        ****     while (start<=end) {
 656              		.loc 1 195 11
 657 012a 1BE0     		b	.L10		@
 658              	.L13:
 659              	@ main.c:197:         mid=(start + end)/2;
 196:main.c        ****         
 197:main.c        ****         mid=(start + end)/2;
 660              		.loc 1 197 20
 661 012c 079A     		ldr	r2, [sp, #28]	@ tmp121, start
 662 012e 069B     		ldr	r3, [sp, #24]	@ tmp122, end
 663 0130 1344     		add	r3, r3, r2	@ _1, tmp121
 664              	@ main.c:197:         mid=(start + end)/2;
 665              		.loc 1 197 12
 666 0132 5B08     		lsrs	r3, r3, #1	@ tmp123, _1,
 667 0134 0493     		str	r3, [sp, #16]	@ tmp123, mid
 668              	@ main.c:198:         sqr=mid*mid;
 198:main.c        ****         sqr=mid*mid;
 669              		.loc 1 198 12
 670 0136 049B     		ldr	r3, [sp, #16]	@ tmp125, mid
 671 0138 03FB03F3 		mul	r3, r3, r3	@ tmp124, tmp125, tmp125
 672 013c 0393     		str	r3, [sp, #12]	@ tmp124, sqr
 673              	@ main.c:200:         if (sqr==r) {
 199:main.c        **** 
 200:main.c        ****         if (sqr==r) {
 674              		.loc 1 200 12
 675 013e 039A     		ldr	r2, [sp, #12]	@ tmp126, sqr
 676 0140 019B     		ldr	r3, [sp, #4]	@ tmp127, r
 677 0142 9A42     		cmp	r2, r3	@ tmp126, tmp127
 678 0144 01D1     		bne	.L11		@,
 679              	@ main.c:201:             return mid;
 201:main.c        ****             return mid;
 680              		.loc 1 201 20
 681 0146 049B     		ldr	r3, [sp, #16]	@ _5, mid
ARM GAS  C:\Users\Aayush\AppData\Local\Temp\ccvWu1Je.s 			page 17


 682 0148 11E0     		b	.L9		@
 683              	.L11:
 684              	@ main.c:204:         if (sqr<r) {
 202:main.c        ****         }
 203:main.c        **** 
 204:main.c        ****         if (sqr<r) {
 685              		.loc 1 204 12
 686 014a 039A     		ldr	r2, [sp, #12]	@ tmp128, sqr
 687 014c 019B     		ldr	r3, [sp, #4]	@ tmp129, r
 688 014e 9A42     		cmp	r2, r3	@ tmp128, tmp129
 689 0150 05D2     		bcs	.L12		@,
 690              	@ main.c:205:             start=mid + 1;
 205:main.c        ****             start=mid + 1;
 691              		.loc 1 205 18
 692 0152 049B     		ldr	r3, [sp, #16]	@ tmp131, mid
 693 0154 0133     		adds	r3, r3, #1	@ tmp130, tmp131,
 694 0156 0793     		str	r3, [sp, #28]	@ tmp130, start
 695              	@ main.c:206:             res=mid;
 206:main.c        ****             res=mid;
 696              		.loc 1 206 16
 697 0158 049B     		ldr	r3, [sp, #16]	@ tmp132, mid
 698 015a 0593     		str	r3, [sp, #20]	@ tmp132, res
 699 015c 02E0     		b	.L10		@
 700              	.L12:
 701              	@ main.c:210:             end=mid - 1;
 207:main.c        ****         }
 208:main.c        **** 
 209:main.c        ****         else {
 210:main.c        ****             end=mid - 1;
 702              		.loc 1 210 16
 703 015e 049B     		ldr	r3, [sp, #16]	@ tmp134, mid
 704 0160 013B     		subs	r3, r3, #1	@ tmp133, tmp134,
 705 0162 0693     		str	r3, [sp, #24]	@ tmp133, end
 706              	.L10:
 707              	@ main.c:195:     while (start<=end) {
 195:main.c        ****         
 708              		.loc 1 195 11
 709 0164 079A     		ldr	r2, [sp, #28]	@ tmp135, start
 710 0166 069B     		ldr	r3, [sp, #24]	@ tmp136, end
 711 0168 9A42     		cmp	r2, r3	@ tmp135, tmp136
 712 016a DFD9     		bls	.L13		@,
 713              	@ main.c:213:     return res;
 211:main.c        ****         }
 212:main.c        ****     }
 213:main.c        ****     return res;
 714              		.loc 1 213 12
 715 016c 059B     		ldr	r3, [sp, #20]	@ _5, res
 716              	.L9:
 717              	@ main.c:214: }
 214:main.c        **** }
 718              		.loc 1 214 1
 719 016e 1846     		mov	r0, r3	@, <retval>
 720 0170 08B0     		add	sp, sp, #32	@,,
 721              	.LCFI2:
 722              		.cfi_def_cfa_offset 0
 723              		@ sp needed	@
 724 0172 7047     		bx	lr	@
ARM GAS  C:\Users\Aayush\AppData\Local\Temp\ccvWu1Je.s 			page 18


 725              		.cfi_endproc
 726              	.LFE61:
 727              		.size	sqroot, .-sqroot
 728              		.align	1
 729              		.global	freeHandBtnEventHandler
 730              		.syntax unified
 731              		.thumb
 732              		.thumb_func
 733              		.type	freeHandBtnEventHandler, %function
 734              	freeHandBtnEventHandler:
 735              	.LFB62:
 215:main.c        **** 
 216:main.c        **** void freeHandBtnEventHandler(void) {
 736              		.loc 1 216 36
 737              		.cfi_startproc
 738              		@ args = 0, pretend = 0, frame = 0
 739              		@ frame_needed = 0, uses_anonymous_args = 0
 740              		@ link register save eliminated.
 741              	@ main.c:217:     idx=1;
 217:main.c        ****     idx=1;
 742              		.loc 1 217 8
 743 0174 024B     		ldr	r3, .L15	@ tmp113,
 744 0176 0122     		movs	r2, #1	@ tmp114,
 745 0178 1A60     		str	r2, [r3]	@ tmp114, idx
 746              	@ main.c:218: }
 218:main.c        **** }
 747              		.loc 1 218 1
 748 017a 00BF     		nop	
 749 017c 7047     		bx	lr	@
 750              	.L16:
 751 017e 00BF     		.align	2
 752              	.L15:
 753 0180 00000000 		.word	idx
 754              		.cfi_endproc
 755              	.LFE62:
 756              		.size	freeHandBtnEventHandler, .-freeHandBtnEventHandler
 757              		.align	1
 758              		.global	lineBtnEventHandler
 759              		.syntax unified
 760              		.thumb
 761              		.thumb_func
 762              		.type	lineBtnEventHandler, %function
 763              	lineBtnEventHandler:
 764              	.LFB63:
 219:main.c        ****     
 220:main.c        **** void lineBtnEventHandler(void) {
 765              		.loc 1 220 32
 766              		.cfi_startproc
 767              		@ args = 0, pretend = 0, frame = 0
 768              		@ frame_needed = 0, uses_anonymous_args = 0
 769              		@ link register save eliminated.
 770              	@ main.c:221:     idx=2;
 221:main.c        ****     idx=2;
 771              		.loc 1 221 8
 772 0184 024B     		ldr	r3, .L18	@ tmp113,
 773 0186 0222     		movs	r2, #2	@ tmp114,
 774 0188 1A60     		str	r2, [r3]	@ tmp114, idx
ARM GAS  C:\Users\Aayush\AppData\Local\Temp\ccvWu1Je.s 			page 19


 775              	@ main.c:222: }
 222:main.c        **** }
 776              		.loc 1 222 1
 777 018a 00BF     		nop	
 778 018c 7047     		bx	lr	@
 779              	.L19:
 780 018e 00BF     		.align	2
 781              	.L18:
 782 0190 00000000 		.word	idx
 783              		.cfi_endproc
 784              	.LFE63:
 785              		.size	lineBtnEventHandler, .-lineBtnEventHandler
 786              		.align	1
 787              		.global	circleBtnEventHandler
 788              		.syntax unified
 789              		.thumb
 790              		.thumb_func
 791              		.type	circleBtnEventHandler, %function
 792              	circleBtnEventHandler:
 793              	.LFB64:
 223:main.c        **** 
 224:main.c        **** void circleBtnEventHandler(void) {
 794              		.loc 1 224 34
 795              		.cfi_startproc
 796              		@ args = 0, pretend = 0, frame = 0
 797              		@ frame_needed = 0, uses_anonymous_args = 0
 798              		@ link register save eliminated.
 799              	@ main.c:225:     idx=3;
 225:main.c        ****     idx=3;
 800              		.loc 1 225 8
 801 0194 024B     		ldr	r3, .L21	@ tmp113,
 802 0196 0322     		movs	r2, #3	@ tmp114,
 803 0198 1A60     		str	r2, [r3]	@ tmp114, idx
 804              	@ main.c:226: }
 226:main.c        **** }
 805              		.loc 1 226 1
 806 019a 00BF     		nop	
 807 019c 7047     		bx	lr	@
 808              	.L22:
 809 019e 00BF     		.align	2
 810              	.L21:
 811 01a0 00000000 		.word	idx
 812              		.cfi_endproc
 813              	.LFE64:
 814              		.size	circleBtnEventHandler, .-circleBtnEventHandler
 815              		.align	1
 816              		.global	rectangleBtnEventHandler
 817              		.syntax unified
 818              		.thumb
 819              		.thumb_func
 820              		.type	rectangleBtnEventHandler, %function
 821              	rectangleBtnEventHandler:
 822              	.LFB65:
 227:main.c        ****     
 228:main.c        **** void rectangleBtnEventHandler(void) {
 823              		.loc 1 228 37
 824              		.cfi_startproc
ARM GAS  C:\Users\Aayush\AppData\Local\Temp\ccvWu1Je.s 			page 20


 825              		@ args = 0, pretend = 0, frame = 0
 826              		@ frame_needed = 0, uses_anonymous_args = 0
 827              		@ link register save eliminated.
 828              	@ main.c:229:     idx=4;
 229:main.c        ****     idx=4;
 829              		.loc 1 229 8
 830 01a4 024B     		ldr	r3, .L24	@ tmp113,
 831 01a6 0422     		movs	r2, #4	@ tmp114,
 832 01a8 1A60     		str	r2, [r3]	@ tmp114, idx
 833              	@ main.c:230: }
 230:main.c        **** }
 834              		.loc 1 230 1
 835 01aa 00BF     		nop	
 836 01ac 7047     		bx	lr	@
 837              	.L25:
 838 01ae 00BF     		.align	2
 839              	.L24:
 840 01b0 00000000 		.word	idx
 841              		.cfi_endproc
 842              	.LFE65:
 843              		.size	rectangleBtnEventHandler, .-rectangleBtnEventHandler
 844              		.section	.rodata
 845 00b3 00       		.align	2
 846              	.LC11:
 847 00b4 53415645 		.ascii	"SAVED\000"
 847      4400
 848              		.text
 849              		.align	1
 850              		.global	saveBtnEventHandler
 851              		.syntax unified
 852              		.thumb
 853              		.thumb_func
 854              		.type	saveBtnEventHandler, %function
 855              	saveBtnEventHandler:
 856              	.LFB66:
 231:main.c        **** 
 232:main.c        **** void saveBtnEventHandler(void) {
 857              		.loc 1 232 32
 858              		.cfi_startproc
 859              		@ args = 0, pretend = 0, frame = 0
 860              		@ frame_needed = 0, uses_anonymous_args = 0
 861 01b4 00B5     		push	{lr}	@
 862              	.LCFI3:
 863              		.cfi_def_cfa_offset 4
 864              		.cfi_offset 14, -4
 865 01b6 83B0     		sub	sp, sp, #12	@,,
 866              	.LCFI4:
 867              		.cfi_def_cfa_offset 16
 868              	@ main.c:233:     gfxDrawString(val,50,"SAVED",enGfxFont_8X16,BLACK,WHITE);
 233:main.c        ****     gfxDrawString(val,50,"SAVED",enGfxFont_8X16,BLACK,WHITE);
 869              		.loc 1 233 5
 870 01b8 074B     		ldr	r3, .L27	@ tmp114,
 871 01ba 1868     		ldr	r0, [r3]	@ val.12_1, val
 872 01bc 4FF6FF73 		movw	r3, #65535	@ tmp115,
 873 01c0 0193     		str	r3, [sp, #4]	@ tmp115,
 874 01c2 0023     		movs	r3, #0	@ tmp116,
 875 01c4 0093     		str	r3, [sp]	@ tmp116,
ARM GAS  C:\Users\Aayush\AppData\Local\Temp\ccvWu1Je.s 			page 21


 876 01c6 0123     		movs	r3, #1	@,
 877 01c8 044A     		ldr	r2, .L27+4	@,
 878 01ca 3221     		movs	r1, #50	@,
 879 01cc FFF7FEFF 		bl	gfxDrawString		@
 880              	@ main.c:235: }
 234:main.c        ****     // val+=50;
 235:main.c        **** }
 881              		.loc 1 235 1
 882 01d0 00BF     		nop	
 883 01d2 03B0     		add	sp, sp, #12	@,,
 884              	.LCFI5:
 885              		.cfi_def_cfa_offset 4
 886              		@ sp needed	@
 887 01d4 5DF804FB 		ldr	pc, [sp], #4	@
 888              	.L28:
 889              		.align	2
 890              	.L27:
 891 01d8 00000000 		.word	val
 892 01dc B4000000 		.word	.LC11
 893              		.cfi_endproc
 894              	.LFE66:
 895              		.size	saveBtnEventHandler, .-saveBtnEventHandler
 896              		.section	.rodata
 897 00ba 0000     		.align	2
 898              	.LC12:
 899 00bc 53415645 		.ascii	"SAVE\000"
 899      00
 900              		.text
 901              		.align	1
 902              		.global	homeScreen
 903              		.syntax unified
 904              		.thumb
 905              		.thumb_func
 906              		.type	homeScreen, %function
 907              	homeScreen:
 908              	.LFB67:
 236:main.c        ****     
 237:main.c        **** void homeScreen(void) {
 909              		.loc 1 237 23
 910              		.cfi_startproc
 911              		@ args = 0, pretend = 0, frame = 0
 912              		@ frame_needed = 0, uses_anonymous_args = 0
 913 01e0 00B5     		push	{lr}	@
 914              	.LCFI6:
 915              		.cfi_def_cfa_offset 4
 916              		.cfi_offset 14, -4
 917 01e2 83B0     		sub	sp, sp, #12	@,,
 918              	.LCFI7:
 919              		.cfi_def_cfa_offset 16
 920              	@ main.c:238:     setWindow(windowID);
 238:main.c        ****     setWindow(windowID);
 921              		.loc 1 238 5
 922 01e4 124B     		ldr	r3, .L30	@ tmp114,
 923 01e6 1B78     		ldrb	r3, [r3]	@ zero_extendqisi2	@ windowID.13_1, windowID
 924 01e8 1846     		mov	r0, r3	@, windowID.13_1
 925 01ea FFF7FEFF 		bl	setWindow		@
 926              	@ main.c:239:     gfxDrawLine(42,36,72,4);
ARM GAS  C:\Users\Aayush\AppData\Local\Temp\ccvWu1Je.s 			page 22


 239:main.c        ****     gfxDrawLine(42,36,72,4);
 927              		.loc 1 239 5
 928 01ee 0423     		movs	r3, #4	@,
 929 01f0 4822     		movs	r2, #72	@,
 930 01f2 2421     		movs	r1, #36	@,
 931 01f4 2A20     		movs	r0, #42	@,
 932 01f6 FFF7FEFF 		bl	gfxDrawLine		@
 933              	@ main.c:240:     gfxDrawCircle(95,20,16);
 240:main.c        ****     gfxDrawCircle(95,20,16);
 934              		.loc 1 240 5
 935 01fa 1022     		movs	r2, #16	@,
 936 01fc 1421     		movs	r1, #20	@,
 937 01fe 5F20     		movs	r0, #95	@,
 938 0200 FFF7FEFF 		bl	gfxDrawCircle		@
 939              	@ main.c:241:     gfxDrawRectangle(118,4,148,36);	
 241:main.c        ****     gfxDrawRectangle(118,4,148,36);	
 940              		.loc 1 241 5
 941 0204 2423     		movs	r3, #36	@,
 942 0206 9422     		movs	r2, #148	@,
 943 0208 0421     		movs	r1, #4	@,
 944 020a 7620     		movs	r0, #118	@,
 945 020c FFF7FEFF 		bl	gfxDrawRectangle		@
 946              	@ main.c:242:     gfxDrawString(197,12,"SAVE",enGfxFont_8X16,BLACK,WHITE);
 242:main.c        ****     gfxDrawString(197,12,"SAVE",enGfxFont_8X16,BLACK,WHITE);
 947              		.loc 1 242 5
 948 0210 4FF6FF73 		movw	r3, #65535	@ tmp115,
 949 0214 0193     		str	r3, [sp, #4]	@ tmp115,
 950 0216 0023     		movs	r3, #0	@ tmp116,
 951 0218 0093     		str	r3, [sp]	@ tmp116,
 952 021a 0123     		movs	r3, #1	@,
 953 021c 054A     		ldr	r2, .L30+4	@,
 954 021e 0C21     		movs	r1, #12	@,
 955 0220 C520     		movs	r0, #197	@,
 956 0222 FFF7FEFF 		bl	gfxDrawString		@
 957              	@ main.c:243: } 
 243:main.c        **** } 
 958              		.loc 1 243 1
 959 0226 00BF     		nop	
 960 0228 03B0     		add	sp, sp, #12	@,,
 961              	.LCFI8:
 962              		.cfi_def_cfa_offset 4
 963              		@ sp needed	@
 964 022a 5DF804FB 		ldr	pc, [sp], #4	@
 965              	.L31:
 966 022e 00BF     		.align	2
 967              	.L30:
 968 0230 00000000 		.word	windowID
 969 0234 BC000000 		.word	.LC12
 970              		.cfi_endproc
 971              	.LFE67:
 972              		.size	homeScreen, .-homeScreen
 973              		.align	1
 974              		.global	clearscreenBtnEventHandler
 975              		.syntax unified
 976              		.thumb
 977              		.thumb_func
 978              		.type	clearscreenBtnEventHandler, %function
ARM GAS  C:\Users\Aayush\AppData\Local\Temp\ccvWu1Je.s 			page 23


 979              	clearscreenBtnEventHandler:
 980              	.LFB68:
 244:main.c        **** 
 245:main.c        **** void clearscreenBtnEventHandler(void) {
 981              		.loc 1 245 39
 982              		.cfi_startproc
 983              		@ args = 0, pretend = 0, frame = 0
 984              		@ frame_needed = 0, uses_anonymous_args = 0
 985 0238 08B5     		push	{r3, lr}	@
 986              	.LCFI9:
 987              		.cfi_def_cfa_offset 8
 988              		.cfi_offset 3, -8
 989              		.cfi_offset 14, -4
 990              	@ main.c:247:     homeScreen();
 246:main.c        **** 	// gfxFillArea(2,42,238,318,WHITE);
 247:main.c        ****     homeScreen();
 991              		.loc 1 247 5
 992 023a FFF7FEFF 		bl	homeScreen		@
 993              	@ main.c:248: }
 248:main.c        **** }
 994              		.loc 1 248 1
 995 023e 00BF     		nop	
 996 0240 08BD     		pop	{r3, pc}	@
 997              		.cfi_endproc
 998              	.LFE68:
 999              		.size	clearscreenBtnEventHandler, .-clearscreenBtnEventHandler
 1000              		.align	1
 1001              		.global	canvasEventHandler
 1002              		.syntax unified
 1003              		.thumb
 1004              		.thumb_func
 1005              		.type	canvasEventHandler, %function
 1006              	canvasEventHandler:
 1007              	.LFB69:
 249:main.c        **** 
 250:main.c        **** void canvasEventHandler(void) {
 1008              		.loc 1 250 31
 1009              		.cfi_startproc
 1010              		@ args = 0, pretend = 0, frame = 8
 1011              		@ frame_needed = 0, uses_anonymous_args = 0
 1012 0242 00B5     		push	{lr}	@
 1013              	.LCFI10:
 1014              		.cfi_def_cfa_offset 4
 1015              		.cfi_offset 14, -4
 1016 0244 83B0     		sub	sp, sp, #12	@,,
 1017              	.LCFI11:
 1018              		.cfi_def_cfa_offset 16
 1019              	@ main.c:255:     switch(idx) 
 251:main.c        **** /* the edge cases such as handling of shapes and pixels not to be drawn on the buttons are commente
 252:main.c        ****    see about the problems but we will use them in the final build and please have the look at the e
 253:main.c        ****    if they are correct.
 254:main.c        **** */
 255:main.c        ****     switch(idx) 
 1020              		.loc 1 255 5
 1021 0246 444B     		ldr	r3, .L50	@ tmp153,
 1022 0248 1B68     		ldr	r3, [r3]	@ idx.14_1, idx
 1023 024a 013B     		subs	r3, r3, #1	@ tmp154, idx.14_1,
ARM GAS  C:\Users\Aayush\AppData\Local\Temp\ccvWu1Je.s 			page 24


 1024 024c 032B     		cmp	r3, #3	@ tmp154,
 1025 024e 7ED8     		bhi	.L46		@
 1026 0250 01A2     		adr	r2, .L36	@ tmp183,
 1027 0252 52F823F0 		ldr	pc, [r2, r3, lsl #2]	@ tmp183, tmp154
 1028 0256 00BF     		.p2align 2
 1029              	.L36:
 1030 0258 69020000 		.word	.L39+1
 1031 025c 9B020000 		.word	.L47+1
 1032 0260 C7020000 		.word	.L48+1
 1033 0264 29030000 		.word	.L49+1
 1034              		.p2align 1
 1035              	.L39:
 1036              	.LBB2:
 1037              	@ main.c:258:             gfxDrawPixels(x,y);
 256:main.c        ****     {
 257:main.c        ****         case 1:
 258:main.c        ****             gfxDrawPixels(x,y);
 1038              		.loc 1 258 13
 1039 0268 3C4B     		ldr	r3, .L50+4	@ tmp155,
 1040 026a 1B68     		ldr	r3, [r3]	@ x.15_2, x
 1041 026c 3C4A     		ldr	r2, .L50+8	@ tmp156,
 1042 026e 1268     		ldr	r2, [r2]	@ y.16_3, y
 1043 0270 1146     		mov	r1, r2	@, y.16_3
 1044 0272 1846     		mov	r0, r3	@, x.15_2
 1045 0274 FFF7FEFF 		bl	gfxDrawPixels		@
 1046              	@ main.c:259: 	    	while(touchAvailable(&a,&b)==enBooleanTrue) {
 259:main.c        **** 	    	while(touchAvailable(&a,&b)==enBooleanTrue) {
 1047              		.loc 1 259 12
 1048 0278 07E0     		b	.L40		@
 1049              	.L41:
 1050              	@ main.c:261:                 gfxDrawPixels(a,b);
 260:main.c        ****                 // if(b>=42) {}
 261:main.c        ****                 gfxDrawPixels(a,b);
 1051              		.loc 1 261 17
 1052 027a 3A4B     		ldr	r3, .L50+12	@ tmp157,
 1053 027c 1B68     		ldr	r3, [r3]	@ a.17_4, a
 1054 027e 3A4A     		ldr	r2, .L50+16	@ tmp158,
 1055 0280 1268     		ldr	r2, [r2]	@ b.18_5, b
 1056 0282 1146     		mov	r1, r2	@, b.18_5
 1057 0284 1846     		mov	r0, r3	@, a.17_4
 1058 0286 FFF7FEFF 		bl	gfxDrawPixels		@
 1059              	.L40:
 1060              	@ main.c:259: 	    	while(touchAvailable(&a,&b)==enBooleanTrue) {
 259:main.c        **** 	    	while(touchAvailable(&a,&b)==enBooleanTrue) {
 1061              		.loc 1 259 13
 1062 028a 3749     		ldr	r1, .L50+16	@,
 1063 028c 3548     		ldr	r0, .L50+12	@,
 1064 028e FFF7FEFF 		bl	touchAvailable		@
 1065 0292 0346     		mov	r3, r0	@ tmp159,
 1066              	@ main.c:259: 	    	while(touchAvailable(&a,&b)==enBooleanTrue) {
 259:main.c        **** 	    	while(touchAvailable(&a,&b)==enBooleanTrue) {
 1067              		.loc 1 259 12
 1068 0294 012B     		cmp	r3, #1	@ _6,
 1069 0296 F0D0     		beq	.L41		@,
 1070              	@ main.c:263:             break;
 262:main.c        ****             }
 263:main.c        ****             break;
ARM GAS  C:\Users\Aayush\AppData\Local\Temp\ccvWu1Je.s 			page 25


 1071              		.loc 1 263 13
 1072 0298 5AE0     		b	.L42		@
 1073              	.L47:
 1074              	@ main.c:265:             while(touchAvailable(&a,&b)==enBooleanTrue) {}
 264:main.c        ****         case 2:
 265:main.c        ****             while(touchAvailable(&a,&b)==enBooleanTrue) {}
 1075              		.loc 1 265 18
 1076 029a 00BF     		nop	
 1077              	.L43:
 1078              	@ main.c:265:             while(touchAvailable(&a,&b)==enBooleanTrue) {}
 1079              		.loc 1 265 19 discriminator 1
 1080 029c 3249     		ldr	r1, .L50+16	@,
 1081 029e 3148     		ldr	r0, .L50+12	@,
 1082 02a0 FFF7FEFF 		bl	touchAvailable		@
 1083 02a4 0346     		mov	r3, r0	@ tmp160,
 1084              	@ main.c:265:             while(touchAvailable(&a,&b)==enBooleanTrue) {}
 1085              		.loc 1 265 18 discriminator 1
 1086 02a6 012B     		cmp	r3, #1	@ _7,
 1087 02a8 F8D0     		beq	.L43		@,
 1088              	@ main.c:267: 			gfxDrawLine(c,d,a,b);
 266:main.c        ****             // if((x!=a || y!=b) && b>=42) {}
 267:main.c        **** 			gfxDrawLine(c,d,a,b);
 1089              		.loc 1 267 4
 1090 02aa 304B     		ldr	r3, .L50+20	@ tmp161,
 1091 02ac 1B68     		ldr	r3, [r3]	@ c.19_8, c
 1092 02ae 1846     		mov	r0, r3	@ c.20_9, c.19_8
 1093 02b0 2F4B     		ldr	r3, .L50+24	@ tmp162,
 1094 02b2 1B68     		ldr	r3, [r3]	@ d.21_10, d
 1095 02b4 1946     		mov	r1, r3	@ d.22_11, d.21_10
 1096 02b6 2B4B     		ldr	r3, .L50+12	@ tmp163,
 1097 02b8 1B68     		ldr	r3, [r3]	@ a.23_12, a
 1098 02ba 1A46     		mov	r2, r3	@ a.24_13, a.23_12
 1099 02bc 2A4B     		ldr	r3, .L50+16	@ tmp164,
 1100 02be 1B68     		ldr	r3, [r3]	@ b.25_14, b
 1101 02c0 FFF7FEFF 		bl	gfxDrawLine		@
 1102              	@ main.c:268:             break;
 268:main.c        ****             break;
 1103              		.loc 1 268 13
 1104 02c4 44E0     		b	.L42		@
 1105              	.L48:
 1106              	@ main.c:270:             while(touchAvailable(&a,&b)==enBooleanTrue) {}
 269:main.c        ****         case 3:
 270:main.c        ****             while(touchAvailable(&a,&b)==enBooleanTrue) {}
 1107              		.loc 1 270 18
 1108 02c6 00BF     		nop	
 1109              	.L44:
 1110              	@ main.c:270:             while(touchAvailable(&a,&b)==enBooleanTrue) {}
 1111              		.loc 1 270 19 discriminator 1
 1112 02c8 2749     		ldr	r1, .L50+16	@,
 1113 02ca 2648     		ldr	r0, .L50+12	@,
 1114 02cc FFF7FEFF 		bl	touchAvailable		@
 1115 02d0 0346     		mov	r3, r0	@ tmp165,
 1116              	@ main.c:270:             while(touchAvailable(&a,&b)==enBooleanTrue) {}
 1117              		.loc 1 270 18 discriminator 1
 1118 02d2 012B     		cmp	r3, #1	@ _16,
 1119 02d4 F8D0     		beq	.L44		@,
 1120              	@ main.c:272:             PFdword radius,tmp=((a-c)*(a-c))+((b-d)*(b-d));
ARM GAS  C:\Users\Aayush\AppData\Local\Temp\ccvWu1Je.s 			page 26


 271:main.c        ****             // if((x!=a || y!=b) && b>=42) {}
 272:main.c        ****             PFdword radius,tmp=((a-c)*(a-c))+((b-d)*(b-d));
 1121              		.loc 1 272 35
 1122 02d6 234B     		ldr	r3, .L50+12	@ tmp166,
 1123 02d8 1A68     		ldr	r2, [r3]	@ a.27_17, a
 1124 02da 244B     		ldr	r3, .L50+20	@ tmp167,
 1125 02dc 1B68     		ldr	r3, [r3]	@ c.28_18, c
 1126 02de D31A     		subs	r3, r2, r3	@ _19, a.27_17, c.28_18
 1127              	@ main.c:272:             PFdword radius,tmp=((a-c)*(a-c))+((b-d)*(b-d));
 1128              		.loc 1 272 41
 1129 02e0 204A     		ldr	r2, .L50+12	@ tmp168,
 1130 02e2 1168     		ldr	r1, [r2]	@ a.29_20, a
 1131 02e4 214A     		ldr	r2, .L50+20	@ tmp169,
 1132 02e6 1268     		ldr	r2, [r2]	@ c.30_21, c
 1133 02e8 8A1A     		subs	r2, r1, r2	@ _22, a.29_20, c.30_21
 1134              	@ main.c:272:             PFdword radius,tmp=((a-c)*(a-c))+((b-d)*(b-d));
 1135              		.loc 1 272 38
 1136 02ea 03FB02F2 		mul	r2, r3, r2	@ _23, _19, _22
 1137              	@ main.c:272:             PFdword radius,tmp=((a-c)*(a-c))+((b-d)*(b-d));
 1138              		.loc 1 272 49
 1139 02ee 1E4B     		ldr	r3, .L50+16	@ tmp170,
 1140 02f0 1968     		ldr	r1, [r3]	@ b.31_24, b
 1141 02f2 1F4B     		ldr	r3, .L50+24	@ tmp171,
 1142 02f4 1B68     		ldr	r3, [r3]	@ d.32_25, d
 1143 02f6 CB1A     		subs	r3, r1, r3	@ _26, b.31_24, d.32_25
 1144              	@ main.c:272:             PFdword radius,tmp=((a-c)*(a-c))+((b-d)*(b-d));
 1145              		.loc 1 272 55
 1146 02f8 1B49     		ldr	r1, .L50+16	@ tmp172,
 1147 02fa 0868     		ldr	r0, [r1]	@ b.33_27, b
 1148 02fc 1C49     		ldr	r1, .L50+24	@ tmp173,
 1149 02fe 0968     		ldr	r1, [r1]	@ d.34_28, d
 1150 0300 411A     		subs	r1, r0, r1	@ _29, b.33_27, d.34_28
 1151              	@ main.c:272:             PFdword radius,tmp=((a-c)*(a-c))+((b-d)*(b-d));
 1152              		.loc 1 272 52
 1153 0302 01FB03F3 		mul	r3, r1, r3	@ _30, _29, _26
 1154              	@ main.c:272:             PFdword radius,tmp=((a-c)*(a-c))+((b-d)*(b-d));
 1155              		.loc 1 272 28
 1156 0306 1344     		add	r3, r3, r2	@ tmp174, _23
 1157 0308 0193     		str	r3, [sp, #4]	@ tmp174, tmp
 1158              	@ main.c:273: 	    	radius=sqroot(tmp);
 273:main.c        **** 	    	radius=sqroot(tmp);
 1159              		.loc 1 273 14
 1160 030a 0198     		ldr	r0, [sp, #4]	@, tmp
 1161 030c FFF7FEFF 		bl	sqroot		@
 1162 0310 0090     		str	r0, [sp]	@, radius
 1163              	@ main.c:275: 		    gfxDrawCircle(c,d,radius);
 274:main.c        ****             // if(y-radius>=42 && y+radius<=319 && x-radius>=0 && x+radius>=239) {}
 275:main.c        **** 		    gfxDrawCircle(c,d,radius);
 1164              		.loc 1 275 7
 1165 0312 164B     		ldr	r3, .L50+20	@ tmp175,
 1166 0314 1B68     		ldr	r3, [r3]	@ c.35_31, c
 1167 0316 1846     		mov	r0, r3	@ c.36_32, c.35_31
 1168 0318 154B     		ldr	r3, .L50+24	@ tmp176,
 1169 031a 1B68     		ldr	r3, [r3]	@ d.37_33, d
 1170 031c 1946     		mov	r1, r3	@ d.38_34, d.37_33
 1171 031e 009B     		ldr	r3, [sp]	@ radius.39_35, radius
 1172 0320 1A46     		mov	r2, r3	@, radius.39_35
ARM GAS  C:\Users\Aayush\AppData\Local\Temp\ccvWu1Je.s 			page 27


 1173 0322 FFF7FEFF 		bl	gfxDrawCircle		@
 1174              	@ main.c:276:             break;
 276:main.c        ****             break;
 1175              		.loc 1 276 13
 1176 0326 13E0     		b	.L42		@
 1177              	.L49:
 1178              	@ main.c:278:             while(touchAvailable(&a,&b)==enBooleanTrue) {}
 277:main.c        ****         case 4:
 278:main.c        ****             while(touchAvailable(&a,&b)==enBooleanTrue) {}
 1179              		.loc 1 278 18
 1180 0328 00BF     		nop	
 1181              	.L45:
 1182              	@ main.c:278:             while(touchAvailable(&a,&b)==enBooleanTrue) {}
 1183              		.loc 1 278 19 discriminator 1
 1184 032a 0F49     		ldr	r1, .L50+16	@,
 1185 032c 0D48     		ldr	r0, .L50+12	@,
 1186 032e FFF7FEFF 		bl	touchAvailable		@
 1187 0332 0346     		mov	r3, r0	@ tmp177,
 1188              	@ main.c:278:             while(touchAvailable(&a,&b)==enBooleanTrue) {}
 1189              		.loc 1 278 18 discriminator 1
 1190 0334 012B     		cmp	r3, #1	@ _36,
 1191 0336 F8D0     		beq	.L45		@,
 1192              	@ main.c:280: 			gfxDrawRectangle(c,d,a,b);
 279:main.c        ****             // if((x!=a && y!=b) && b>=42) {}
 280:main.c        **** 			gfxDrawRectangle(c,d,a,b);
 1193              		.loc 1 280 4
 1194 0338 0C4B     		ldr	r3, .L50+20	@ tmp178,
 1195 033a 1868     		ldr	r0, [r3]	@ c.40_37, c
 1196 033c 0C4B     		ldr	r3, .L50+24	@ tmp179,
 1197 033e 1968     		ldr	r1, [r3]	@ d.41_38, d
 1198 0340 084B     		ldr	r3, .L50+12	@ tmp180,
 1199 0342 1A68     		ldr	r2, [r3]	@ a.42_39, a
 1200 0344 084B     		ldr	r3, .L50+16	@ tmp181,
 1201 0346 1B68     		ldr	r3, [r3]	@ b.43_40, b
 1202 0348 FFF7FEFF 		bl	gfxDrawRectangle		@
 1203              	@ main.c:281:             break;
 281:main.c        ****             break;
 1204              		.loc 1 281 13
 1205 034c 00E0     		b	.L42		@
 1206              	.L46:
 1207              	@ main.c:283:             break;
 282:main.c        ****         default :
 283:main.c        ****             break;
 1208              		.loc 1 283 13
 1209 034e 00BF     		nop	
 1210              	.L42:
 1211              	.LBE2:
 1212              	@ main.c:285: }
 284:main.c        ****     }
 285:main.c        **** }...
 1213              		.loc 1 285 1
 1214 0350 00BF     		nop	
 1215 0352 03B0     		add	sp, sp, #12	@,,
 1216              	.LCFI12:
 1217              		.cfi_def_cfa_offset 4
 1218              		@ sp needed	@
 1219 0354 5DF804FB 		ldr	pc, [sp], #4	@
ARM GAS  C:\Users\Aayush\AppData\Local\Temp\ccvWu1Je.s 			page 28


 1220              	.L51:
 1221              		.align	2
 1222              	.L50:
 1223 0358 00000000 		.word	idx
 1224 035c 00000000 		.word	x
 1225 0360 00000000 		.word	y
 1226 0364 00000000 		.word	a
 1227 0368 00000000 		.word	b
 1228 036c 00000000 		.word	c
 1229 0370 00000000 		.word	d
 1230              		.cfi_endproc
 1231              	.LFE69:
 1232              		.size	canvasEventHandler, .-canvasEventHandler
 1233              	.Letext0:
 1234              		.file 2 "../../Include/PrimeFramework/prime_types.h"
 1235              		.file 3 "../../Include/AppHelper/graphics.h"
 1236              		.file 4 "../../Include/GameEngine/Graphics/gui.h"