ARM GAS  C:\Users\Aayush\AppData\Local\Temp\ccvWu1Je.s 			page 1


   1              		.cpu cortex-m3
   2              		.arch armv7-m
   3              		.fpu softvfp
   4              		.eabi_attribute 20, 1	@ Tag_ABI_FP_denormal
   5              		.eabi_attribute 21, 1	@ Tag_ABI_FP_exceptions
   6              		.eabi_attribute 23, 3	@ Tag_ABI_FP_number_model
   7              		.eabi_attribute 24, 1	@ Tag_ABI_align8_needed
   8              		.eabi_attribute 25, 1	@ Tag_ABI_align8_preserved
   9              		.eabi_attribute 26, 1	@ Tag_ABI_enum_size
  10              		.eabi_attribute 30, 6	@ Tag_ABI_optimization_goals
  11              		.eabi_attribute 34, 1	@ Tag_CPU_unaligned_access
  12              		.eabi_attribute 18, 4	@ Tag_ABI_PCS_wchar_t
  13              		.file	"main.c"
  14              	@ GNU C99 (GNU Arm Embedded Toolchain 10.3-2021.10) version 10.3.1 20210824 (release) (arm-none-eab
  15              	@	compiled by GNU C version 7.3-win32 20180312, GMP version 6.1.0, MPFR version 3.1.4, MPC version 
  16              	
  17              	@ GGC heuristics: --param ggc-min-expand=100 --param ggc-min-heapsize=131072
  18              	@ options passed:  -I . -I ../../Include -I ../../Include/PrimeFramework
  19              	@ -I ../../Include/AppHelper -I ../../Include/GameEngine
  20              	@ -I ../../Include/GameEngine/Graphics -I ../../Include/GameEngine/Object
  21              	@ -I ../../Include/GameEngine/Renderer -I ../../Include/GameEngine/Resource
  22              	@ -imultilib thumb/v7-m/nofp
  23              	@ -iprefix c:\program files (x86)\gnu arm embedded toolchain\10 2021.10\bin\../lib/gcc/arm-none-eab
  24              	@ -isysroot c:\program files (x86)\gnu arm embedded toolchain\10 2021.10\bin\../arm-none-eabi
  25              	@ -MD Build/Obj/Debug/main.d -MF .dep/main.o.d -MP
  26              	@ -MQ Build/Obj/Debug/main.o -D__USES_INITFINI__ -D MCU_CHIP_lpc1768
  27              	@ -D PRIME_DEBUG main.c -mcpu=cortex-m3 -mthumb -mfloat-abi=soft
  28              	@ -mlibarch=armv7-m -march=armv7-m -auxbase-strip Build/Obj/Debug/main.o
  29              	@ -gdwarf-2 -O0 -Wall -Wno-cpp -std=gnu99 -fomit-frame-pointer
  30              	@ -fverbose-asm
  31              	@ options enabled:  -faggressive-loop-optimizations -fallocation-dce
  32              	@ -fauto-inc-dec -fdelete-null-pointer-checks -fdwarf2-cfi-asm
  33              	@ -fearly-inlining -feliminate-unused-debug-symbols
  34              	@ -feliminate-unused-debug-types -ffp-int-builtin-inexact -ffunction-cse
  35              	@ -fgcse-lm -fgnu-unique -fident -finline-atomics -fipa-stack-alignment
  36              	@ -fira-hoist-pressure -fira-share-save-slots -fira-share-spill-slots
  37              	@ -fivopts -fkeep-static-consts -fleading-underscore -flifetime-dse
  38              	@ -fmath-errno -fmerge-debug-strings -fomit-frame-pointer -fpeephole -fplt
  39              	@ -fprefetch-loop-arrays -freg-struct-return
  40              	@ -fsched-critical-path-heuristic -fsched-dep-count-heuristic
  41              	@ -fsched-group-heuristic -fsched-interblock -fsched-last-insn-heuristic
  42              	@ -fsched-rank-heuristic -fsched-spec -fsched-spec-insn-heuristic
  43              	@ -fsched-stalled-insns-dep -fsemantic-interposition -fshow-column
  44              	@ -fshrink-wrap-separate -fsigned-zeros -fsplit-ivs-in-unroller
  45              	@ -fssa-backprop -fstdarg-opt -fstrict-volatile-bitfields -fsync-libcalls
  46              	@ -ftrapping-math -ftree-cselim -ftree-forwprop -ftree-loop-if-convert
  47              	@ -ftree-loop-im -ftree-loop-ivcanon -ftree-loop-optimize
  48              	@ -ftree-parallelize-loops= -ftree-phiprop -ftree-reassoc -ftree-scev-cprop
  49              	@ -funit-at-a-time -fverbose-asm -fzero-initialized-in-bss
  50              	@ -masm-syntax-unified -mbe32 -mfix-cortex-m3-ldrd -mlittle-endian
  51              	@ -mpic-data-is-text-relative -msched-prolog -mthumb -munaligned-access
  52              	@ -mvectorize-with-neon-quad
  53              	
  54              		.text
  55              	.Ltext0:
  56              		.cfi_sections	.debug_frame
  57              		.global	windowID
ARM GAS  C:\Users\Aayush\AppData\Local\Temp\ccvWu1Je.s 			page 2


  58              		.bss
  59              		.type	windowID, %object
  60              		.size	windowID, 1
  61              	windowID:
  62 0000 00       		.space	1
  63              		.global	canvasID
  64              		.type	canvasID, %object
  65              		.size	canvasID, 1
  66              	canvasID:
  67 0001 00       		.space	1
  68              		.global	widget1ID
  69              		.type	widget1ID, %object
  70              		.size	widget1ID, 1
  71              	widget1ID:
  72 0002 00       		.space	1
  73              		.global	widget2ID
  74              		.type	widget2ID, %object
  75              		.size	widget2ID, 1
  76              	widget2ID:
  77 0003 00       		.space	1
  78              		.global	widget3ID
  79              		.type	widget3ID, %object
  80              		.size	widget3ID, 1
  81              	widget3ID:
  82 0004 00       		.space	1
  83              		.global	widget4ID
  84              		.type	widget4ID, %object
  85              		.size	widget4ID, 1
  86              	widget4ID:
  87 0005 00       		.space	1
  88              		.global	widget5ID
  89              		.type	widget5ID, %object
  90              		.size	widget5ID, 1
  91              	widget5ID:
  92 0006 00       		.space	1
  93              		.global	widget6ID
  94              		.type	widget6ID, %object
  95              		.size	widget6ID, 1
  96              	widget6ID:
  97 0007 00       		.space	1
  98              		.global	x
  99              		.align	2
 100              		.type	x, %object
 101              		.size	x, 4
 102              	x:
 103 0008 00000000 		.space	4
 104              		.global	y
 105              		.align	2
 106              		.type	y, %object
 107              		.size	y, 4
 108              	y:
 109 000c 00000000 		.space	4
 110              		.global	a
 111              		.align	2
 112              		.type	a, %object
 113              		.size	a, 4
 114              	a:
ARM GAS  C:\Users\Aayush\AppData\Local\Temp\ccvWu1Je.s 			page 3


 115 0010 00000000 		.space	4
 116              		.global	b
 117              		.align	2
 118              		.type	b, %object
 119              		.size	b, 4
 120              	b:
 121 0014 00000000 		.space	4
 122              		.global	c
 123              		.align	2
 124              		.type	c, %object
 125              		.size	c, 4
 126              	c:
 127 0018 00000000 		.space	4
 128              		.global	d
 129              		.align	2
 130              		.type	d, %object
 131              		.size	d, 4
 132              	d:
 133 001c 00000000 		.space	4
 134              		.global	val
 135              		.data
 136              		.align	2
 137              		.type	val, %object
 138              		.size	val, 4
 139              	val:
 140 0000 0A000000 		.word	10
 141              		.global	idx
 142              		.bss
 143              		.align	2
 144              		.type	idx, %object
 145              		.size	idx, 4
 146              	idx:
 147 0020 00000000 		.space	4
 148              		.section	.rodata
 149              		.align	2
 150              	.LC0:
 151 0000 57696E64 		.ascii	"Window 1\000"
 151      6F772031 
 151      00
 152              		.data
 153              		.align	2
 154              		.type	window1, %object
 155              		.size	window1, 20
 156              	window1:
 157              	@ windowAttr:
 158              	@ name:
 159 0004 00000000 		.word	.LC0
 160              	@ topLeft:
 161              	@ xValue:
 162 0008 0000     		.short	0
 163              	@ yValue:
 164 000a 0000     		.short	0
 165              	@ size:
 166              	@ width:
 167 000c F000     		.short	240
 168              	@ height:
 169 000e 4001     		.short	320
ARM GAS  C:\Users\Aayush\AppData\Local\Temp\ccvWu1Je.s 			page 4


 170              	@ backgroundColor:
 171 0010 FFFF     		.short	-1
 172              	@ border:
 173 0012 00       		.byte	0
 174 0013 00       		.space	1
 175              	@ oneShotHandler:
 176 0014 00000000 		.word	0
 177              		.section	.rodata
 178 0009 000000   		.align	2
 179              	.LC1:
 180 000c 43616E76 		.ascii	"Canvas\000"
 180      617300
 181 0013 00       		.align	2
 182              	.LC2:
 183 0014 00       		.ascii	"\000"
 184              		.data
 185              		.align	2
 186              		.type	Canvas, %object
 187              		.size	Canvas, 32
 188              	Canvas:
 189              	@ canvasAttr:
 190              	@ name:
 191 0018 0C000000 		.word	.LC1
 192              	@ topLeft:
 193              	@ xValue:
 194 001c 0000     		.short	0
 195              	@ yValue:
 196 001e 2800     		.short	40
 197              	@ size:
 198              	@ width:
 199 0020 F000     		.short	240
 200              	@ height:
 201 0022 1801     		.short	280
 202              	@ backgroundColor:
 203 0024 FFFF     		.short	-1
 204              	@ border:
 205 0026 01       		.byte	1
 206 0027 00       		.space	1
 207              	@ eventHandler:
 208 0028 00000000 		.word	canvasEventHandler
 209              	@ displayString:
 210 002c 14000000 		.word	.LC2
 211              	@ font:
 212 0030 01       		.byte	1
 213              	@ fontColor:
 214 0031 00       		.space	1
 215 0032 FFFF     		.short	-1
 216              	@ image1:
 217 0034 00000000 		.word	0
 218              		.section	.rodata
 219 0015 000000   		.align	2
 220              	.LC3:
 221 0018 46726565 		.ascii	"Freehand button widget\000"
 221      68616E64 
 221      20627574 
 221      746F6E20 
 221      77696467 
ARM GAS  C:\Users\Aayush\AppData\Local\Temp\ccvWu1Je.s 			page 5


 222 002f 00       		.align	2
 223              	.LC4:
 224 0030 20204648 		.ascii	"  FH\000"
 224      00
 225              		.data
 226              		.align	2
 227              		.type	freeHandBtnWidget, %object
 228              		.size	freeHandBtnWidget, 32
 229              	freeHandBtnWidget:
 230              	@ widgetAttr:
 231              	@ name:
 232 0038 18000000 		.word	.LC3
 233              	@ topLeft:
 234              	@ xValue:
 235 003c 0000     		.short	0
 236              	@ yValue:
 237 003e 0000     		.short	0
 238              	@ size:
 239              	@ width:
 240 0040 2600     		.short	38
 241              	@ height:
 242 0042 2800     		.short	40
 243              	@ backgroundColor:
 244 0044 FFFF     		.short	-1
 245              	@ border:
 246 0046 01       		.byte	1
 247 0047 00       		.space	1
 248              	@ eventHandler:
 249 0048 00000000 		.word	freeHandBtnEventHandler
 250              	@ displayString:
 251 004c 30000000 		.word	.LC4
 252              	@ font:
 253 0050 01       		.byte	1
 254              	@ fontColor:
 255 0051 00       		.space	1
 256 0052 0000     		.short	0
 257              	@ image1:
 258 0054 00000000 		.word	0
 259              		.section	.rodata
 260 0035 000000   		.align	2
 261              	.LC5:
 262 0038 4C696E65 		.ascii	"Line button widget\000"
 262      20627574 
 262      746F6E20 
 262      77696467 
 262      657400
 263              		.data
 264              		.align	2
 265              		.type	lineBtnWidget, %object
 266              		.size	lineBtnWidget, 32
 267              	lineBtnWidget:
 268              	@ widgetAttr:
 269              	@ name:
 270 0058 38000000 		.word	.LC5
 271              	@ topLeft:
 272              	@ xValue:
 273 005c 2600     		.short	38
ARM GAS  C:\Users\Aayush\AppData\Local\Temp\ccvWu1Je.s 			page 6


 274              	@ yValue:
 275 005e 0000     		.short	0
 276              	@ size:
 277              	@ width:
 278 0060 2600     		.short	38
 279              	@ height:
 280 0062 2800     		.short	40
 281              	@ backgroundColor:
 282 0064 FFFF     		.short	-1
 283              	@ border:
 284 0066 01       		.byte	1
 285 0067 00       		.space	1
 286              	@ eventHandler:
 287 0068 00000000 		.word	lineBtnEventHandler
 288              	@ displayString:
 289 006c 14000000 		.word	.LC2
 290              	@ font:
 291 0070 01       		.byte	1
 292              	@ fontColor:
 293 0071 00       		.space	1
 294 0072 0000     		.short	0
 295              	@ image1:
 296 0074 00000000 		.word	0
 297              		.section	.rodata
 298 004b 00       		.align	2
 299              	.LC6:
 300 004c 43697263 		.ascii	"Circle button widget\000"
 300      6C652062 
 300      7574746F 
 300      6E207769 
 300      64676574 
 301              		.data
 302              		.align	2
 303              		.type	circleBtnWidget, %object
 304              		.size	circleBtnWidget, 32
 305              	circleBtnWidget:
 306              	@ widgetAttr:
 307              	@ name:
 308 0078 4C000000 		.word	.LC6
 309              	@ topLeft:
 310              	@ xValue:
 311 007c 4C00     		.short	76
 312              	@ yValue:
 313 007e 0000     		.short	0
 314              	@ size:
 315              	@ width:
 316 0080 2600     		.short	38
 317              	@ height:
 318 0082 2800     		.short	40
 319              	@ backgroundColor:
 320 0084 FFFF     		.short	-1
 321              	@ border:
 322 0086 01       		.byte	1
 323 0087 00       		.space	1
 324              	@ eventHandler:
 325 0088 00000000 		.word	circleBtnEventHandler
 326              	@ displayString:
ARM GAS  C:\Users\Aayush\AppData\Local\Temp\ccvWu1Je.s 			page 7


 327 008c 14000000 		.word	.LC2
 328              	@ font:
 329 0090 01       		.byte	1
 330              	@ fontColor:
 331 0091 00       		.space	1
 332 0092 0000     		.short	0
 333              	@ image1:
 334 0094 00000000 		.word	0
 335              		.section	.rodata
 336 0061 000000   		.align	2
 337              	.LC7:
 338 0064 52656374 		.ascii	"Rectangle button widget\000"
 338      616E676C 
 338      65206275 
 338      74746F6E 
 338      20776964 
 339              		.data
 340              		.align	2
 341              		.type	rectangleBtnWidget, %object
 342              		.size	rectangleBtnWidget, 32
 343              	rectangleBtnWidget:
 344              	@ widgetAttr:
 345              	@ name:
 346 0098 64000000 		.word	.LC7
 347              	@ topLeft:
 348              	@ xValue:
 349 009c 7200     		.short	114
 350              	@ yValue:
 351 009e 0000     		.short	0
 352              	@ size:
 353              	@ width:
 354 00a0 2600     		.short	38
 355              	@ height:
 356 00a2 2800     		.short	40
 357              	@ backgroundColor:
 358 00a4 FFFF     		.short	-1
 359              	@ border:
 360 00a6 01       		.byte	1
 361 00a7 00       		.space	1
 362              	@ eventHandler:
 363 00a8 00000000 		.word	rectangleBtnEventHandler
 364              	@ displayString:
 365 00ac 14000000 		.word	.LC2
 366              	@ font:
 367 00b0 01       		.byte	1
 368              	@ fontColor:
 369 00b1 00       		.space	1
 370 00b2 0000     		.short	0
 371              	@ image1:
 372 00b4 00000000 		.word	0
 373              		.section	.rodata
 374              		.align	2
 375              	.LC8:
 376 007c 436C6561 		.ascii	"Clearscreen button widget\000"
 376      72736372 
 376      65656E20 
 376      62757474 
ARM GAS  C:\Users\Aayush\AppData\Local\Temp\ccvWu1Je.s 			page 8


 376      6F6E2077 
 377 0096 0000     		.align	2
 378              	.LC9:
 379 0098 20434C53 		.ascii	" CLS\000"
 379      00
 380              		.data
 381              		.align	2
 382              		.type	clearscreenBtnWidget, %object
 383              		.size	clearscreenBtnWidget, 32
 384              	clearscreenBtnWidget:
 385              	@ widgetAttr:
 386              	@ name:
 387 00b8 7C000000 		.word	.LC8
 388              	@ topLeft:
 389              	@ xValue:
 390 00bc 9800     		.short	152
 391              	@ yValue:
 392 00be 0000     		.short	0
 393              	@ size:
 394              	@ width:
 395 00c0 2600     		.short	38
 396              	@ height:
 397 00c2 2800     		.short	40
 398              	@ backgroundColor:
 399 00c4 FFFF     		.short	-1
 400              	@ border:
 401 00c6 01       		.byte	1
 402 00c7 00       		.space	1
 403              	@ eventHandler:
 404 00c8 00000000 		.word	clearscreenBtnEventHandler
 405              	@ displayString:
 406 00cc 98000000 		.word	.LC9
 407              	@ font:
 408 00d0 01       		.byte	1
 409              	@ fontColor:
 410 00d1 00       		.space	1
 411 00d2 0000     		.short	0
 412              	@ image1:
 413 00d4 00000000 		.word	0
 414              		.section	.rodata
 415 009d 000000   		.align	2
 416              	.LC10:
 417 00a0 53617665 		.ascii	"Save button widget\000"
 417      20627574 
 417      746F6E20 
 417      77696467 
 417      657400
 418              		.data
 419              		.align	2
 420              		.type	saveBtnWidget, %object
 421              		.size	saveBtnWidget, 32
 422              	saveBtnWidget:
 423              	@ widgetAttr:
 424              	@ name:
 425 00d8 A0000000 		.word	.LC10
 426              	@ topLeft:
 427              	@ xValue:
ARM GAS  C:\Users\Aayush\AppData\Local\Temp\ccvWu1Je.s 			page 9


 428 00dc C000     		.short	192
 429              	@ yValue:
 430 00de 0000     		.short	0
 431              	@ size:
 432              	@ width:
 433 00e0 3000     		.short	48
 434              	@ height:
 435 00e2 2800     		.short	40
 436              	@ backgroundColor:
 437 00e4 FFFF     		.short	-1
 438              	@ border:
 439 00e6 01       		.byte	1
 440 00e7 00       		.space	1
 441              	@ eventHandler:
 442 00e8 00000000 		.word	saveBtnEventHandler
 443              	@ displayString:
 444 00ec 14000000 		.word	.LC2
 445              	@ font:
 446 00f0 01       		.byte	1
 447              	@ fontColor:
 448 00f1 00       		.space	1
 449 00f2 0000     		.short	0
 450              	@ image1:
 451 00f4 00000000 		.word	0
 452              		.text
 453              		.align	1
 454              		.global	main
 455              		.syntax unified
 456              		.thumb
 457              		.thumb_func
 458              		.type	main, %function
 459              	main:
 460              	.LFB60:
 461              		.file 1 "main.c"
   1:main.c        **** 
   2:main.c        **** #include "app.h"
   3:main.c        **** #include "gameEngine.h"
   4:main.c        **** 
   5:main.c        **** 
   6:main.c        **** 
   7:main.c        **** PFbyte windowID, canvasID, widget1ID, widget2ID, widget3ID, widget4ID, widget5ID, widget6ID;
   8:main.c        **** PFdword x,y,a,b,c,d,val=10;
   9:main.c        **** int idx=0;
  10:main.c        **** 
  11:main.c        **** 
  12:main.c        **** 
  13:main.c        **** PFdword sqroot(PFdword r);      // Function to find square root of a PFdword type variable
  14:main.c        **** void freeHandBtnEventHandler(void);
  15:main.c        **** void lineBtnEventHandler(void);
  16:main.c        **** void circleBtnEventHandler(void);
  17:main.c        **** void rectangleBtnEventHandler(void);
  18:main.c        **** void saveBtnEventHandler(void);
  19:main.c        **** void homeScreen(void);
  20:main.c        **** void clearscreenBtnEventHandler(void);
  21:main.c        **** void canvasEventHandler(void);
  22:main.c        **** 
  23:main.c        **** 
ARM GAS  C:\Users\Aayush\AppData\Local\Temp\ccvWu1Je.s 			page 10


  24:main.c        **** 
  25:main.c        **** 
  26:main.c        **** 
  27:main.c        **** static WindowCfg window1= 
  28:main.c        **** {
  29:main.c        ****     {
  30:main.c        ****         "Window 1",
  31:main.c        ****         {0,0},
  32:main.c        ****         {240,320},
  33:main.c        ****         WHITE,
  34:main.c        ****         enBooleanFalse
  35:main.c        ****     },
  36:main.c        ****     NULL
  37:main.c        **** };
  38:main.c        **** 
  39:main.c        **** static CanvasCfg Canvas=
  40:main.c        **** {
  41:main.c        ****     {
  42:main.c        ****         "Canvas",
  43:main.c        ****         {0,40},
  44:main.c        ****         {240,280},
  45:main.c        ****         WHITE,
  46:main.c        ****         enBooleanTrue
  47:main.c        ****     },
  48:main.c        ****     canvasEventHandler,
  49:main.c        ****     "",
  50:main.c        ****     enGfxFont_8X16,
  51:main.c        ****     WHITE,
  52:main.c        ****     0
  53:main.c        **** };
  54:main.c        **** 
  55:main.c        **** static WidgetCfg freeHandBtnWidget=
  56:main.c        **** {
  57:main.c        ****     {
  58:main.c        ****         "Freehand button widget",
  59:main.c        ****         {0,0},
  60:main.c        ****         {38,40},
  61:main.c        ****         WHITE,
  62:main.c        ****         enBooleanTrue
  63:main.c        ****     },
  64:main.c        ****     freeHandBtnEventHandler,
  65:main.c        ****     "  FH",
  66:main.c        ****     enGfxFont_8X16,
  67:main.c        ****     BLACK,
  68:main.c        ****     0
  69:main.c        **** };
  70:main.c        **** 
  71:main.c        **** static WidgetCfg lineBtnWidget=
  72:main.c        **** {
  73:main.c        ****     {
  74:main.c        ****         "Line button widget",
  75:main.c        ****         {38,0},
  76:main.c        ****         {38,40},
  77:main.c        ****         WHITE,
  78:main.c        ****         enBooleanTrue
  79:main.c        ****     },
  80:main.c        ****     lineBtnEventHandler,
ARM GAS  C:\Users\Aayush\AppData\Local\Temp\ccvWu1Je.s 			page 11


  81:main.c        ****     "",
  82:main.c        ****     enGfxFont_8X16,
  83:main.c        ****     BLACK,
  84:main.c        ****     0
  85:main.c        **** };
  86:main.c        **** 
  87:main.c        **** static WidgetCfg circleBtnWidget=
  88:main.c        **** {
  89:main.c        ****     {
  90:main.c        ****         "Circle button widget",
  91:main.c        ****         {76,0},
  92:main.c        ****         {38,40},
  93:main.c        ****         WHITE,
  94:main.c        ****         enBooleanTrue
  95:main.c        ****     },
  96:main.c        ****     circleBtnEventHandler,
  97:main.c        ****     "",
  98:main.c        ****     enGfxFont_8X16,
  99:main.c        ****     BLACK,
 100:main.c        ****     0
 101:main.c        **** };
 102:main.c        **** 
 103:main.c        **** static WidgetCfg rectangleBtnWidget=
 104:main.c        **** {
 105:main.c        ****     {
 106:main.c        ****         "Rectangle button widget",
 107:main.c        ****         {114,0},
 108:main.c        ****         {38,40},
 109:main.c        ****         WHITE,
 110:main.c        ****         enBooleanTrue
 111:main.c        ****     },
 112:main.c        ****     rectangleBtnEventHandler,
 113:main.c        ****     "",
 114:main.c        ****     enGfxFont_8X16,
 115:main.c        ****     BLACK,
 116:main.c        ****     0
 117:main.c        **** };
 118:main.c        **** 
 119:main.c        **** 
 120:main.c        **** static WidgetCfg clearscreenBtnWidget=
 121:main.c        **** {
 122:main.c        ****     {
 123:main.c        ****         "Clearscreen button widget",
 124:main.c        ****         {152,0},
 125:main.c        ****         {38,40},
 126:main.c        ****         WHITE,
 127:main.c        ****         enBooleanTrue
 128:main.c        ****     },
 129:main.c        ****     clearscreenBtnEventHandler,
 130:main.c        ****     " CLS",
 131:main.c        ****     enGfxFont_8X16,
 132:main.c        ****     BLACK,
 133:main.c        ****     0
 134:main.c        **** };
 135:main.c        **** 
 136:main.c        **** static WidgetCfg saveBtnWidget=
 137:main.c        **** {
ARM GAS  C:\Users\Aayush\AppData\Local\Temp\ccvWu1Je.s 			page 12


 138:main.c        ****     {
 139:main.c        ****         "Save button widget",
 140:main.c        ****         {192,0},
 141:main.c        ****         {48,40},
 142:main.c        ****         WHITE,
 143:main.c        ****         enBooleanTrue
 144:main.c        ****     },
 145:main.c        ****     saveBtnEventHandler,
 146:main.c        ****     "",
 147:main.c        ****     enGfxFont_8X16,
 148:main.c        ****     BLACK,
 149:main.c        ****     0
 150:main.c        **** };
 151:main.c        **** 
 152:main.c        **** 
 153:main.c        **** int main()
 154:main.c        **** {
 462              		.loc 1 154 1
 463              		.cfi_startproc
 464              		@ args = 0, pretend = 0, frame = 0
 465              		@ frame_needed = 0, uses_anonymous_args = 0
 466 0000 08B5     		push	{r3, lr}	@
 467              	.LCFI0:
 468              		.cfi_def_cfa_offset 8
 469              		.cfi_offset 3, -8
 470              		.cfi_offset 14, -4
 471              	@ main.c:156: 	appInit();						
 155:main.c        **** 
 156:main.c        **** 	appInit();						
 472              		.loc 1 156 2
 473 0002 FFF7FEFF 		bl	appInit		@
 474              	@ main.c:157: 	gameEngineInit();	
 157:main.c        **** 	gameEngineInit();	
 475              		.loc 1 157 2
 476 0006 FFF7FEFF 		bl	gameEngineInit		@
 477              	@ main.c:158:     gfxSetColor(BLACK);	
 158:main.c        ****     gfxSetColor(BLACK);	
 478              		.loc 1 158 5
 479 000a 0020     		movs	r0, #0	@,
 480 000c FFF7FEFF 		bl	gfxSetColor		@
 481              	@ main.c:159:     gfxSetPenSize(2);
 159:main.c        ****     gfxSetPenSize(2);
 482              		.loc 1 159 5
 483 0010 0220     		movs	r0, #2	@,
 484 0012 FFF7FEFF 		bl	gfxSetPenSize		@
 485              	@ main.c:162: 	createWindow(&windowID,&window1);
 160:main.c        **** 	
 161:main.c        ****     // creating widgets
 162:main.c        **** 	createWindow(&windowID,&window1);
 486              		.loc 1 162 2
 487 0016 2949     		ldr	r1, .L4	@,
 488 0018 2948     		ldr	r0, .L4+4	@,
 489 001a FFF7FEFF 		bl	createWindow		@
 490              	@ main.c:163: 	createCanvas(windowID,&canvasID,&Canvas);
 163:main.c        **** 	createCanvas(windowID,&canvasID,&Canvas);
 491              		.loc 1 163 2
 492 001e 284B     		ldr	r3, .L4+4	@ tmp129,
ARM GAS  C:\Users\Aayush\AppData\Local\Temp\ccvWu1Je.s 			page 13


 493 0020 1B78     		ldrb	r3, [r3]	@ zero_extendqisi2	@ windowID.0_1, windowID
 494 0022 284A     		ldr	r2, .L4+8	@,
 495 0024 2849     		ldr	r1, .L4+12	@,
 496 0026 1846     		mov	r0, r3	@, windowID.0_1
 497 0028 FFF7FEFF 		bl	createCanvas		@
 498              	@ main.c:164: 	createWidget(windowID,&widget1ID,&freeHandBtnWidget);
 164:main.c        **** 	createWidget(windowID,&widget1ID,&freeHandBtnWidget);
 499              		.loc 1 164 2
 500 002c 244B     		ldr	r3, .L4+4	@ tmp130,
 501 002e 1B78     		ldrb	r3, [r3]	@ zero_extendqisi2	@ windowID.1_2, windowID
 502 0030 264A     		ldr	r2, .L4+16	@,
 503 0032 2749     		ldr	r1, .L4+20	@,
 504 0034 1846     		mov	r0, r3	@, windowID.1_2
 505 0036 FFF7FEFF 		bl	createWidget		@
 506              	@ main.c:165: 	createWidget(windowID,&widget2ID,&lineBtnWidget);
 165:main.c        **** 	createWidget(windowID,&widget2ID,&lineBtnWidget);
 507              		.loc 1 165 2
 508 003a 214B     		ldr	r3, .L4+4	@ tmp131,
 509 003c 1B78     		ldrb	r3, [r3]	@ zero_extendqisi2	@ windowID.2_3, windowID
 510 003e 254A     		ldr	r2, .L4+24	@,
 511 0040 2549     		ldr	r1, .L4+28	@,
 512 0042 1846     		mov	r0, r3	@, windowID.2_3
 513 0044 FFF7FEFF 		bl	createWidget		@
 514              	@ main.c:166:     createWidget(windowID,&widget3ID,&circleBtnWidget);
 166:main.c        ****     createWidget(windowID,&widget3ID,&circleBtnWidget);
 515              		.loc 1 166 5
 516 0048 1D4B     		ldr	r3, .L4+4	@ tmp132,
 517 004a 1B78     		ldrb	r3, [r3]	@ zero_extendqisi2	@ windowID.3_4, windowID
 518 004c 234A     		ldr	r2, .L4+32	@,
 519 004e 2449     		ldr	r1, .L4+36	@,
 520 0050 1846     		mov	r0, r3	@, windowID.3_4
 521 0052 FFF7FEFF 		bl	createWidget		@
 522              	@ main.c:167:     createWidget(windowID,&widget4ID,&rectangleBtnWidget);
 167:main.c        ****     createWidget(windowID,&widget4ID,&rectangleBtnWidget);
 523              		.loc 1 167 5
 524 0056 1A4B     		ldr	r3, .L4+4	@ tmp133,
 525 0058 1B78     		ldrb	r3, [r3]	@ zero_extendqisi2	@ windowID.4_5, windowID
 526 005a 224A     		ldr	r2, .L4+40	@,
 527 005c 2249     		ldr	r1, .L4+44	@,
 528 005e 1846     		mov	r0, r3	@, windowID.4_5
 529 0060 FFF7FEFF 		bl	createWidget		@
 530              	@ main.c:168: 	createWidget(windowID,&widget5ID,&clearscreenBtnWidget);
 168:main.c        **** 	createWidget(windowID,&widget5ID,&clearscreenBtnWidget);
 531              		.loc 1 168 2
 532 0064 164B     		ldr	r3, .L4+4	@ tmp134,
 533 0066 1B78     		ldrb	r3, [r3]	@ zero_extendqisi2	@ windowID.5_6, windowID
 534 0068 204A     		ldr	r2, .L4+48	@,
 535 006a 2149     		ldr	r1, .L4+52	@,
 536 006c 1846     		mov	r0, r3	@, windowID.5_6
 537 006e FFF7FEFF 		bl	createWidget		@
 538              	@ main.c:169:     createWidget(windowID,&widget6ID,&saveBtnWidget);
 169:main.c        ****     createWidget(windowID,&widget6ID,&saveBtnWidget);
 539              		.loc 1 169 5
 540 0072 134B     		ldr	r3, .L4+4	@ tmp135,
 541 0074 1B78     		ldrb	r3, [r3]	@ zero_extendqisi2	@ windowID.6_7, windowID
 542 0076 1F4A     		ldr	r2, .L4+56	@,
 543 0078 1F49     		ldr	r1, .L4+60	@,
ARM GAS  C:\Users\Aayush\AppData\Local\Temp\ccvWu1Je.s 			page 14


 544 007a 1846     		mov	r0, r3	@, windowID.6_7
 545 007c FFF7FEFF 		bl	createWidget		@
 546              	@ main.c:172: 	homeScreen();							
 170:main.c        **** 
 171:main.c        **** 
 172:main.c        **** 	homeScreen();							
 547              		.loc 1 172 2
 548 0080 FFF7FEFF 		bl	homeScreen		@
 549              	.L3:
 550              	@ main.c:175: 		if(touchAvailable(&x,&y) == enBooleanTrue) {
 173:main.c        **** 
 174:main.c        **** 	while(1) {
 175:main.c        **** 		if(touchAvailable(&x,&y) == enBooleanTrue) {
 551              		.loc 1 175 6
 552 0084 1D49     		ldr	r1, .L4+64	@,
 553 0086 1E48     		ldr	r0, .L4+68	@,
 554 0088 FFF7FEFF 		bl	touchAvailable		@
 555 008c 0346     		mov	r3, r0	@ tmp136,
 556              	@ main.c:175: 		if(touchAvailable(&x,&y) == enBooleanTrue) {
 557              		.loc 1 175 5
 558 008e 012B     		cmp	r3, #1	@ _8,
 559 0090 F8D1     		bne	.L3		@,
 560              	@ main.c:176:             c=x;
 176:main.c        ****             c=x;
 561              		.loc 1 176 14
 562 0092 1B4B     		ldr	r3, .L4+68	@ tmp137,
 563 0094 1B68     		ldr	r3, [r3]	@ x.7_9, x
 564 0096 1B4A     		ldr	r2, .L4+72	@ tmp138,
 565 0098 1360     		str	r3, [r2]	@ x.7_9, c
 566              	@ main.c:177:             d=y;
 177:main.c        ****             d=y;
 567              		.loc 1 177 14
 568 009a 184B     		ldr	r3, .L4+64	@ tmp139,
 569 009c 1B68     		ldr	r3, [r3]	@ y.8_10, y
 570 009e 1A4A     		ldr	r2, .L4+76	@ tmp140,
 571 00a0 1360     		str	r3, [r2]	@ y.8_10, d
 572              	@ main.c:178: 			windowEventHandler(windowID, x, y);	
 178:main.c        **** 			windowEventHandler(windowID, x, y);	
 573              		.loc 1 178 4
 574 00a2 074B     		ldr	r3, .L4+4	@ tmp141,
 575 00a4 1B78     		ldrb	r3, [r3]	@ zero_extendqisi2	@ windowID.9_11, windowID
 576 00a6 164A     		ldr	r2, .L4+68	@ tmp142,
 577 00a8 1268     		ldr	r2, [r2]	@ x.10_12, x
 578 00aa 91B2     		uxth	r1, r2	@ _13, x.10_12
 579 00ac 134A     		ldr	r2, .L4+64	@ tmp143,
 580 00ae 1268     		ldr	r2, [r2]	@ y.11_14, y
 581 00b0 92B2     		uxth	r2, r2	@ _15, y.11_14
 582 00b2 1846     		mov	r0, r3	@, windowID.9_11
 583 00b4 FFF7FEFF 		bl	windowEventHandler		@
 584              	@ main.c:175: 		if(touchAvailable(&x,&y) == enBooleanTrue) {
 175:main.c        ****             c=x;
 585              		.loc 1 175 5
 586 00b8 E4E7     		b	.L3		@
 587              	.L5:
 588 00ba 00BF     		.align	2
 589              	.L4:
 590 00bc 04000000 		.word	window1
ARM GAS  C:\Users\Aayush\AppData\Local\Temp\ccvWu1Je.s 			page 15


 591 00c0 00000000 		.word	windowID
 592 00c4 18000000 		.word	Canvas
 593 00c8 00000000 		.word	canvasID
 594 00cc 38000000 		.word	freeHandBtnWidget
 595 00d0 00000000 		.word	widget1ID
 596 00d4 58000000 		.word	lineBtnWidget
 597 00d8 00000000 		.word	widget2ID
 598 00dc 78000000 		.word	circleBtnWidget
 599 00e0 00000000 		.word	widget3ID
 600 00e4 98000000 		.word	rectangleBtnWidget
 601 00e8 00000000 		.word	widget4ID
 602 00ec B8000000 		.word	clearscreenBtnWidget
 603 00f0 00000000 		.word	widget5ID
 604 00f4 D8000000 		.word	saveBtnWidget
 605 00f8 00000000 		.word	widget6ID
 606 00fc 00000000 		.word	y
 607 0100 00000000 		.word	x
 608 0104 00000000 		.word	c
 609 0108 00000000 		.word	d
 610              		.cfi_endproc
 611              	.LFE60:
 612              		.size	main, .-main
 613              		.align	1
 614              		.global	sqroot
 615              		.syntax unified
 616              		.thumb
 617              		.thumb_func
 618              		.type	sqroot, %function
 619              	sqroot:
 620              	.LFB61:
 179:main.c        **** 		}
 180:main.c        **** 	}
 181:main.c        **** 
 182:main.c        ****     return 0;
 183:main.c        **** }
 184:main.c        **** 
 185:main.c        **** 
 186:main.c        **** 
 187:main.c        **** 
 188:main.c        **** 
 189:main.c        **** PFdword sqroot(PFdword r) {
 621              		.loc 1 189 27
 622              		.cfi_startproc
 623              		@ args = 0, pretend = 0, frame = 32
 624              		@ frame_needed = 0, uses_anonymous_args = 0
 625              		@ link register save eliminated.
 626 010c 88B0     		sub	sp, sp, #32	@,,
 627              	.LCFI1:
 628              		.cfi_def_cfa_offset 32
 629 010e 0190     		str	r0, [sp, #4]	@ r, r
 630              	@ main.c:191:     if (r==0 || r==1) return r;
 190:main.c        **** 
 191:main.c        ****     if (r==0 || r==1) return r;
 631              		.loc 1 191 8
 632 0110 019B     		ldr	r3, [sp, #4]	@ tmp116, r
 633 0112 002B     		cmp	r3, #0	@ tmp116,
 634 0114 02D0     		beq	.L7		@,
ARM GAS  C:\Users\Aayush\AppData\Local\Temp\ccvWu1Je.s 			page 16


 635              	@ main.c:191:     if (r==0 || r==1) return r;
 636              		.loc 1 191 14 discriminator 2
 637 0116 019B     		ldr	r3, [sp, #4]	@ tmp117, r
 638 0118 012B     		cmp	r3, #1	@ tmp117,
 639 011a 01D1     		bne	.L8		@,
 640              	.L7:
 641              	@ main.c:191:     if (r==0 || r==1) return r;
 642              		.loc 1 191 30 discriminator 3
 643 011c 019B     		ldr	r3, [sp, #4]	@ _5, r
 644 011e 26E0     		b	.L9		@
 645              	.L8:
 646              	@ main.c:193:     PFdword start=1, end=r/2 , mid, res, sqr;
 192:main.c        ****  
 193:main.c        ****     PFdword start=1, end=r/2 , mid, res, sqr;
 647              		.loc 1 193 13
 648 0120 0123     		movs	r3, #1	@ tmp118,
 649 0122 0793     		str	r3, [sp, #28]	@ tmp118, start
 650              	@ main.c:193:     PFdword start=1, end=r/2 , mid, res, sqr;
 651              		.loc 1 193 22
 652 0124 019B     		ldr	r3, [sp, #4]	@ tmp120, r
 653 0126 5B08     		lsrs	r3, r3, #1	@ tmp119, tmp120,
 654 0128 0693     		str	r3, [sp, #24]	@ tmp119, end
 655              	@ main.c:195:     while (start<=end) {
 194:main.c        **** 
 195:main.c        ****     while (start<=end) {
 656              		.loc 1 195 11
 657 012a 1BE0     		b	.L10		@
 658              	.L13:
 659              	@ main.c:197:         mid=(start + end)/2;
 196:main.c        ****         
 197:main.c        ****         mid=(start + end)/2;
 660              		.loc 1 197 20
 661 012c 079A     		ldr	r2, [sp, #28]	@ tmp121, start
 662 012e 069B     		ldr	r3, [sp, #24]	@ tmp122, end
 663 0130 1344     		add	r3, r3, r2	@ _1, tmp121
 664              	@ main.c:197:         mid=(start + end)/2;
 665              		.loc 1 197 12
 666 0132 5B08     		lsrs	r3, r3, #1	@ tmp123, _1,
 667 0134 0493     		str	r3, [sp, #16]	@ tmp123, mid
 668              	@ main.c:198:         sqr=mid*mid;
 198:main.c        ****         sqr=mid*mid;
 669              		.loc 1 198 12
 670 0136 049B     		ldr	r3, [sp, #16]	@ tmp125, mid
 671 0138 03FB03F3 		mul	r3, r3, r3	@ tmp124, tmp125, tmp125
 672 013c 0393     		str	r3, [sp, #12]	@ tmp124, sqr
 673              	@ main.c:200:         if (sqr==r) {
 199:main.c        **** 
 200:main.c        ****         if (sqr==r) {
 674              		.loc 1 200 12
 675 013e 039A     		ldr	r2, [sp, #12]	@ tmp126, sqr
 676 0140 019B     		ldr	r3, [sp, #4]	@ tmp127, r
 677 0142 9A42     		cmp	r2, r3	@ tmp126, tmp127
 678 0144 01D1     		bne	.L11		@,
 679              	@ main.c:201:             return mid;
 201:main.c        ****             return mid;
 680              		.loc 1 201 20
 681 0146 049B     		ldr	r3, [sp, #16]	@ _5, mid
ARM GAS  C:\Users\Aayush\AppData\Local\Temp\ccvWu1Je.s 			page 17


 682 0148 11E0     		b	.L9		@
 683              	.L11:
 684              	@ main.c:204:         if (sqr<r) {
 202:main.c        ****         }
 203:main.c        **** 
 204:main.c        ****         if (sqr<r) {
 685              		.loc 1 204 12
 686 014a 039A     		ldr	r2, [sp, #12]	@ tmp128, sqr
 687 014c 019B     		ldr	r3, [sp, #4]	@ tmp129, r
 688 014e 9A42     		cmp	r2, r3	@ tmp128, tmp129
 689 0150 05D2     		bcs	.L12		@,
 690              	@ main.c:205:             start=mid + 1;
 205:main.c        ****             start=mid + 1;
 691              		.loc 1 205 18
 692 0152 049B     		ldr	r3, [sp, #16]	@ tmp131, mid
 693 0154 0133     		adds	r3, r3, #1	@ tmp130, tmp131,
 694 0156 0793     		str	r3, [sp, #28]	@ tmp130, start
 695              	@ main.c:206:             res=mid;
 206:main.c        ****             res=mid;
 696              		.loc 1 206 16
 697 0158 049B     		ldr	r3, [sp, #16]	@ tmp132, mid
 698 015a 0593     		str	r3, [sp, #20]	@ tmp132, res
 699 015c 02E0     		b	.L10		@
 700              	.L12:
 701              	@ main.c:210:             end=mid - 1;
 207:main.c        ****         }
 208:main.c        **** 
 209:main.c        ****         else {
 210:main.c        ****             end=mid - 1;
 702              		.loc 1 210 16
 703 015e 049B     		ldr	r3, [sp, #16]	@ tmp134, mid
 704 0160 013B     		subs	r3, r3, #1	@ tmp133, tmp134,
 705 0162 0693     		str	r3, [sp, #24]	@ tmp133, end
 706              	.L10:
 707              	@ main.c:195:     while (start<=end) {
 195:main.c        ****         
 708              		.loc 1 195 11
 709 0164 079A     		ldr	r2, [sp, #28]	@ tmp135, start
 710 0166 069B     		ldr	r3, [sp, #24]	@ tmp136, end
 711 0168 9A42     		cmp	r2, r3	@ tmp135, tmp136
 712 016a DFD9     		bls	.L13		@,
 713              	@ main.c:213:     return res;
 211:main.c        ****         }
 212:main.c        ****     }
 213:main.c        ****     return res;
 714              		.loc 1 213 12
 715 016c 059B     		ldr	r3, [sp, #20]	@ _5, res
 716              	.L9:
 717              	@ main.c:214: }
 214:main.c        **** }
 718              		.loc 1 214 1
 719 016e 1846     		mov	r0, r3	@, <retval>
 720 0170 08B0     		add	sp, sp, #32	@,,
 721              	.LCFI2:
 722              		.cfi_def_cfa_offset 0
 723              		@ sp needed	@
 724 0172 7047     		bx	lr	@
ARM GAS  C:\Users\Aayush\AppData\Local\Temp\ccvWu1Je.s 			page 18


 725              		.cfi_endproc
 726              	.LFE61:
 727              		.size	sqroot, .-sqroot
 728              		.align	1
 729              		.global	freeHandBtnEventHandler
 730              		.syntax unified
 731              		.thumb
 732              		.thumb_func
 733              		.type	freeHandBtnEventHandler, %function
 734              	freeHandBtnEventHandler:
 735              	.LFB62:
 215:main.c        **** 
 216:main.c        **** void freeHandBtnEventHandler(void) {
 736              		.loc 1 216 36
 737              		.cfi_startproc
 738              		@ args = 0, pretend = 0, frame = 0
 739              		@ frame_needed = 0, uses_anonymous_args = 0
 740              		@ link register save eliminated.
 741              	@ main.c:217:     idx=1;
 217:main.c        ****     idx=1;
 742              		.loc 1 217 8
 743 0174 024B     		ldr	r3, .L15	@ tmp113,
 744 0176 0122     		movs	r2, #1	@ tmp114,
 745 0178 1A60     		str	r2, [r3]	@ tmp114, idx
 746              	@ main.c:218: }
 218:main.c        **** }
 747              		.loc 1 218 1
 748 017a 00BF     		nop	
 749 017c 7047     		bx	lr	@
 750              	.L16:
 751 017e 00BF     		.align	2
 752              	.L15:
 753 0180 00000000 		.word	idx
 754              		.cfi_endproc
 755              	.LFE62:
 756              		.size	freeHandBtnEventHandler, .-freeHandBtnEventHandler
 757              		.align	1
 758              		.global	lineBtnEventHandler
 759              		.syntax unified
 760              		.thumb
 761              		.thumb_func
 762              		.type	lineBtnEventHandler, %function
 763              	lineBtnEventHandler:
 764              	.LFB63:
 219:main.c        ****     
 220:main.c        **** void lineBtnEventHandler(void) {
 765              		.loc 1 220 32
 766              		.cfi_startproc
 767              		@ args = 0, pretend = 0, frame = 0
 768              		@ frame_needed = 0, uses_anonymous_args = 0
 769              		@ link register save eliminated.
 770              	@ main.c:221:     idx=2;
 221:main.c        ****     idx=2;
 771              		.loc 1 221 8
 772 0184 024B     		ldr	r3, .L18	@ tmp113,
 773 0186 0222     		movs	r2, #2	@ tmp114,
 774 0188 1A60     		str	r2, [r3]	@ tmp114, idx
ARM GAS  C:\Users\Aayush\AppData\Local\Temp\ccvWu1Je.s 			page 19


 775              	@ main.c:222: }
 222:main.c        **** }
 776              		.loc 1 222 1
 777 018a 00BF     		nop	
 778 018c 7047     		bx	lr	@
 779              	.L19:
 780 018e 00BF     		.align	2
 781              	.L18:
 782 0190 00000000 		.word	idx
 783              		.cfi_endproc
 784              	.LFE63:
 785              		.size	lineBtnEventHandler, .-lineBtnEventHandler
 786              		.align	1
 787              		.global	circleBtnEventHandler
 788              		.syntax unified
 789              		.thumb
 790              		.thumb_func
 791              		.type	circleBtnEventHandler, %function
 792              	circleBtnEventHandler:
 793              	.LFB64:
 223:main.c        **** 
 224:main.c        **** void circleBtnEventHandler(void) {
 794              		.loc 1 224 34
 795              		.cfi_startproc
 796              		@ args = 0, pretend = 0, frame = 0
 797              		@ frame_needed = 0, uses_anonymous_args = 0
 798              		@ link register save eliminated.
 799              	@ main.c:225:     idx=3;
 225:main.c        ****     idx=3;
 800              		.loc 1 225 8
 801 0194 024B     		ldr	r3, .L21	@ tmp113,
 802 0196 0322     		movs	r2, #3	@ tmp114,
 803 0198 1A60     		str	r2, [r3]	@ tmp114, idx
 804              	@ main.c:226: }
 226:main.c        **** }
 805              		.loc 1 226 1
 806 019a 00BF     		nop	
 807 019c 7047     		bx	lr	@
 808              	.L22:
 809 019e 00BF     		.align	2
 810              	.L21:
 811 01a0 00000000 		.word	idx
 812              		.cfi_endproc
 813              	.LFE64:
 814              		.size	circleBtnEventHandler, .-circleBtnEventHandler
 815              		.align	1
 816              		.global	rectangleBtnEventHandler
 817              		.syntax unified
 818              		.thumb
 819              		.thumb_func
 820              		.type	rectangleBtnEventHandler, %function
 821              	rectangleBtnEventHandler:
 822              	.LFB65:
 227:main.c        ****     
 228:main.c        **** void rectangleBtnEventHandler(void) {
 823              		.loc 1 228 37
 824              		.cfi_startproc
ARM GAS  C:\Users\Aayush\AppData\Local\Temp\ccvWu1Je.s 			page 20


 825              		@ args = 0, pretend = 0, frame = 0
 826              		@ frame_needed = 0, uses_anonymous_args = 0
 827              		@ link register save eliminated.
 828              	@ main.c:229:     idx=4;
 229:main.c        ****     idx=4;
 829              		.loc 1 229 8
 830 01a4 024B     		ldr	r3, .L24	@ tmp113,
 831 01a6 0422     		movs	r2, #4	@ tmp114,
 832 01a8 1A60     		str	r2, [r3]	@ tmp114, idx
 833              	@ main.c:230: }
 230:main.c        **** }
 834              		.loc 1 230 1
 835 01aa 00BF     		nop	
 836 01ac 7047     		bx	lr	@
 837              	.L25:
 838 01ae 00BF     		.align	2
 839              	.L24:
 840 01b0 00000000 		.word	idx
 841              		.cfi_endproc
 842              	.LFE65:
 843              		.size	rectangleBtnEventHandler, .-rectangleBtnEventHandler
 844              		.section	.rodata
 845 00b3 00       		.align	2
 846              	.LC11:
 847 00b4 53415645 		.ascii	"SAVED\000"
 847      4400
 848              		.text
 849              		.align	1
 850              		.global	saveBtnEventHandler
 851              		.syntax unified
 852              		.thumb
 853              		.thumb_func
 854              		.type	saveBtnEventHandler, %function
 855              	saveBtnEventHandler:
 856              	.LFB66:
 231:main.c        **** 
 232:main.c        **** void saveBtnEventHandler(void) {
 857              		.loc 1 232 32
 858              		.cfi_startproc
 859              		@ args = 0, pretend = 0, frame = 0
 860              		@ frame_needed = 0, uses_anonymous_args = 0
 861 01b4 00B5     		push	{lr}	@
 862              	.LCFI3:
 863              		.cfi_def_cfa_offset 4
 864              		.cfi_offset 14, -4
 865 01b6 83B0     		sub	sp, sp, #12	@,,
 866              	.LCFI4:
 867              		.cfi_def_cfa_offset 16
 868              	@ main.c:233:     gfxDrawString(val,50,"SAVED",enGfxFont_8X16,BLACK,WHITE);
 233:main.c        ****     gfxDrawString(val,50,"SAVED",enGfxFont_8X16,BLACK,WHITE);
 869              		.loc 1 233 5
 870 01b8 074B     		ldr	r3, .L27	@ tmp114,
 871 01ba 1868     		ldr	r0, [r3]	@ val.12_1, val
 872 01bc 4FF6FF73 		movw	r3, #65535	@ tmp115,
 873 01c0 0193     		str	r3, [sp, #4]	@ tmp115,
 874 01c2 0023     		movs	r3, #0	@ tmp116,
 875 01c4 0093     		str	r3, [sp]	@ tmp116,
ARM GAS  C:\Users\Aayush\AppData\Local\Temp\ccvWu1Je.s 			page 21


 876 01c6 0123     		movs	r3, #1	@,
 877 01c8 044A     		ldr	r2, .L27+4	@,
 878 01ca 3221     		movs	r1, #50	@,
 879 01cc FFF7FEFF 		bl	gfxDrawString		@
 880              	@ main.c:235: }
 234:main.c        ****     // val+=50;
 235:main.c        **** }
 881              		.loc 1 235 1
 882 01d0 00BF     		nop	
 883 01d2 03B0     		add	sp, sp, #12	@,,
 884              	.LCFI5:
 885              		.cfi_def_cfa_offset 4
 886              		@ sp needed	@
 887 01d4 5DF804FB 		ldr	pc, [sp], #4	@
 888              	.L28:
 889              		.align	2
 890              	.L27:
 891 01d8 00000000 		.word	val
 892 01dc B4000000 		.word	.LC11
 893              		.cfi_endproc
 894              	.LFE66:
 895              		.size	saveBtnEventHandler, .-saveBtnEventHandler
 896              		.section	.rodata
 897 00ba 0000     		.align	2
 898              	.LC12:
 899 00bc 53415645 		.ascii	"SAVE\000"
 899      00
 900              		.text
 901              		.align	1
 902              		.global	homeScreen
 903              		.syntax unified
 904              		.thumb
 905              		.thumb_func
 906              		.type	homeScreen, %function
 907              	homeScreen:
 908              	.LFB67:
 236:main.c        ****     
 237:main.c        **** void homeScreen(void) {
 909              		.loc 1 237 23
 910              		.cfi_startproc
 911              		@ args = 0, pretend = 0, frame = 0
 912              		@ frame_needed = 0, uses_anonymous_args = 0
 913 01e0 00B5     		push	{lr}	@
 914              	.LCFI6:
 915              		.cfi_def_cfa_offset 4
 916              		.cfi_offset 14, -4
 917 01e2 83B0     		sub	sp, sp, #12	@,,
 918              	.LCFI7:
 919              		.cfi_def_cfa_offset 16
 920              	@ main.c:238:     setWindow(windowID);
 238:main.c        ****     setWindow(windowID);
 921              		.loc 1 238 5
 922 01e4 124B     		ldr	r3, .L30	@ tmp114,
 923 01e6 1B78     		ldrb	r3, [r3]	@ zero_extendqisi2	@ windowID.13_1, windowID
 924 01e8 1846     		mov	r0, r3	@, windowID.13_1
 925 01ea FFF7FEFF 		bl	setWindow		@
 926              	@ main.c:239:     gfxDrawLine(42,36,72,4);
ARM GAS  C:\Users\Aayush\AppData\Local\Temp\ccvWu1Je.s 			page 22


 239:main.c        ****     gfxDrawLine(42,36,72,4);
 927              		.loc 1 239 5
 928 01ee 0423     		movs	r3, #4	@,
 929 01f0 4822     		movs	r2, #72	@,
 930 01f2 2421     		movs	r1, #36	@,
 931 01f4 2A20     		movs	r0, #42	@,
 932 01f6 FFF7FEFF 		bl	gfxDrawLine		@
 933              	@ main.c:240:     gfxDrawCircle(95,20,16);
 240:main.c        ****     gfxDrawCircle(95,20,16);
 934              		.loc 1 240 5
 935 01fa 1022     		movs	r2, #16	@,
 936 01fc 1421     		movs	r1, #20	@,
 937 01fe 5F20     		movs	r0, #95	@,
 938 0200 FFF7FEFF 		bl	gfxDrawCircle		@
 939              	@ main.c:241:     gfxDrawRectangle(118,4,148,36);	
 241:main.c        ****     gfxDrawRectangle(118,4,148,36);	
 940              		.loc 1 241 5
 941 0204 2423     		movs	r3, #36	@,
 942 0206 9422     		movs	r2, #148	@,
 943 0208 0421     		movs	r1, #4	@,
 944 020a 7620     		movs	r0, #118	@,
 945 020c FFF7FEFF 		bl	gfxDrawRectangle		@
 946              	@ main.c:242:     gfxDrawString(197,12,"SAVE",enGfxFont_8X16,BLACK,WHITE);
 242:main.c        ****     gfxDrawString(197,12,"SAVE",enGfxFont_8X16,BLACK,WHITE);
 947              		.loc 1 242 5
 948 0210 4FF6FF73 		movw	r3, #65535	@ tmp115,
 949 0214 0193     		str	r3, [sp, #4]	@ tmp115,
 950 0216 0023     		movs	r3, #0	@ tmp116,
 951 0218 0093     		str	r3, [sp]	@ tmp116,
 952 021a 0123     		movs	r3, #1	@,
 953 021c 054A     		ldr	r2, .L30+4	@,
 954 021e 0C21     		movs	r1, #12	@,
 955 0220 C520     		movs	r0, #197	@,
 956 0222 FFF7FEFF 		bl	gfxDrawString		@
 957              	@ main.c:243: } 
 243:main.c        **** } 
 958              		.loc 1 243 1
 959 0226 00BF     		nop	
 960 0228 03B0     		add	sp, sp, #12	@,,
 961              	.LCFI8:
 962              		.cfi_def_cfa_offset 4
 963              		@ sp needed	@
 964 022a 5DF804FB 		ldr	pc, [sp], #4	@
 965              	.L31:
 966 022e 00BF     		.align	2
 967              	.L30:
 968 0230 00000000 		.word	windowID
 969 0234 BC000000 		.word	.LC12
 970              		.cfi_endproc
 971              	.LFE67:
 972              		.size	homeScreen, .-homeScreen
 973              		.align	1
 974              		.global	clearscreenBtnEventHandler
 975              		.syntax unified
 976              		.thumb
 977              		.thumb_func
 978              		.type	clearscreenBtnEventHandler, %function
ARM GAS  C:\Users\Aayush\AppData\Local\Temp\ccvWu1Je.s 			page 23


 979              	clearscreenBtnEventHandler:
 980              	.LFB68:
 244:main.c        **** 
 245:main.c        **** void clearscreenBtnEventHandler(void) {
 981              		.loc 1 245 39
 982              		.cfi_startproc
 983              		@ args = 0, pretend = 0, frame = 0
 984              		@ frame_needed = 0, uses_anonymous_args = 0
 985 0238 08B5     		push	{r3, lr}	@
 986              	.LCFI9:
 987              		.cfi_def_cfa_offset 8
 988              		.cfi_offset 3, -8
 989              		.cfi_offset 14, -4
 990              	@ main.c:247:     homeScreen();
 246:main.c        **** 	// gfxFillArea(2,42,238,318,WHITE);
 247:main.c        ****     homeScreen();
 991              		.loc 1 247 5
 992 023a FFF7FEFF 		bl	homeScreen		@
 993              	@ main.c:248: }
 248:main.c        **** }
 994              		.loc 1 248 1
 995 023e 00BF     		nop	
 996 0240 08BD     		pop	{r3, pc}	@
 997              		.cfi_endproc
 998              	.LFE68:
 999              		.size	clearscreenBtnEventHandler, .-clearscreenBtnEventHandler
 1000              		.align	1
 1001              		.global	canvasEventHandler
 1002              		.syntax unified
 1003              		.thumb
 1004              		.thumb_func
 1005              		.type	canvasEventHandler, %function
 1006              	canvasEventHandler:
 1007              	.LFB69:
 249:main.c        **** 
 250:main.c        **** void canvasEventHandler(void) {
 1008              		.loc 1 250 31
 1009              		.cfi_startproc
 1010              		@ args = 0, pretend = 0, frame = 8
 1011              		@ frame_needed = 0, uses_anonymous_args = 0
 1012 0242 00B5     		push	{lr}	@
 1013              	.LCFI10:
 1014              		.cfi_def_cfa_offset 4
 1015              		.cfi_offset 14, -4
 1016 0244 83B0     		sub	sp, sp, #12	@,,
 1017              	.LCFI11:
 1018              		.cfi_def_cfa_offset 16
 1019              	@ main.c:255:     switch(idx) 
 251:main.c        **** /* the edge cases such as handling of shapes and pixels not to be drawn on the buttons are commente
 252:main.c        ****    see about the problems but we will use them in the final build and please have the look at the e
 253:main.c        ****    if they are correct.
 254:main.c        **** */
 255:main.c        ****     switch(idx) 
 1020              		.loc 1 255 5
 1021 0246 444B     		ldr	r3, .L50	@ tmp153,
 1022 0248 1B68     		ldr	r3, [r3]	@ idx.14_1, idx
 1023 024a 013B     		subs	r3, r3, #1	@ tmp154, idx.14_1,
ARM GAS  C:\Users\Aayush\AppData\Local\Temp\ccvWu1Je.s 			page 24


 1024 024c 032B     		cmp	r3, #3	@ tmp154,
 1025 024e 7ED8     		bhi	.L46		@
 1026 0250 01A2     		adr	r2, .L36	@ tmp183,
 1027 0252 52F823F0 		ldr	pc, [r2, r3, lsl #2]	@ tmp183, tmp154
 1028 0256 00BF     		.p2align 2
 1029              	.L36:
 1030 0258 69020000 		.word	.L39+1
 1031 025c 9B020000 		.word	.L47+1
 1032 0260 C7020000 		.word	.L48+1
 1033 0264 29030000 		.word	.L49+1
 1034              		.p2align 1
 1035              	.L39:
 1036              	.LBB2:
 1037              	@ main.c:258:             gfxDrawPixels(x,y);
 256:main.c        ****     {
 257:main.c        ****         case 1:
 258:main.c        ****             gfxDrawPixels(x,y);
 1038              		.loc 1 258 13
 1039 0268 3C4B     		ldr	r3, .L50+4	@ tmp155,
 1040 026a 1B68     		ldr	r3, [r3]	@ x.15_2, x
 1041 026c 3C4A     		ldr	r2, .L50+8	@ tmp156,
 1042 026e 1268     		ldr	r2, [r2]	@ y.16_3, y
 1043 0270 1146     		mov	r1, r2	@, y.16_3
 1044 0272 1846     		mov	r0, r3	@, x.15_2
 1045 0274 FFF7FEFF 		bl	gfxDrawPixels		@
 1046              	@ main.c:259: 	    	while(touchAvailable(&a,&b)==enBooleanTrue) {
 259:main.c        **** 	    	while(touchAvailable(&a,&b)==enBooleanTrue) {
 1047              		.loc 1 259 12
 1048 0278 07E0     		b	.L40		@
 1049              	.L41:
 1050              	@ main.c:261:                 gfxDrawPixels(a,b);
 260:main.c        ****                 // if(b>=42) {}
 261:main.c        ****                 gfxDrawPixels(a,b);
 1051              		.loc 1 261 17
 1052 027a 3A4B     		ldr	r3, .L50+12	@ tmp157,
 1053 027c 1B68     		ldr	r3, [r3]	@ a.17_4, a
 1054 027e 3A4A     		ldr	r2, .L50+16	@ tmp158,
 1055 0280 1268     		ldr	r2, [r2]	@ b.18_5, b
 1056 0282 1146     		mov	r1, r2	@, b.18_5
 1057 0284 1846     		mov	r0, r3	@, a.17_4
 1058 0286 FFF7FEFF 		bl	gfxDrawPixels		@
 1059              	.L40:
 1060              	@ main.c:259: 	    	while(touchAvailable(&a,&b)==enBooleanTrue) {
 259:main.c        **** 	    	while(touchAvailable(&a,&b)==enBooleanTrue) {
 1061              		.loc 1 259 13
 1062 028a 3749     		ldr	r1, .L50+16	@,
 1063 028c 3548     		ldr	r0, .L50+12	@,
 1064 028e FFF7FEFF 		bl	touchAvailable		@
 1065 0292 0346     		mov	r3, r0	@ tmp159,
 1066              	@ main.c:259: 	    	while(touchAvailable(&a,&b)==enBooleanTrue) {
 259:main.c        **** 	    	while(touchAvailable(&a,&b)==enBooleanTrue) {
 1067              		.loc 1 259 12
 1068 0294 012B     		cmp	r3, #1	@ _6,
 1069 0296 F0D0     		beq	.L41		@,
 1070              	@ main.c:263:             break;
 262:main.c        ****             }
 263:main.c        ****             break;
ARM GAS  C:\Users\Aayush\AppData\Local\Temp\ccvWu1Je.s 			page 25


 1071              		.loc 1 263 13
 1072 0298 5AE0     		b	.L42		@
 1073              	.L47:
 1074              	@ main.c:265:             while(touchAvailable(&a,&b)==enBooleanTrue) {}
 264:main.c        ****         case 2:
 265:main.c        ****             while(touchAvailable(&a,&b)==enBooleanTrue) {}
 1075              		.loc 1 265 18
 1076 029a 00BF     		nop	
 1077              	.L43:
 1078              	@ main.c:265:             while(touchAvailable(&a,&b)==enBooleanTrue) {}
 1079              		.loc 1 265 19 discriminator 1
 1080 029c 3249     		ldr	r1, .L50+16	@,
 1081 029e 3148     		ldr	r0, .L50+12	@,
 1082 02a0 FFF7FEFF 		bl	touchAvailable		@
 1083 02a4 0346     		mov	r3, r0	@ tmp160,
 1084              	@ main.c:265:             while(touchAvailable(&a,&b)==enBooleanTrue) {}
 1085              		.loc 1 265 18 discriminator 1
 1086 02a6 012B     		cmp	r3, #1	@ _7,
 1087 02a8 F8D0     		beq	.L43		@,
 1088              	@ main.c:267: 			gfxDrawLine(c,d,a,b);
 266:main.c        ****             // if((x!=a || y!=b) && b>=42) {}
 267:main.c        **** 			gfxDrawLine(c,d,a,b);
 1089              		.loc 1 267 4
 1090 02aa 304B     		ldr	r3, .L50+20	@ tmp161,
 1091 02ac 1B68     		ldr	r3, [r3]	@ c.19_8, c
 1092 02ae 1846     		mov	r0, r3	@ c.20_9, c.19_8
 1093 02b0 2F4B     		ldr	r3, .L50+24	@ tmp162,
 1094 02b2 1B68     		ldr	r3, [r3]	@ d.21_10, d
 1095 02b4 1946     		mov	r1, r3	@ d.22_11, d.21_10
 1096 02b6 2B4B     		ldr	r3, .L50+12	@ tmp163,
 1097 02b8 1B68     		ldr	r3, [r3]	@ a.23_12, a
 1098 02ba 1A46     		mov	r2, r3	@ a.24_13, a.23_12
 1099 02bc 2A4B     		ldr	r3, .L50+16	@ tmp164,
 1100 02be 1B68     		ldr	r3, [r3]	@ b.25_14, b
 1101 02c0 FFF7FEFF 		bl	gfxDrawLine		@
 1102              	@ main.c:268:             break;
 268:main.c        ****             break;
 1103              		.loc 1 268 13
 1104 02c4 44E0     		b	.L42		@
 1105              	.L48:
 1106              	@ main.c:270:             while(touchAvailable(&a,&b)==enBooleanTrue) {}
 269:main.c        ****         case 3:
 270:main.c        ****             while(touchAvailable(&a,&b)==enBooleanTrue) {}
 1107              		.loc 1 270 18
 1108 02c6 00BF     		nop	
 1109              	.L44:
 1110              	@ main.c:270:             while(touchAvailable(&a,&b)==enBooleanTrue) {}
 1111              		.loc 1 270 19 discriminator 1
 1112 02c8 2749     		ldr	r1, .L50+16	@,
 1113 02ca 2648     		ldr	r0, .L50+12	@,
 1114 02cc FFF7FEFF 		bl	touchAvailable		@
 1115 02d0 0346     		mov	r3, r0	@ tmp165,
 1116              	@ main.c:270:             while(touchAvailable(&a,&b)==enBooleanTrue) {}
 1117              		.loc 1 270 18 discriminator 1
 1118 02d2 012B     		cmp	r3, #1	@ _16,
 1119 02d4 F8D0     		beq	.L44		@,
 1120              	@ main.c:272:             PFdword radius,tmp=((a-c)*(a-c))+((b-d)*(b-d));
ARM GAS  C:\Users\Aayush\AppData\Local\Temp\ccvWu1Je.s 			page 26


 271:main.c        ****             // if((x!=a || y!=b) && b>=42) {}
 272:main.c        ****             PFdword radius,tmp=((a-c)*(a-c))+((b-d)*(b-d));
 1121              		.loc 1 272 35
 1122 02d6 234B     		ldr	r3, .L50+12	@ tmp166,
 1123 02d8 1A68     		ldr	r2, [r3]	@ a.27_17, a
 1124 02da 244B     		ldr	r3, .L50+20	@ tmp167,
 1125 02dc 1B68     		ldr	r3, [r3]	@ c.28_18, c
 1126 02de D31A     		subs	r3, r2, r3	@ _19, a.27_17, c.28_18
 1127              	@ main.c:272:             PFdword radius,tmp=((a-c)*(a-c))+((b-d)*(b-d));
 1128              		.loc 1 272 41
 1129 02e0 204A     		ldr	r2, .L50+12	@ tmp168,
 1130 02e2 1168     		ldr	r1, [r2]	@ a.29_20, a
 1131 02e4 214A     		ldr	r2, .L50+20	@ tmp169,
 1132 02e6 1268     		ldr	r2, [r2]	@ c.30_21, c
 1133 02e8 8A1A     		subs	r2, r1, r2	@ _22, a.29_20, c.30_21
 1134              	@ main.c:272:             PFdword radius,tmp=((a-c)*(a-c))+((b-d)*(b-d));
 1135              		.loc 1 272 38
 1136 02ea 03FB02F2 		mul	r2, r3, r2	@ _23, _19, _22
 1137              	@ main.c:272:             PFdword radius,tmp=((a-c)*(a-c))+((b-d)*(b-d));
 1138              		.loc 1 272 49
 1139 02ee 1E4B     		ldr	r3, .L50+16	@ tmp170,
 1140 02f0 1968     		ldr	r1, [r3]	@ b.31_24, b
 1141 02f2 1F4B     		ldr	r3, .L50+24	@ tmp171,
 1142 02f4 1B68     		ldr	r3, [r3]	@ d.32_25, d
 1143 02f6 CB1A     		subs	r3, r1, r3	@ _26, b.31_24, d.32_25
 1144              	@ main.c:272:             PFdword radius,tmp=((a-c)*(a-c))+((b-d)*(b-d));
 1145              		.loc 1 272 55
 1146 02f8 1B49     		ldr	r1, .L50+16	@ tmp172,
 1147 02fa 0868     		ldr	r0, [r1]	@ b.33_27, b
 1148 02fc 1C49     		ldr	r1, .L50+24	@ tmp173,
 1149 02fe 0968     		ldr	r1, [r1]	@ d.34_28, d
 1150 0300 411A     		subs	r1, r0, r1	@ _29, b.33_27, d.34_28
 1151              	@ main.c:272:             PFdword radius,tmp=((a-c)*(a-c))+((b-d)*(b-d));
 1152              		.loc 1 272 52
 1153 0302 01FB03F3 		mul	r3, r1, r3	@ _30, _29, _26
 1154              	@ main.c:272:             PFdword radius,tmp=((a-c)*(a-c))+((b-d)*(b-d));
 1155              		.loc 1 272 28
 1156 0306 1344     		add	r3, r3, r2	@ tmp174, _23
 1157 0308 0193     		str	r3, [sp, #4]	@ tmp174, tmp
 1158              	@ main.c:273: 	    	radius=sqroot(tmp);
 273:main.c        **** 	    	radius=sqroot(tmp);
 1159              		.loc 1 273 14
 1160 030a 0198     		ldr	r0, [sp, #4]	@, tmp
 1161 030c FFF7FEFF 		bl	sqroot		@
 1162 0310 0090     		str	r0, [sp]	@, radius
 1163              	@ main.c:275: 		    gfxDrawCircle(c,d,radius);
 274:main.c        ****             // if(y-radius>=42 && y+radius<=319 && x-radius>=0 && x+radius>=239) {}
 275:main.c        **** 		    gfxDrawCircle(c,d,radius);
 1164              		.loc 1 275 7
 1165 0312 164B     		ldr	r3, .L50+20	@ tmp175,
 1166 0314 1B68     		ldr	r3, [r3]	@ c.35_31, c
 1167 0316 1846     		mov	r0, r3	@ c.36_32, c.35_31
 1168 0318 154B     		ldr	r3, .L50+24	@ tmp176,
 1169 031a 1B68     		ldr	r3, [r3]	@ d.37_33, d
 1170 031c 1946     		mov	r1, r3	@ d.38_34, d.37_33
 1171 031e 009B     		ldr	r3, [sp]	@ radius.39_35, radius
 1172 0320 1A46     		mov	r2, r3	@, radius.39_35
ARM GAS  C:\Users\Aayush\AppData\Local\Temp\ccvWu1Je.s 			page 27


 1173 0322 FFF7FEFF 		bl	gfxDrawCircle		@
 1174              	@ main.c:276:             break;
 276:main.c        ****             break;
 1175              		.loc 1 276 13
 1176 0326 13E0     		b	.L42		@
 1177              	.L49:
 1178              	@ main.c:278:             while(touchAvailable(&a,&b)==enBooleanTrue) {}
 277:main.c        ****         case 4:
 278:main.c        ****             while(touchAvailable(&a,&b)==enBooleanTrue) {}
 1179              		.loc 1 278 18
 1180 0328 00BF     		nop	
 1181              	.L45:
 1182              	@ main.c:278:             while(touchAvailable(&a,&b)==enBooleanTrue) {}
 1183              		.loc 1 278 19 discriminator 1
 1184 032a 0F49     		ldr	r1, .L50+16	@,
 1185 032c 0D48     		ldr	r0, .L50+12	@,
 1186 032e FFF7FEFF 		bl	touchAvailable		@
 1187 0332 0346     		mov	r3, r0	@ tmp177,
 1188              	@ main.c:278:             while(touchAvailable(&a,&b)==enBooleanTrue) {}
 1189              		.loc 1 278 18 discriminator 1
 1190 0334 012B     		cmp	r3, #1	@ _36,
 1191 0336 F8D0     		beq	.L45		@,
 1192              	@ main.c:280: 			gfxDrawRectangle(c,d,a,b);
 279:main.c        ****             // if((x!=a && y!=b) && b>=42) {}
 280:main.c        **** 			gfxDrawRectangle(c,d,a,b);
 1193              		.loc 1 280 4
 1194 0338 0C4B     		ldr	r3, .L50+20	@ tmp178,
 1195 033a 1868     		ldr	r0, [r3]	@ c.40_37, c
 1196 033c 0C4B     		ldr	r3, .L50+24	@ tmp179,
 1197 033e 1968     		ldr	r1, [r3]	@ d.41_38, d
 1198 0340 084B     		ldr	r3, .L50+12	@ tmp180,
 1199 0342 1A68     		ldr	r2, [r3]	@ a.42_39, a
 1200 0344 084B     		ldr	r3, .L50+16	@ tmp181,
 1201 0346 1B68     		ldr	r3, [r3]	@ b.43_40, b
 1202 0348 FFF7FEFF 		bl	gfxDrawRectangle		@
 1203              	@ main.c:281:             break;
 281:main.c        ****             break;
 1204              		.loc 1 281 13
 1205 034c 00E0     		b	.L42		@
 1206              	.L46:
 1207              	@ main.c:283:             break;
 282:main.c        ****         default :
 283:main.c        ****             break;
 1208              		.loc 1 283 13
 1209 034e 00BF     		nop	
 1210              	.L42:
 1211              	.LBE2:
 1212              	@ main.c:285: }
 284:main.c        ****     }
 285:main.c        **** }...
 1213              		.loc 1 285 1
 1214 0350 00BF     		nop	
 1215 0352 03B0     		add	sp, sp, #12	@,,
 1216              	.LCFI12:
 1217              		.cfi_def_cfa_offset 4
 1218              		@ sp needed	@
 1219 0354 5DF804FB 		ldr	pc, [sp], #4	@
ARM GAS  C:\Users\Aayush\AppData\Local\Temp\ccvWu1Je.s 			page 28


 1220              	.L51:
 1221              		.align	2
 1222              	.L50:
 1223 0358 00000000 		.word	idx
 1224 035c 00000000 		.word	x
 1225 0360 00000000 		.word	y
 1226 0364 00000000 		.word	a
 1227 0368 00000000 		.word	b
 1228 036c 00000000 		.word	c
 1229 0370 00000000 		.word	d
 1230              		.cfi_endproc
 1231              	.LFE69:
 1232              		.size	canvasEventHandler, .-canvasEventHandler
 1233              	.Letext0:
 1234              		.file 2 "../../Include/PrimeFramework/prime_types.h"
 1235              		.file 3 "../../Include/AppHelper/graphics.h"
 1236              		.file 4 "../../Include/GameEngine/Graphics/gui.h"
 1237              		.section	.debug_info,"",%progbits
 1238              	.Ldebug_info0:
 1239 0000 2E060000 		.4byte	0x62e
 1240 0004 0200     		.2byte	0x2
 1241 0006 00000000 		.4byte	.Ldebug_abbrev0
 1242 000a 04       		.byte	0x4
 1243 000b 01       		.uleb128 0x1
 1244 000c EF020000 		.4byte	.LASF73
 1245 0010 0C       		.byte	0xc
 1246 0011 BD020000 		.4byte	.LASF74
 1247 0015 E9010000 		.4byte	.LASF75
 1248 0019 00000000 		.4byte	.Ltext0
 1249 001d 74030000 		.4byte	.Letext0
 1250 0021 00000000 		.4byte	.Ldebug_line0
 1251 0025 02       		.uleb128 0x2
 1252 0026 04       		.byte	0x4
 1253 0027 05       		.byte	0x5
 1254 0028 696E7400 		.ascii	"int\000"
 1255 002c 03       		.uleb128 0x3
 1256 002d 04       		.byte	0x4
 1257 002e 07       		.byte	0x7
 1258 002f 26020000 		.4byte	.LASF0
 1259 0033 03       		.uleb128 0x3
 1260 0034 01       		.byte	0x1
 1261 0035 06       		.byte	0x6
 1262 0036 B9010000 		.4byte	.LASF1
 1263 003a 03       		.uleb128 0x3
 1264 003b 01       		.byte	0x1
 1265 003c 08       		.byte	0x8
 1266 003d 92010000 		.4byte	.LASF2
 1267 0041 03       		.uleb128 0x3
 1268 0042 02       		.byte	0x2
 1269 0043 05       		.byte	0x5
 1270 0044 A9000000 		.4byte	.LASF3
 1271 0048 03       		.uleb128 0x3
 1272 0049 02       		.byte	0x2
 1273 004a 07       		.byte	0x7
 1274 004b 52020000 		.4byte	.LASF4
 1275 004f 03       		.uleb128 0x3
 1276 0050 04       		.byte	0x4
ARM GAS  C:\Users\Aayush\AppData\Local\Temp\ccvWu1Je.s 			page 29


 1277 0051 05       		.byte	0x5
 1278 0052 03010000 		.4byte	.LASF5
 1279 0056 03       		.uleb128 0x3
 1280 0057 04       		.byte	0x4
 1281 0058 07       		.byte	0x7
 1282 0059 C4020000 		.4byte	.LASF6
 1283 005d 03       		.uleb128 0x3
 1284 005e 08       		.byte	0x8
 1285 005f 05       		.byte	0x5
 1286 0060 3A040000 		.4byte	.LASF7
 1287 0064 03       		.uleb128 0x3
 1288 0065 08       		.byte	0x8
 1289 0066 07       		.byte	0x7
 1290 0067 C5010000 		.4byte	.LASF8
 1291 006b 04       		.uleb128 0x4
 1292 006c 4E000000 		.4byte	.LASF9
 1293 0070 02       		.byte	0x2
 1294 0071 3B       		.byte	0x3b
 1295 0072 1D       		.byte	0x1d
 1296 0073 3A000000 		.4byte	0x3a
 1297 0077 04       		.uleb128 0x4
 1298 0078 7F000000 		.4byte	.LASF10
 1299 007c 02       		.byte	0x2
 1300 007d 3F       		.byte	0x3f
 1301 007e 1D       		.byte	0x1d
 1302 007f 48000000 		.4byte	0x48
 1303 0083 04       		.uleb128 0x4
 1304 0084 FB000000 		.4byte	.LASF11
 1305 0088 02       		.byte	0x2
 1306 0089 43       		.byte	0x43
 1307 008a 1D       		.byte	0x1d
 1308 008b 56000000 		.4byte	0x56
 1309 008f 03       		.uleb128 0x3
 1310 0090 04       		.byte	0x4
 1311 0091 04       		.byte	0x4
 1312 0092 DC000000 		.4byte	.LASF12
 1313 0096 03       		.uleb128 0x3
 1314 0097 08       		.byte	0x8
 1315 0098 04       		.byte	0x4
 1316 0099 DC030000 		.4byte	.LASF13
 1317 009d 05       		.uleb128 0x5
 1318 009e 07       		.byte	0x7
 1319 009f 01       		.byte	0x1
 1320 00a0 3A000000 		.4byte	0x3a
 1321 00a4 02       		.byte	0x2
 1322 00a5 1C01     		.2byte	0x11c
 1323 00a7 01       		.byte	0x1
 1324 00a8 B9000000 		.4byte	0xb9
 1325 00ac 06       		.uleb128 0x6
 1326 00ad 70000000 		.4byte	.LASF14
 1327 00b1 00       		.byte	0
 1328 00b2 06       		.uleb128 0x6
 1329 00b3 3B000000 		.4byte	.LASF15
 1330 00b7 01       		.byte	0x1
 1331 00b8 00       		.byte	0
 1332 00b9 07       		.uleb128 0x7
 1333 00ba 39010000 		.4byte	.LASF16
ARM GAS  C:\Users\Aayush\AppData\Local\Temp\ccvWu1Je.s 			page 30


 1334 00be 02       		.byte	0x2
 1335 00bf 1F01     		.2byte	0x11f
 1336 00c1 03       		.byte	0x3
 1337 00c2 9D000000 		.4byte	0x9d
 1338 00c6 07       		.uleb128 0x7
 1339 00c7 8C020000 		.4byte	.LASF17
 1340 00cb 02       		.byte	0x2
 1341 00cc 3001     		.2byte	0x130
 1342 00ce 10       		.byte	0x10
 1343 00cf D3000000 		.4byte	0xd3
 1344 00d3 08       		.uleb128 0x8
 1345 00d4 04       		.byte	0x4
 1346 00d5 D9000000 		.4byte	0xd9
 1347 00d9 09       		.uleb128 0x9
 1348 00da 01       		.byte	0x1
 1349 00db 08       		.uleb128 0x8
 1350 00dc 04       		.byte	0x4
 1351 00dd E1000000 		.4byte	0xe1
 1352 00e1 03       		.uleb128 0x3
 1353 00e2 01       		.byte	0x1
 1354 00e3 08       		.byte	0x8
 1355 00e4 6F020000 		.4byte	.LASF18
 1356 00e8 0A       		.uleb128 0xa
 1357 00e9 07       		.byte	0x7
 1358 00ea 01       		.byte	0x1
 1359 00eb 3A000000 		.4byte	0x3a
 1360 00ef 03       		.byte	0x3
 1361 00f0 39       		.byte	0x39
 1362 00f1 0D       		.byte	0xd
 1363 00f2 09010000 		.4byte	0x109
 1364 00f6 06       		.uleb128 0x6
 1365 00f7 E2000000 		.4byte	.LASF19
 1366 00fb 00       		.byte	0
 1367 00fc 06       		.uleb128 0x6
 1368 00fd AA010000 		.4byte	.LASF20
 1369 0101 01       		.byte	0x1
 1370 0102 06       		.uleb128 0x6
 1371 0103 67010000 		.4byte	.LASF21
 1372 0107 02       		.byte	0x2
 1373 0108 00       		.byte	0
 1374 0109 04       		.uleb128 0x4
 1375 010a 8A030000 		.4byte	.LASF22
 1376 010e 03       		.byte	0x3
 1377 010f 3D       		.byte	0x3d
 1378 0110 02       		.byte	0x2
 1379 0111 E8000000 		.4byte	0xe8
 1380 0115 0B       		.uleb128 0xb
 1381 0116 04       		.byte	0x4
 1382 0117 04       		.byte	0x4
 1383 0118 22       		.byte	0x22
 1384 0119 09       		.byte	0x9
 1385 011a 3D010000 		.4byte	0x13d
 1386 011e 0C       		.uleb128 0xc
 1387 011f 45010000 		.4byte	.LASF23
 1388 0123 04       		.byte	0x4
 1389 0124 24       		.byte	0x24
 1390 0125 0C       		.byte	0xc
ARM GAS  C:\Users\Aayush\AppData\Local\Temp\ccvWu1Je.s 			page 31


 1391 0126 77000000 		.4byte	0x77
 1392 012a 02       		.byte	0x2
 1393 012b 23       		.byte	0x23
 1394 012c 00       		.uleb128 0
 1395 012d 0C       		.uleb128 0xc
 1396 012e F8030000 		.4byte	.LASF24
 1397 0132 04       		.byte	0x4
 1398 0133 25       		.byte	0x25
 1399 0134 0C       		.byte	0xc
 1400 0135 77000000 		.4byte	0x77
 1401 0139 02       		.byte	0x2
 1402 013a 23       		.byte	0x23
 1403 013b 02       		.uleb128 0x2
 1404 013c 00       		.byte	0
 1405 013d 04       		.uleb128 0x4
 1406 013e 2E010000 		.4byte	.LASF25
 1407 0142 04       		.byte	0x4
 1408 0143 26       		.byte	0x26
 1409 0144 02       		.byte	0x2
 1410 0145 15010000 		.4byte	0x115
 1411 0149 0B       		.uleb128 0xb
 1412 014a 04       		.byte	0x4
 1413 014b 04       		.byte	0x4
 1414 014c 29       		.byte	0x29
 1415 014d 09       		.byte	0x9
 1416 014e 71010000 		.4byte	0x171
 1417 0152 0C       		.uleb128 0xc
 1418 0153 CF000000 		.4byte	.LASF26
 1419 0157 04       		.byte	0x4
 1420 0158 2B       		.byte	0x2b
 1421 0159 0C       		.byte	0xc
 1422 015a 77000000 		.4byte	0x77
 1423 015e 02       		.byte	0x2
 1424 015f 23       		.byte	0x23
 1425 0160 00       		.uleb128 0
 1426 0161 0C       		.uleb128 0xc
 1427 0162 1F020000 		.4byte	.LASF27
 1428 0166 04       		.byte	0x4
 1429 0167 2C       		.byte	0x2c
 1430 0168 0C       		.byte	0xc
 1431 0169 77000000 		.4byte	0x77
 1432 016d 02       		.byte	0x2
 1433 016e 23       		.byte	0x23
 1434 016f 02       		.uleb128 0x2
 1435 0170 00       		.byte	0
 1436 0171 04       		.uleb128 0x4
 1437 0172 D2030000 		.4byte	.LASF28
 1438 0176 04       		.byte	0x4
 1439 0177 2D       		.byte	0x2d
 1440 0178 02       		.byte	0x2
 1441 0179 49010000 		.4byte	0x149
 1442 017d 04       		.uleb128 0x4
 1443 017e 11040000 		.4byte	.LASF29
 1444 0182 04       		.byte	0x4
 1445 0183 37       		.byte	0x37
 1446 0184 1F       		.byte	0x1f
 1447 0185 89010000 		.4byte	0x189
ARM GAS  C:\Users\Aayush\AppData\Local\Temp\ccvWu1Je.s 			page 32


 1448 0189 0D       		.uleb128 0xd
 1449 018a 11040000 		.4byte	.LASF29
 1450 018e 10       		.byte	0x10
 1451 018f 04       		.byte	0x4
 1452 0190 41       		.byte	0x41
 1453 0191 08       		.byte	0x8
 1454 0192 E2010000 		.4byte	0x1e2
 1455 0196 0C       		.uleb128 0xc
 1456 0197 4C010000 		.4byte	.LASF30
 1457 019b 04       		.byte	0x4
 1458 019c 43       		.byte	0x43
 1459 019d 0B       		.byte	0xb
 1460 019e DB000000 		.4byte	0xdb
 1461 01a2 02       		.byte	0x2
 1462 01a3 23       		.byte	0x23
 1463 01a4 00       		.uleb128 0
 1464 01a5 0C       		.uleb128 0xc
 1465 01a6 79020000 		.4byte	.LASF31
 1466 01aa 04       		.byte	0x4
 1467 01ab 44       		.byte	0x44
 1468 01ac 10       		.byte	0x10
 1469 01ad 3D010000 		.4byte	0x13d
 1470 01b1 02       		.byte	0x2
 1471 01b2 23       		.byte	0x23
 1472 01b3 04       		.uleb128 0x4
 1473 01b4 0C       		.uleb128 0xc
 1474 01b5 9E020000 		.4byte	.LASF32
 1475 01b9 04       		.byte	0x4
 1476 01ba 45       		.byte	0x45
 1477 01bb 0F       		.byte	0xf
 1478 01bc 71010000 		.4byte	0x171
 1479 01c0 02       		.byte	0x2
 1480 01c1 23       		.byte	0x23
 1481 01c2 08       		.uleb128 0x8
 1482 01c3 0C       		.uleb128 0xc
 1483 01c4 60000000 		.4byte	.LASF33
 1484 01c8 04       		.byte	0x4
 1485 01c9 46       		.byte	0x46
 1486 01ca 0C       		.byte	0xc
 1487 01cb 77000000 		.4byte	0x77
 1488 01cf 02       		.byte	0x2
 1489 01d0 23       		.byte	0x23
 1490 01d1 0C       		.uleb128 0xc
 1491 01d2 0C       		.uleb128 0xc
 1492 01d3 D5000000 		.4byte	.LASF34
 1493 01d7 04       		.byte	0x4
 1494 01d8 47       		.byte	0x47
 1495 01d9 11       		.byte	0x11
 1496 01da B9000000 		.4byte	0xb9
 1497 01de 02       		.byte	0x2
 1498 01df 23       		.byte	0x23
 1499 01e0 0E       		.uleb128 0xe
 1500 01e1 00       		.byte	0
 1501 01e2 04       		.uleb128 0x4
 1502 01e3 86000000 		.4byte	.LASF35
 1503 01e7 04       		.byte	0x4
 1504 01e8 38       		.byte	0x38
ARM GAS  C:\Users\Aayush\AppData\Local\Temp\ccvWu1Je.s 			page 33


 1505 01e9 1A       		.byte	0x1a
 1506 01ea EE010000 		.4byte	0x1ee
 1507 01ee 0D       		.uleb128 0xd
 1508 01ef 86000000 		.4byte	.LASF35
 1509 01f3 14       		.byte	0x14
 1510 01f4 04       		.byte	0x4
 1511 01f5 4D       		.byte	0x4d
 1512 01f6 08       		.byte	0x8
 1513 01f7 1A020000 		.4byte	0x21a
 1514 01fb 0C       		.uleb128 0xc
 1515 01fc 81020000 		.4byte	.LASF36
 1516 0200 04       		.byte	0x4
 1517 0201 4F       		.byte	0x4f
 1518 0202 14       		.byte	0x14
 1519 0203 7D010000 		.4byte	0x17d
 1520 0207 02       		.byte	0x2
 1521 0208 23       		.byte	0x23
 1522 0209 00       		.uleb128 0
 1523 020a 0C       		.uleb128 0xc
 1524 020b 90000000 		.4byte	.LASF37
 1525 020f 04       		.byte	0x4
 1526 0210 50       		.byte	0x50
 1527 0211 10       		.byte	0x10
 1528 0212 C6000000 		.4byte	0xc6
 1529 0216 02       		.byte	0x2
 1530 0217 23       		.byte	0x23
 1531 0218 10       		.uleb128 0x10
 1532 0219 00       		.byte	0
 1533 021a 04       		.uleb128 0x4
 1534 021b B3000000 		.4byte	.LASF38
 1535 021f 04       		.byte	0x4
 1536 0220 39       		.byte	0x39
 1537 0221 1A       		.byte	0x1a
 1538 0222 26020000 		.4byte	0x226
 1539 0226 0D       		.uleb128 0xd
 1540 0227 B3000000 		.4byte	.LASF38
 1541 022b 20       		.byte	0x20
 1542 022c 04       		.byte	0x4
 1543 022d 56       		.byte	0x56
 1544 022e 08       		.byte	0x8
 1545 022f 8E020000 		.4byte	0x28e
 1546 0233 0C       		.uleb128 0xc
 1547 0234 F0000000 		.4byte	.LASF39
 1548 0238 04       		.byte	0x4
 1549 0239 58       		.byte	0x58
 1550 023a 14       		.byte	0x14
 1551 023b 7D010000 		.4byte	0x17d
 1552 023f 02       		.byte	0x2
 1553 0240 23       		.byte	0x23
 1554 0241 00       		.uleb128 0
 1555 0242 0C       		.uleb128 0xc
 1556 0243 DC010000 		.4byte	.LASF40
 1557 0247 04       		.byte	0x4
 1558 0248 59       		.byte	0x59
 1559 0249 10       		.byte	0x10
 1560 024a C6000000 		.4byte	0xc6
 1561 024e 02       		.byte	0x2
ARM GAS  C:\Users\Aayush\AppData\Local\Temp\ccvWu1Je.s 			page 34


 1562 024f 23       		.byte	0x23
 1563 0250 10       		.uleb128 0x10
 1564 0251 0C       		.uleb128 0xc
 1565 0252 E3030000 		.4byte	.LASF41
 1566 0256 04       		.byte	0x4
 1567 0257 5B       		.byte	0x5b
 1568 0258 0B       		.byte	0xb
 1569 0259 DB000000 		.4byte	0xdb
 1570 025d 02       		.byte	0x2
 1571 025e 23       		.byte	0x23
 1572 025f 14       		.uleb128 0x14
 1573 0260 0C       		.uleb128 0xc
 1574 0261 49000000 		.4byte	.LASF42
 1575 0265 04       		.byte	0x4
 1576 0266 5C       		.byte	0x5c
 1577 0267 10       		.byte	0x10
 1578 0268 09010000 		.4byte	0x109
 1579 026c 02       		.byte	0x2
 1580 026d 23       		.byte	0x23
 1581 026e 18       		.uleb128 0x18
 1582 026f 0C       		.uleb128 0xc
 1583 0270 9F000000 		.4byte	.LASF43
 1584 0274 04       		.byte	0x4
 1585 0275 5D       		.byte	0x5d
 1586 0276 0C       		.byte	0xc
 1587 0277 77000000 		.4byte	0x77
 1588 027b 02       		.byte	0x2
 1589 027c 23       		.byte	0x23
 1590 027d 1A       		.uleb128 0x1a
 1591 027e 0C       		.uleb128 0xc
 1592 027f 97020000 		.4byte	.LASF44
 1593 0283 04       		.byte	0x4
 1594 0284 5E       		.byte	0x5e
 1595 0285 0D       		.byte	0xd
 1596 0286 02030000 		.4byte	0x302
 1597 028a 02       		.byte	0x2
 1598 028b 23       		.byte	0x23
 1599 028c 1C       		.uleb128 0x1c
 1600 028d 00       		.byte	0
 1601 028e 04       		.uleb128 0x4
 1602 028f C8030000 		.4byte	.LASF45
 1603 0293 04       		.byte	0x4
 1604 0294 3A       		.byte	0x3a
 1605 0295 1A       		.byte	0x1a
 1606 0296 9A020000 		.4byte	0x29a
 1607 029a 0D       		.uleb128 0xd
 1608 029b C8030000 		.4byte	.LASF45
 1609 029f 20       		.byte	0x20
 1610 02a0 04       		.byte	0x4
 1611 02a1 64       		.byte	0x64
 1612 02a2 08       		.byte	0x8
 1613 02a3 02030000 		.4byte	0x302
 1614 02a7 0C       		.uleb128 0xc
 1615 02a8 BD030000 		.4byte	.LASF46
 1616 02ac 04       		.byte	0x4
 1617 02ad 66       		.byte	0x66
 1618 02ae 14       		.byte	0x14
ARM GAS  C:\Users\Aayush\AppData\Local\Temp\ccvWu1Je.s 			page 35


 1619 02af 7D010000 		.4byte	0x17d
 1620 02b3 02       		.byte	0x2
 1621 02b4 23       		.byte	0x23
 1622 02b5 00       		.uleb128 0
 1623 02b6 0C       		.uleb128 0xc
 1624 02b7 DC010000 		.4byte	.LASF40
 1625 02bb 04       		.byte	0x4
 1626 02bc 67       		.byte	0x67
 1627 02bd 10       		.byte	0x10
 1628 02be C6000000 		.4byte	0xc6
 1629 02c2 02       		.byte	0x2
 1630 02c3 23       		.byte	0x23
 1631 02c4 10       		.uleb128 0x10
 1632 02c5 0C       		.uleb128 0xc
 1633 02c6 E3030000 		.4byte	.LASF41
 1634 02ca 04       		.byte	0x4
 1635 02cb 69       		.byte	0x69
 1636 02cc 0B       		.byte	0xb
 1637 02cd DB000000 		.4byte	0xdb
 1638 02d1 02       		.byte	0x2
 1639 02d2 23       		.byte	0x23
 1640 02d3 14       		.uleb128 0x14
 1641 02d4 0C       		.uleb128 0xc
 1642 02d5 49000000 		.4byte	.LASF42
 1643 02d9 04       		.byte	0x4
 1644 02da 6A       		.byte	0x6a
 1645 02db 10       		.byte	0x10
 1646 02dc 09010000 		.4byte	0x109
 1647 02e0 02       		.byte	0x2
 1648 02e1 23       		.byte	0x23
 1649 02e2 18       		.uleb128 0x18
 1650 02e3 0C       		.uleb128 0xc
 1651 02e4 9F000000 		.4byte	.LASF43
 1652 02e8 04       		.byte	0x4
 1653 02e9 6B       		.byte	0x6b
 1654 02ea 0C       		.byte	0xc
 1655 02eb 77000000 		.4byte	0x77
 1656 02ef 02       		.byte	0x2
 1657 02f0 23       		.byte	0x23
 1658 02f1 1A       		.uleb128 0x1a
 1659 02f2 0C       		.uleb128 0xc
 1660 02f3 97020000 		.4byte	.LASF44
 1661 02f7 04       		.byte	0x4
 1662 02f8 6C       		.byte	0x6c
 1663 02f9 0D       		.byte	0xd
 1664 02fa 02030000 		.4byte	0x302
 1665 02fe 02       		.byte	0x2
 1666 02ff 23       		.byte	0x23
 1667 0300 1C       		.uleb128 0x1c
 1668 0301 00       		.byte	0
 1669 0302 08       		.uleb128 0x8
 1670 0303 04       		.byte	0x4
 1671 0304 77000000 		.4byte	0x77
 1672 0308 0E       		.uleb128 0xe
 1673 0309 E6020000 		.4byte	.LASF47
 1674 030d 01       		.byte	0x1
 1675 030e 07       		.byte	0x7
ARM GAS  C:\Users\Aayush\AppData\Local\Temp\ccvWu1Je.s 			page 36


 1676 030f 08       		.byte	0x8
 1677 0310 6B000000 		.4byte	0x6b
 1678 0314 01       		.byte	0x1
 1679 0315 05       		.byte	0x5
 1680 0316 03       		.byte	0x3
 1681 0317 00000000 		.4byte	windowID
 1682 031b 0E       		.uleb128 0xe
 1683 031c D6020000 		.4byte	.LASF48
 1684 0320 01       		.byte	0x1
 1685 0321 07       		.byte	0x7
 1686 0322 12       		.byte	0x12
 1687 0323 6B000000 		.4byte	0x6b
 1688 0327 01       		.byte	0x1
 1689 0328 05       		.byte	0x5
 1690 0329 03       		.byte	0x3
 1691 032a 00000000 		.4byte	canvasID
 1692 032e 0E       		.uleb128 0xe
 1693 032f 07040000 		.4byte	.LASF49
 1694 0333 01       		.byte	0x1
 1695 0334 07       		.byte	0x7
 1696 0335 1C       		.byte	0x1c
 1697 0336 6B000000 		.4byte	0x6b
 1698 033a 01       		.byte	0x1
 1699 033b 05       		.byte	0x5
 1700 033c 03       		.byte	0x3
 1701 033d 00000000 		.4byte	widget1ID
 1702 0341 0E       		.uleb128 0xe
 1703 0342 B3030000 		.4byte	.LASF50
 1704 0346 01       		.byte	0x1
 1705 0347 07       		.byte	0x7
 1706 0348 27       		.byte	0x27
 1707 0349 6B000000 		.4byte	0x6b
 1708 034d 01       		.byte	0x1
 1709 034e 05       		.byte	0x5
 1710 034f 03       		.byte	0x3
 1711 0350 00000000 		.4byte	widget2ID
 1712 0354 0E       		.uleb128 0xe
 1713 0355 95030000 		.4byte	.LASF51
 1714 0359 01       		.byte	0x1
 1715 035a 07       		.byte	0x7
 1716 035b 32       		.byte	0x32
 1717 035c 6B000000 		.4byte	0x6b
 1718 0360 01       		.byte	0x1
 1719 0361 05       		.byte	0x5
 1720 0362 03       		.byte	0x3
 1721 0363 00000000 		.4byte	widget3ID
 1722 0367 0E       		.uleb128 0xe
 1723 0368 B3020000 		.4byte	.LASF52
 1724 036c 01       		.byte	0x1
 1725 036d 07       		.byte	0x7
 1726 036e 3D       		.byte	0x3d
 1727 036f 6B000000 		.4byte	0x6b
 1728 0373 01       		.byte	0x1
 1729 0374 05       		.byte	0x5
 1730 0375 03       		.byte	0x3
 1731 0376 00000000 		.4byte	widget4ID
 1732 037a 0E       		.uleb128 0xe
ARM GAS  C:\Users\Aayush\AppData\Local\Temp\ccvWu1Je.s 			page 37


 1733 037b 65020000 		.4byte	.LASF53
 1734 037f 01       		.byte	0x1
 1735 0380 07       		.byte	0x7
 1736 0381 48       		.byte	0x48
 1737 0382 6B000000 		.4byte	0x6b
 1738 0386 01       		.byte	0x1
 1739 0387 05       		.byte	0x5
 1740 0388 03       		.byte	0x3
 1741 0389 00000000 		.4byte	widget5ID
 1742 038d 0E       		.uleb128 0xe
 1743 038e A0010000 		.4byte	.LASF54
 1744 0392 01       		.byte	0x1
 1745 0393 07       		.byte	0x7
 1746 0394 53       		.byte	0x53
 1747 0395 6B000000 		.4byte	0x6b
 1748 0399 01       		.byte	0x1
 1749 039a 05       		.byte	0x5
 1750 039b 03       		.byte	0x3
 1751 039c 00000000 		.4byte	widget6ID
 1752 03a0 0F       		.uleb128 0xf
 1753 03a1 7800     		.ascii	"x\000"
 1754 03a3 01       		.byte	0x1
 1755 03a4 08       		.byte	0x8
 1756 03a5 09       		.byte	0x9
 1757 03a6 83000000 		.4byte	0x83
 1758 03aa 01       		.byte	0x1
 1759 03ab 05       		.byte	0x5
 1760 03ac 03       		.byte	0x3
 1761 03ad 00000000 		.4byte	x
 1762 03b1 0F       		.uleb128 0xf
 1763 03b2 7900     		.ascii	"y\000"
 1764 03b4 01       		.byte	0x1
 1765 03b5 08       		.byte	0x8
 1766 03b6 0B       		.byte	0xb
 1767 03b7 83000000 		.4byte	0x83
 1768 03bb 01       		.byte	0x1
 1769 03bc 05       		.byte	0x5
 1770 03bd 03       		.byte	0x3
 1771 03be 00000000 		.4byte	y
 1772 03c2 0F       		.uleb128 0xf
 1773 03c3 6100     		.ascii	"a\000"
 1774 03c5 01       		.byte	0x1
 1775 03c6 08       		.byte	0x8
 1776 03c7 0D       		.byte	0xd
 1777 03c8 83000000 		.4byte	0x83
 1778 03cc 01       		.byte	0x1
 1779 03cd 05       		.byte	0x5
 1780 03ce 03       		.byte	0x3
 1781 03cf 00000000 		.4byte	a
 1782 03d3 0F       		.uleb128 0xf
 1783 03d4 6200     		.ascii	"b\000"
 1784 03d6 01       		.byte	0x1
 1785 03d7 08       		.byte	0x8
 1786 03d8 0F       		.byte	0xf
 1787 03d9 83000000 		.4byte	0x83
 1788 03dd 01       		.byte	0x1
 1789 03de 05       		.byte	0x5
ARM GAS  C:\Users\Aayush\AppData\Local\Temp\ccvWu1Je.s 			page 38


 1790 03df 03       		.byte	0x3
 1791 03e0 00000000 		.4byte	b
 1792 03e4 0F       		.uleb128 0xf
 1793 03e5 6300     		.ascii	"c\000"
 1794 03e7 01       		.byte	0x1
 1795 03e8 08       		.byte	0x8
 1796 03e9 11       		.byte	0x11
 1797 03ea 83000000 		.4byte	0x83
 1798 03ee 01       		.byte	0x1
 1799 03ef 05       		.byte	0x5
 1800 03f0 03       		.byte	0x3
 1801 03f1 00000000 		.4byte	c
 1802 03f5 0F       		.uleb128 0xf
 1803 03f6 6400     		.ascii	"d\000"
 1804 03f8 01       		.byte	0x1
 1805 03f9 08       		.byte	0x8
 1806 03fa 13       		.byte	0x13
 1807 03fb 83000000 		.4byte	0x83
 1808 03ff 01       		.byte	0x1
 1809 0400 05       		.byte	0x5
 1810 0401 03       		.byte	0x3
 1811 0402 00000000 		.4byte	d
 1812 0406 0F       		.uleb128 0xf
 1813 0407 76616C00 		.ascii	"val\000"
 1814 040b 01       		.byte	0x1
 1815 040c 08       		.byte	0x8
 1816 040d 15       		.byte	0x15
 1817 040e 83000000 		.4byte	0x83
 1818 0412 01       		.byte	0x1
 1819 0413 05       		.byte	0x5
 1820 0414 03       		.byte	0x3
 1821 0415 00000000 		.4byte	val
 1822 0419 0F       		.uleb128 0xf
 1823 041a 69647800 		.ascii	"idx\000"
 1824 041e 01       		.byte	0x1
 1825 041f 09       		.byte	0x9
 1826 0420 05       		.byte	0x5
 1827 0421 25000000 		.4byte	0x25
 1828 0425 01       		.byte	0x1
 1829 0426 05       		.byte	0x5
 1830 0427 03       		.byte	0x3
 1831 0428 00000000 		.4byte	idx
 1832 042c 10       		.uleb128 0x10
 1833 042d FF030000 		.4byte	.LASF55
 1834 0431 01       		.byte	0x1
 1835 0432 1B       		.byte	0x1b
 1836 0433 12       		.byte	0x12
 1837 0434 E2010000 		.4byte	0x1e2
 1838 0438 05       		.byte	0x5
 1839 0439 03       		.byte	0x3
 1840 043a 04000000 		.4byte	window1
 1841 043e 10       		.uleb128 0x10
 1842 043f DF020000 		.4byte	.LASF56
 1843 0443 01       		.byte	0x1
 1844 0444 27       		.byte	0x27
 1845 0445 12       		.byte	0x12
 1846 0446 1A020000 		.4byte	0x21a
ARM GAS  C:\Users\Aayush\AppData\Local\Temp\ccvWu1Je.s 			page 39


 1847 044a 05       		.byte	0x5
 1848 044b 03       		.byte	0x3
 1849 044c 18000000 		.4byte	Canvas
 1850 0450 10       		.uleb128 0x10
 1851 0451 BD000000 		.4byte	.LASF57
 1852 0455 01       		.byte	0x1
 1853 0456 37       		.byte	0x37
 1854 0457 12       		.byte	0x12
 1855 0458 8E020000 		.4byte	0x28e
 1856 045c 05       		.byte	0x5
 1857 045d 03       		.byte	0x3
 1858 045e 38000000 		.4byte	freeHandBtnWidget
 1859 0462 10       		.uleb128 0x10
 1860 0463 18000000 		.4byte	.LASF58
 1861 0467 01       		.byte	0x1
 1862 0468 47       		.byte	0x47
 1863 0469 12       		.byte	0x12
 1864 046a 8E020000 		.4byte	0x28e
 1865 046e 05       		.byte	0x5
 1866 046f 03       		.byte	0x3
 1867 0470 58000000 		.4byte	lineBtnWidget
 1868 0474 10       		.uleb128 0x10
 1869 0475 A3020000 		.4byte	.LASF59
 1870 0479 01       		.byte	0x1
 1871 047a 57       		.byte	0x57
 1872 047b 12       		.byte	0x12
 1873 047c 8E020000 		.4byte	0x28e
 1874 0480 05       		.byte	0x5
 1875 0481 03       		.byte	0x3
 1876 0482 78000000 		.4byte	circleBtnWidget
 1877 0486 10       		.uleb128 0x10
 1878 0487 27040000 		.4byte	.LASF60
 1879 048b 01       		.byte	0x1
 1880 048c 67       		.byte	0x67
 1881 048d 12       		.byte	0x12
 1882 048e 8E020000 		.4byte	0x28e
 1883 0492 05       		.byte	0x5
 1884 0493 03       		.byte	0x3
 1885 0494 98000000 		.4byte	rectangleBtnWidget
 1886 0498 10       		.uleb128 0x10
 1887 0499 26000000 		.4byte	.LASF61
 1888 049d 01       		.byte	0x1
 1889 049e 78       		.byte	0x78
 1890 049f 12       		.byte	0x12
 1891 04a0 8E020000 		.4byte	0x28e
 1892 04a4 05       		.byte	0x5
 1893 04a5 03       		.byte	0x3
 1894 04a6 B8000000 		.4byte	clearscreenBtnWidget
 1895 04aa 10       		.uleb128 0x10
 1896 04ab 0C010000 		.4byte	.LASF62
 1897 04af 01       		.byte	0x1
 1898 04b0 88       		.byte	0x88
 1899 04b1 12       		.byte	0x12
 1900 04b2 8E020000 		.4byte	0x28e
 1901 04b6 05       		.byte	0x5
 1902 04b7 03       		.byte	0x3
 1903 04b8 D8000000 		.4byte	saveBtnWidget
ARM GAS  C:\Users\Aayush\AppData\Local\Temp\ccvWu1Je.s 			page 40


 1904 04bc 11       		.uleb128 0x11
 1905 04bd 01       		.byte	0x1
 1906 04be 77030000 		.4byte	.LASF76
 1907 04c2 01       		.byte	0x1
 1908 04c3 FA       		.byte	0xfa
 1909 04c4 06       		.byte	0x6
 1910 04c5 01       		.byte	0x1
 1911 04c6 42020000 		.4byte	.LFB69
 1912 04ca 74030000 		.4byte	.LFE69
 1913 04ce 00000000 		.4byte	.LLST5
 1914 04d2 01       		.byte	0x1
 1915 04d3 02050000 		.4byte	0x502
 1916 04d7 12       		.uleb128 0x12
 1917 04d8 68020000 		.4byte	.LBB2
 1918 04dc 50030000 		.4byte	.LBE2
 1919 04e0 13       		.uleb128 0x13
 1920 04e1 F1030000 		.4byte	.LASF63
 1921 04e5 01       		.byte	0x1
 1922 04e6 1001     		.2byte	0x110
 1923 04e8 15       		.byte	0x15
 1924 04e9 83000000 		.4byte	0x83
 1925 04ed 02       		.byte	0x2
 1926 04ee 91       		.byte	0x91
 1927 04ef 70       		.sleb128 -16
 1928 04f0 14       		.uleb128 0x14
 1929 04f1 746D7000 		.ascii	"tmp\000"
 1930 04f5 01       		.byte	0x1
 1931 04f6 1001     		.2byte	0x110
 1932 04f8 1C       		.byte	0x1c
 1933 04f9 83000000 		.4byte	0x83
 1934 04fd 02       		.byte	0x2
 1935 04fe 91       		.byte	0x91
 1936 04ff 74       		.sleb128 -12
 1937 0500 00       		.byte	0
 1938 0501 00       		.byte	0
 1939 0502 15       		.uleb128 0x15
 1940 0503 01       		.byte	0x1
 1941 0504 77010000 		.4byte	.LASF64
 1942 0508 01       		.byte	0x1
 1943 0509 F5       		.byte	0xf5
 1944 050a 06       		.byte	0x6
 1945 050b 01       		.byte	0x1
 1946 050c 38020000 		.4byte	.LFB68
 1947 0510 42020000 		.4byte	.LFE68
 1948 0514 38000000 		.4byte	.LLST4
 1949 0518 01       		.byte	0x1
 1950 0519 15       		.uleb128 0x15
 1951 051a 01       		.byte	0x1
 1952 051b 55000000 		.4byte	.LASF65
 1953 051f 01       		.byte	0x1
 1954 0520 ED       		.byte	0xed
 1955 0521 06       		.byte	0x6
 1956 0522 01       		.byte	0x1
 1957 0523 E0010000 		.4byte	.LFB67
 1958 0527 38020000 		.4byte	.LFE67
 1959 052b 58000000 		.4byte	.LLST3
 1960 052f 01       		.byte	0x1
ARM GAS  C:\Users\Aayush\AppData\Local\Temp\ccvWu1Je.s 			page 41


 1961 0530 15       		.uleb128 0x15
 1962 0531 01       		.byte	0x1
 1963 0532 1A010000 		.4byte	.LASF66
 1964 0536 01       		.byte	0x1
 1965 0537 E8       		.byte	0xe8
 1966 0538 06       		.byte	0x6
 1967 0539 01       		.byte	0x1
 1968 053a B4010000 		.4byte	.LFB66
 1969 053e E0010000 		.4byte	.LFE66
 1970 0542 90000000 		.4byte	.LLST2
 1971 0546 01       		.byte	0x1
 1972 0547 16       		.uleb128 0x16
 1973 0548 01       		.byte	0x1
 1974 0549 33020000 		.4byte	.LASF67
 1975 054d 01       		.byte	0x1
 1976 054e E4       		.byte	0xe4
 1977 054f 06       		.byte	0x6
 1978 0550 01       		.byte	0x1
 1979 0551 A4010000 		.4byte	.LFB65
 1980 0555 B4010000 		.4byte	.LFE65
 1981 0559 02       		.byte	0x2
 1982 055a 7D       		.byte	0x7d
 1983 055b 00       		.sleb128 0
 1984 055c 01       		.byte	0x1
 1985 055d 16       		.uleb128 0x16
 1986 055e 01       		.byte	0x1
 1987 055f 51010000 		.4byte	.LASF68
 1988 0563 01       		.byte	0x1
 1989 0564 E0       		.byte	0xe0
 1990 0565 06       		.byte	0x6
 1991 0566 01       		.byte	0x1
 1992 0567 94010000 		.4byte	.LFB64
 1993 056b A4010000 		.4byte	.LFE64
 1994 056f 02       		.byte	0x2
 1995 0570 7D       		.byte	0x7d
 1996 0571 00       		.sleb128 0
 1997 0572 01       		.byte	0x1
 1998 0573 16       		.uleb128 0x16
 1999 0574 01       		.byte	0x1
 2000 0575 9F030000 		.4byte	.LASF69
 2001 0579 01       		.byte	0x1
 2002 057a DC       		.byte	0xdc
 2003 057b 06       		.byte	0x6
 2004 057c 01       		.byte	0x1
 2005 057d 84010000 		.4byte	.LFB63
 2006 0581 94010000 		.4byte	.LFE63
 2007 0585 02       		.byte	0x2
 2008 0586 7D       		.byte	0x7d
 2009 0587 00       		.sleb128 0
 2010 0588 01       		.byte	0x1
 2011 0589 16       		.uleb128 0x16
 2012 058a 01       		.byte	0x1
 2013 058b 00000000 		.4byte	.LASF70
 2014 058f 01       		.byte	0x1
 2015 0590 D8       		.byte	0xd8
 2016 0591 06       		.byte	0x6
 2017 0592 01       		.byte	0x1
ARM GAS  C:\Users\Aayush\AppData\Local\Temp\ccvWu1Je.s 			page 42


 2018 0593 74010000 		.4byte	.LFB62
 2019 0597 84010000 		.4byte	.LFE62
 2020 059b 02       		.byte	0x2
 2021 059c 7D       		.byte	0x7d
 2022 059d 00       		.sleb128 0
 2023 059e 01       		.byte	0x1
 2024 059f 17       		.uleb128 0x17
 2025 05a0 01       		.byte	0x1
 2026 05a1 20040000 		.4byte	.LASF77
 2027 05a5 01       		.byte	0x1
 2028 05a6 BD       		.byte	0xbd
 2029 05a7 09       		.byte	0x9
 2030 05a8 01       		.byte	0x1
 2031 05a9 83000000 		.4byte	0x83
 2032 05ad 0C010000 		.4byte	.LFB61
 2033 05b1 74010000 		.4byte	.LFE61
 2034 05b5 C8000000 		.4byte	.LLST1
 2035 05b9 01       		.byte	0x1
 2036 05ba 17060000 		.4byte	0x617
 2037 05be 18       		.uleb128 0x18
 2038 05bf 7200     		.ascii	"r\000"
 2039 05c1 01       		.byte	0x1
 2040 05c2 BD       		.byte	0xbd
 2041 05c3 18       		.byte	0x18
 2042 05c4 83000000 		.4byte	0x83
 2043 05c8 02       		.byte	0x2
 2044 05c9 91       		.byte	0x91
 2045 05ca 64       		.sleb128 -28
 2046 05cb 10       		.uleb128 0x10
 2047 05cc 4C020000 		.4byte	.LASF71
 2048 05d0 01       		.byte	0x1
 2049 05d1 C1       		.byte	0xc1
 2050 05d2 0D       		.byte	0xd
 2051 05d3 83000000 		.4byte	0x83
 2052 05d7 02       		.byte	0x2
 2053 05d8 91       		.byte	0x91
 2054 05d9 7C       		.sleb128 -4
 2055 05da 19       		.uleb128 0x19
 2056 05db 656E6400 		.ascii	"end\000"
 2057 05df 01       		.byte	0x1
 2058 05e0 C1       		.byte	0xc1
 2059 05e1 16       		.byte	0x16
 2060 05e2 83000000 		.4byte	0x83
 2061 05e6 02       		.byte	0x2
 2062 05e7 91       		.byte	0x91
 2063 05e8 78       		.sleb128 -8
 2064 05e9 19       		.uleb128 0x19
 2065 05ea 6D696400 		.ascii	"mid\000"
 2066 05ee 01       		.byte	0x1
 2067 05ef C1       		.byte	0xc1
 2068 05f0 20       		.byte	0x20
 2069 05f1 83000000 		.4byte	0x83
 2070 05f5 02       		.byte	0x2
 2071 05f6 91       		.byte	0x91
 2072 05f7 70       		.sleb128 -16
 2073 05f8 19       		.uleb128 0x19
 2074 05f9 72657300 		.ascii	"res\000"
ARM GAS  C:\Users\Aayush\AppData\Local\Temp\ccvWu1Je.s 			page 43


 2075 05fd 01       		.byte	0x1
 2076 05fe C1       		.byte	0xc1
 2077 05ff 25       		.byte	0x25
 2078 0600 83000000 		.4byte	0x83
 2079 0604 02       		.byte	0x2
 2080 0605 91       		.byte	0x91
 2081 0606 74       		.sleb128 -12
 2082 0607 19       		.uleb128 0x19
 2083 0608 73717200 		.ascii	"sqr\000"
 2084 060c 01       		.byte	0x1
 2085 060d C1       		.byte	0xc1
 2086 060e 2A       		.byte	0x2a
 2087 060f 83000000 		.4byte	0x83
 2088 0613 02       		.byte	0x2
 2089 0614 91       		.byte	0x91
 2090 0615 6C       		.sleb128 -20
 2091 0616 00       		.byte	0
 2092 0617 1A       		.uleb128 0x1a
 2093 0618 01       		.byte	0x1
 2094 0619 74020000 		.4byte	.LASF72
 2095 061d 01       		.byte	0x1
 2096 061e 99       		.byte	0x99
 2097 061f 05       		.byte	0x5
 2098 0620 25000000 		.4byte	0x25
 2099 0624 00000000 		.4byte	.LFB60
 2100 0628 0C010000 		.4byte	.LFE60
 2101 062c F4000000 		.4byte	.LLST0
 2102 0630 01       		.byte	0x1
 2103 0631 00       		.byte	0
 2104              		.section	.debug_abbrev,"",%progbits
 2105              	.Ldebug_abbrev0:
 2106 0000 01       		.uleb128 0x1
 2107 0001 11       		.uleb128 0x11
 2108 0002 01       		.byte	0x1
 2109 0003 25       		.uleb128 0x25
 2110 0004 0E       		.uleb128 0xe
 2111 0005 13       		.uleb128 0x13
 2112 0006 0B       		.uleb128 0xb
 2113 0007 03       		.uleb128 0x3
 2114 0008 0E       		.uleb128 0xe
 2115 0009 1B       		.uleb128 0x1b
 2116 000a 0E       		.uleb128 0xe
 2117 000b 11       		.uleb128 0x11
 2118 000c 01       		.uleb128 0x1
 2119 000d 12       		.uleb128 0x12
 2120 000e 01       		.uleb128 0x1
 2121 000f 10       		.uleb128 0x10
 2122 0010 06       		.uleb128 0x6
 2123 0011 00       		.byte	0
 2124 0012 00       		.byte	0
 2125 0013 02       		.uleb128 0x2
 2126 0014 24       		.uleb128 0x24
 2127 0015 00       		.byte	0
 2128 0016 0B       		.uleb128 0xb
 2129 0017 0B       		.uleb128 0xb
 2130 0018 3E       		.uleb128 0x3e
 2131 0019 0B       		.uleb128 0xb
ARM GAS  C:\Users\Aayush\AppData\Local\Temp\ccvWu1Je.s 			page 44


 2132 001a 03       		.uleb128 0x3
 2133 001b 08       		.uleb128 0x8
 2134 001c 00       		.byte	0
 2135 001d 00       		.byte	0
 2136 001e 03       		.uleb128 0x3
 2137 001f 24       		.uleb128 0x24
 2138 0020 00       		.byte	0
 2139 0021 0B       		.uleb128 0xb
 2140 0022 0B       		.uleb128 0xb
 2141 0023 3E       		.uleb128 0x3e
 2142 0024 0B       		.uleb128 0xb
 2143 0025 03       		.uleb128 0x3
 2144 0026 0E       		.uleb128 0xe
 2145 0027 00       		.byte	0
 2146 0028 00       		.byte	0
 2147 0029 04       		.uleb128 0x4
 2148 002a 16       		.uleb128 0x16
 2149 002b 00       		.byte	0
 2150 002c 03       		.uleb128 0x3
 2151 002d 0E       		.uleb128 0xe
 2152 002e 3A       		.uleb128 0x3a
 2153 002f 0B       		.uleb128 0xb
 2154 0030 3B       		.uleb128 0x3b
 2155 0031 0B       		.uleb128 0xb
 2156 0032 39       		.uleb128 0x39
 2157 0033 0B       		.uleb128 0xb
 2158 0034 49       		.uleb128 0x49
 2159 0035 13       		.uleb128 0x13
 2160 0036 00       		.byte	0
 2161 0037 00       		.byte	0
 2162 0038 05       		.uleb128 0x5
 2163 0039 04       		.uleb128 0x4
 2164 003a 01       		.byte	0x1
 2165 003b 3E       		.uleb128 0x3e
 2166 003c 0B       		.uleb128 0xb
 2167 003d 0B       		.uleb128 0xb
 2168 003e 0B       		.uleb128 0xb
 2169 003f 49       		.uleb128 0x49
 2170 0040 13       		.uleb128 0x13
 2171 0041 3A       		.uleb128 0x3a
 2172 0042 0B       		.uleb128 0xb
 2173 0043 3B       		.uleb128 0x3b
 2174 0044 05       		.uleb128 0x5
 2175 0045 39       		.uleb128 0x39
 2176 0046 0B       		.uleb128 0xb
 2177 0047 01       		.uleb128 0x1
 2178 0048 13       		.uleb128 0x13
 2179 0049 00       		.byte	0
 2180 004a 00       		.byte	0
 2181 004b 06       		.uleb128 0x6
 2182 004c 28       		.uleb128 0x28
 2183 004d 00       		.byte	0
 2184 004e 03       		.uleb128 0x3
 2185 004f 0E       		.uleb128 0xe
 2186 0050 1C       		.uleb128 0x1c
 2187 0051 0B       		.uleb128 0xb
 2188 0052 00       		.byte	0
ARM GAS  C:\Users\Aayush\AppData\Local\Temp\ccvWu1Je.s 			page 45


 2189 0053 00       		.byte	0
 2190 0054 07       		.uleb128 0x7
 2191 0055 16       		.uleb128 0x16
 2192 0056 00       		.byte	0
 2193 0057 03       		.uleb128 0x3
 2194 0058 0E       		.uleb128 0xe
 2195 0059 3A       		.uleb128 0x3a
 2196 005a 0B       		.uleb128 0xb
 2197 005b 3B       		.uleb128 0x3b
 2198 005c 05       		.uleb128 0x5
 2199 005d 39       		.uleb128 0x39
 2200 005e 0B       		.uleb128 0xb
 2201 005f 49       		.uleb128 0x49
 2202 0060 13       		.uleb128 0x13
 2203 0061 00       		.byte	0
 2204 0062 00       		.byte	0
 2205 0063 08       		.uleb128 0x8
 2206 0064 0F       		.uleb128 0xf
 2207 0065 00       		.byte	0
 2208 0066 0B       		.uleb128 0xb
 2209 0067 0B       		.uleb128 0xb
 2210 0068 49       		.uleb128 0x49
 2211 0069 13       		.uleb128 0x13
 2212 006a 00       		.byte	0
 2213 006b 00       		.byte	0
 2214 006c 09       		.uleb128 0x9
 2215 006d 15       		.uleb128 0x15
 2216 006e 00       		.byte	0
 2217 006f 27       		.uleb128 0x27
 2218 0070 0C       		.uleb128 0xc
 2219 0071 00       		.byte	0
 2220 0072 00       		.byte	0
 2221 0073 0A       		.uleb128 0xa
 2222 0074 04       		.uleb128 0x4
 2223 0075 01       		.byte	0x1
 2224 0076 3E       		.uleb128 0x3e
 2225 0077 0B       		.uleb128 0xb
 2226 0078 0B       		.uleb128 0xb
 2227 0079 0B       		.uleb128 0xb
 2228 007a 49       		.uleb128 0x49
 2229 007b 13       		.uleb128 0x13
 2230 007c 3A       		.uleb128 0x3a
 2231 007d 0B       		.uleb128 0xb
 2232 007e 3B       		.uleb128 0x3b
 2233 007f 0B       		.uleb128 0xb
 2234 0080 39       		.uleb128 0x39
 2235 0081 0B       		.uleb128 0xb
 2236 0082 01       		.uleb128 0x1
 2237 0083 13       		.uleb128 0x13
 2238 0084 00       		.byte	0
 2239 0085 00       		.byte	0
 2240 0086 0B       		.uleb128 0xb
 2241 0087 13       		.uleb128 0x13
 2242 0088 01       		.byte	0x1
 2243 0089 0B       		.uleb128 0xb
 2244 008a 0B       		.uleb128 0xb
 2245 008b 3A       		.uleb128 0x3a
ARM GAS  C:\Users\Aayush\AppData\Local\Temp\ccvWu1Je.s 			page 46


 2246 008c 0B       		.uleb128 0xb
 2247 008d 3B       		.uleb128 0x3b
 2248 008e 0B       		.uleb128 0xb
 2249 008f 39       		.uleb128 0x39
 2250 0090 0B       		.uleb128 0xb
 2251 0091 01       		.uleb128 0x1
 2252 0092 13       		.uleb128 0x13
 2253 0093 00       		.byte	0
 2254 0094 00       		.byte	0
 2255 0095 0C       		.uleb128 0xc
 2256 0096 0D       		.uleb128 0xd
 2257 0097 00       		.byte	0
 2258 0098 03       		.uleb128 0x3
 2259 0099 0E       		.uleb128 0xe
 2260 009a 3A       		.uleb128 0x3a
 2261 009b 0B       		.uleb128 0xb
 2262 009c 3B       		.uleb128 0x3b
 2263 009d 0B       		.uleb128 0xb
 2264 009e 39       		.uleb128 0x39
 2265 009f 0B       		.uleb128 0xb
 2266 00a0 49       		.uleb128 0x49
 2267 00a1 13       		.uleb128 0x13
 2268 00a2 38       		.uleb128 0x38
 2269 00a3 0A       		.uleb128 0xa
 2270 00a4 00       		.byte	0
 2271 00a5 00       		.byte	0
 2272 00a6 0D       		.uleb128 0xd
 2273 00a7 13       		.uleb128 0x13
 2274 00a8 01       		.byte	0x1
 2275 00a9 03       		.uleb128 0x3
 2276 00aa 0E       		.uleb128 0xe
 2277 00ab 0B       		.uleb128 0xb
 2278 00ac 0B       		.uleb128 0xb
 2279 00ad 3A       		.uleb128 0x3a
 2280 00ae 0B       		.uleb128 0xb
 2281 00af 3B       		.uleb128 0x3b
 2282 00b0 0B       		.uleb128 0xb
 2283 00b1 39       		.uleb128 0x39
 2284 00b2 0B       		.uleb128 0xb
 2285 00b3 01       		.uleb128 0x1
 2286 00b4 13       		.uleb128 0x13
 2287 00b5 00       		.byte	0
 2288 00b6 00       		.byte	0
 2289 00b7 0E       		.uleb128 0xe
 2290 00b8 34       		.uleb128 0x34
 2291 00b9 00       		.byte	0
 2292 00ba 03       		.uleb128 0x3
 2293 00bb 0E       		.uleb128 0xe
 2294 00bc 3A       		.uleb128 0x3a
 2295 00bd 0B       		.uleb128 0xb
 2296 00be 3B       		.uleb128 0x3b
 2297 00bf 0B       		.uleb128 0xb
 2298 00c0 39       		.uleb128 0x39
 2299 00c1 0B       		.uleb128 0xb
 2300 00c2 49       		.uleb128 0x49
 2301 00c3 13       		.uleb128 0x13
 2302 00c4 3F       		.uleb128 0x3f
ARM GAS  C:\Users\Aayush\AppData\Local\Temp\ccvWu1Je.s 			page 47


 2303 00c5 0C       		.uleb128 0xc
 2304 00c6 02       		.uleb128 0x2
 2305 00c7 0A       		.uleb128 0xa
 2306 00c8 00       		.byte	0
 2307 00c9 00       		.byte	0
 2308 00ca 0F       		.uleb128 0xf
 2309 00cb 34       		.uleb128 0x34
 2310 00cc 00       		.byte	0
 2311 00cd 03       		.uleb128 0x3
 2312 00ce 08       		.uleb128 0x8
 2313 00cf 3A       		.uleb128 0x3a
 2314 00d0 0B       		.uleb128 0xb
 2315 00d1 3B       		.uleb128 0x3b
 2316 00d2 0B       		.uleb128 0xb
 2317 00d3 39       		.uleb128 0x39
 2318 00d4 0B       		.uleb128 0xb
 2319 00d5 49       		.uleb128 0x49
 2320 00d6 13       		.uleb128 0x13
 2321 00d7 3F       		.uleb128 0x3f
 2322 00d8 0C       		.uleb128 0xc
 2323 00d9 02       		.uleb128 0x2
 2324 00da 0A       		.uleb128 0xa
 2325 00db 00       		.byte	0
 2326 00dc 00       		.byte	0
 2327 00dd 10       		.uleb128 0x10
 2328 00de 34       		.uleb128 0x34
 2329 00df 00       		.byte	0
 2330 00e0 03       		.uleb128 0x3
 2331 00e1 0E       		.uleb128 0xe
 2332 00e2 3A       		.uleb128 0x3a
 2333 00e3 0B       		.uleb128 0xb
 2334 00e4 3B       		.uleb128 0x3b
 2335 00e5 0B       		.uleb128 0xb
 2336 00e6 39       		.uleb128 0x39
 2337 00e7 0B       		.uleb128 0xb
 2338 00e8 49       		.uleb128 0x49
 2339 00e9 13       		.uleb128 0x13
 2340 00ea 02       		.uleb128 0x2
 2341 00eb 0A       		.uleb128 0xa
 2342 00ec 00       		.byte	0
 2343 00ed 00       		.byte	0
 2344 00ee 11       		.uleb128 0x11
 2345 00ef 2E       		.uleb128 0x2e
 2346 00f0 01       		.byte	0x1
 2347 00f1 3F       		.uleb128 0x3f
 2348 00f2 0C       		.uleb128 0xc
 2349 00f3 03       		.uleb128 0x3
 2350 00f4 0E       		.uleb128 0xe
 2351 00f5 3A       		.uleb128 0x3a
 2352 00f6 0B       		.uleb128 0xb
 2353 00f7 3B       		.uleb128 0x3b
 2354 00f8 0B       		.uleb128 0xb
 2355 00f9 39       		.uleb128 0x39
 2356 00fa 0B       		.uleb128 0xb
 2357 00fb 27       		.uleb128 0x27
 2358 00fc 0C       		.uleb128 0xc
 2359 00fd 11       		.uleb128 0x11
ARM GAS  C:\Users\Aayush\AppData\Local\Temp\ccvWu1Je.s 			page 48


 2360 00fe 01       		.uleb128 0x1
 2361 00ff 12       		.uleb128 0x12
 2362 0100 01       		.uleb128 0x1
 2363 0101 40       		.uleb128 0x40
 2364 0102 06       		.uleb128 0x6
 2365 0103 9642     		.uleb128 0x2116
 2366 0105 0C       		.uleb128 0xc
 2367 0106 01       		.uleb128 0x1
 2368 0107 13       		.uleb128 0x13
 2369 0108 00       		.byte	0
 2370 0109 00       		.byte	0
 2371 010a 12       		.uleb128 0x12
 2372 010b 0B       		.uleb128 0xb
 2373 010c 01       		.byte	0x1
 2374 010d 11       		.uleb128 0x11
 2375 010e 01       		.uleb128 0x1
 2376 010f 12       		.uleb128 0x12
 2377 0110 01       		.uleb128 0x1
 2378 0111 00       		.byte	0
 2379 0112 00       		.byte	0
 2380 0113 13       		.uleb128 0x13
 2381 0114 34       		.uleb128 0x34
 2382 0115 00       		.byte	0
 2383 0116 03       		.uleb128 0x3
 2384 0117 0E       		.uleb128 0xe
 2385 0118 3A       		.uleb128 0x3a
 2386 0119 0B       		.uleb128 0xb
 2387 011a 3B       		.uleb128 0x3b
 2388 011b 05       		.uleb128 0x5
 2389 011c 39       		.uleb128 0x39
 2390 011d 0B       		.uleb128 0xb
 2391 011e 49       		.uleb128 0x49
 2392 011f 13       		.uleb128 0x13
 2393 0120 02       		.uleb128 0x2
 2394 0121 0A       		.uleb128 0xa
 2395 0122 00       		.byte	0
 2396 0123 00       		.byte	0
 2397 0124 14       		.uleb128 0x14
 2398 0125 34       		.uleb128 0x34
 2399 0126 00       		.byte	0
 2400 0127 03       		.uleb128 0x3
 2401 0128 08       		.uleb128 0x8
 2402 0129 3A       		.uleb128 0x3a
 2403 012a 0B       		.uleb128 0xb
 2404 012b 3B       		.uleb128 0x3b
 2405 012c 05       		.uleb128 0x5
 2406 012d 39       		.uleb128 0x39
 2407 012e 0B       		.uleb128 0xb
 2408 012f 49       		.uleb128 0x49
 2409 0130 13       		.uleb128 0x13
 2410 0131 02       		.uleb128 0x2
 2411 0132 0A       		.uleb128 0xa
 2412 0133 00       		.byte	0
 2413 0134 00       		.byte	0
 2414 0135 15       		.uleb128 0x15
 2415 0136 2E       		.uleb128 0x2e
 2416 0137 00       		.byte	0
ARM GAS  C:\Users\Aayush\AppData\Local\Temp\ccvWu1Je.s 			page 49


 2417 0138 3F       		.uleb128 0x3f
 2418 0139 0C       		.uleb128 0xc
 2419 013a 03       		.uleb128 0x3
 2420 013b 0E       		.uleb128 0xe
 2421 013c 3A       		.uleb128 0x3a
 2422 013d 0B       		.uleb128 0xb
 2423 013e 3B       		.uleb128 0x3b
 2424 013f 0B       		.uleb128 0xb
 2425 0140 39       		.uleb128 0x39
 2426 0141 0B       		.uleb128 0xb
 2427 0142 27       		.uleb128 0x27
 2428 0143 0C       		.uleb128 0xc
 2429 0144 11       		.uleb128 0x11
 2430 0145 01       		.uleb128 0x1
 2431 0146 12       		.uleb128 0x12
 2432 0147 01       		.uleb128 0x1
 2433 0148 40       		.uleb128 0x40
 2434 0149 06       		.uleb128 0x6
 2435 014a 9642     		.uleb128 0x2116
 2436 014c 0C       		.uleb128 0xc
 2437 014d 00       		.byte	0
 2438 014e 00       		.byte	0
 2439 014f 16       		.uleb128 0x16
 2440 0150 2E       		.uleb128 0x2e
 2441 0151 00       		.byte	0
 2442 0152 3F       		.uleb128 0x3f
 2443 0153 0C       		.uleb128 0xc
 2444 0154 03       		.uleb128 0x3
 2445 0155 0E       		.uleb128 0xe
 2446 0156 3A       		.uleb128 0x3a
 2447 0157 0B       		.uleb128 0xb
 2448 0158 3B       		.uleb128 0x3b
 2449 0159 0B       		.uleb128 0xb
 2450 015a 39       		.uleb128 0x39
 2451 015b 0B       		.uleb128 0xb
 2452 015c 27       		.uleb128 0x27
 2453 015d 0C       		.uleb128 0xc
 2454 015e 11       		.uleb128 0x11
 2455 015f 01       		.uleb128 0x1
 2456 0160 12       		.uleb128 0x12
 2457 0161 01       		.uleb128 0x1
 2458 0162 40       		.uleb128 0x40
 2459 0163 0A       		.uleb128 0xa
 2460 0164 9742     		.uleb128 0x2117
 2461 0166 0C       		.uleb128 0xc
 2462 0167 00       		.byte	0
 2463 0168 00       		.byte	0
 2464 0169 17       		.uleb128 0x17
 2465 016a 2E       		.uleb128 0x2e
 2466 016b 01       		.byte	0x1
 2467 016c 3F       		.uleb128 0x3f
 2468 016d 0C       		.uleb128 0xc
 2469 016e 03       		.uleb128 0x3
 2470 016f 0E       		.uleb128 0xe
 2471 0170 3A       		.uleb128 0x3a
 2472 0171 0B       		.uleb128 0xb
 2473 0172 3B       		.uleb128 0x3b
ARM GAS  C:\Users\Aayush\AppData\Local\Temp\ccvWu1Je.s 			page 50


 2474 0173 0B       		.uleb128 0xb
 2475 0174 39       		.uleb128 0x39
 2476 0175 0B       		.uleb128 0xb
 2477 0176 27       		.uleb128 0x27
 2478 0177 0C       		.uleb128 0xc
 2479 0178 49       		.uleb128 0x49
 2480 0179 13       		.uleb128 0x13
 2481 017a 11       		.uleb128 0x11
 2482 017b 01       		.uleb128 0x1
 2483 017c 12       		.uleb128 0x12
 2484 017d 01       		.uleb128 0x1
 2485 017e 40       		.uleb128 0x40
 2486 017f 06       		.uleb128 0x6
 2487 0180 9742     		.uleb128 0x2117
 2488 0182 0C       		.uleb128 0xc
 2489 0183 01       		.uleb128 0x1
 2490 0184 13       		.uleb128 0x13
 2491 0185 00       		.byte	0
 2492 0186 00       		.byte	0
 2493 0187 18       		.uleb128 0x18
 2494 0188 05       		.uleb128 0x5
 2495 0189 00       		.byte	0
 2496 018a 03       		.uleb128 0x3
 2497 018b 08       		.uleb128 0x8
 2498 018c 3A       		.uleb128 0x3a
 2499 018d 0B       		.uleb128 0xb
 2500 018e 3B       		.uleb128 0x3b
 2501 018f 0B       		.uleb128 0xb
 2502 0190 39       		.uleb128 0x39
 2503 0191 0B       		.uleb128 0xb
 2504 0192 49       		.uleb128 0x49
 2505 0193 13       		.uleb128 0x13
 2506 0194 02       		.uleb128 0x2
 2507 0195 0A       		.uleb128 0xa
 2508 0196 00       		.byte	0
 2509 0197 00       		.byte	0
 2510 0198 19       		.uleb128 0x19
 2511 0199 34       		.uleb128 0x34
 2512 019a 00       		.byte	0
 2513 019b 03       		.uleb128 0x3
 2514 019c 08       		.uleb128 0x8
 2515 019d 3A       		.uleb128 0x3a
 2516 019e 0B       		.uleb128 0xb
 2517 019f 3B       		.uleb128 0x3b
 2518 01a0 0B       		.uleb128 0xb
 2519 01a1 39       		.uleb128 0x39
 2520 01a2 0B       		.uleb128 0xb
 2521 01a3 49       		.uleb128 0x49
 2522 01a4 13       		.uleb128 0x13
 2523 01a5 02       		.uleb128 0x2
 2524 01a6 0A       		.uleb128 0xa
 2525 01a7 00       		.byte	0
 2526 01a8 00       		.byte	0
 2527 01a9 1A       		.uleb128 0x1a
 2528 01aa 2E       		.uleb128 0x2e
 2529 01ab 00       		.byte	0
 2530 01ac 3F       		.uleb128 0x3f
ARM GAS  C:\Users\Aayush\AppData\Local\Temp\ccvWu1Je.s 			page 51


 2531 01ad 0C       		.uleb128 0xc
 2532 01ae 03       		.uleb128 0x3
 2533 01af 0E       		.uleb128 0xe
 2534 01b0 3A       		.uleb128 0x3a
 2535 01b1 0B       		.uleb128 0xb
 2536 01b2 3B       		.uleb128 0x3b
 2537 01b3 0B       		.uleb128 0xb
 2538 01b4 39       		.uleb128 0x39
 2539 01b5 0B       		.uleb128 0xb
 2540 01b6 49       		.uleb128 0x49
 2541 01b7 13       		.uleb128 0x13
 2542 01b8 11       		.uleb128 0x11
 2543 01b9 01       		.uleb128 0x1
 2544 01ba 12       		.uleb128 0x12
 2545 01bb 01       		.uleb128 0x1
 2546 01bc 40       		.uleb128 0x40
 2547 01bd 06       		.uleb128 0x6
 2548 01be 9642     		.uleb128 0x2116
 2549 01c0 0C       		.uleb128 0xc
 2550 01c1 00       		.byte	0
 2551 01c2 00       		.byte	0
 2552 01c3 00       		.byte	0
 2553              		.section	.debug_loc,"",%progbits
 2554              	.Ldebug_loc0:
 2555              	.LLST5:
 2556 0000 42020000 		.4byte	.LFB69-.Ltext0
 2557 0004 44020000 		.4byte	.LCFI10-.Ltext0
 2558 0008 0200     		.2byte	0x2
 2559 000a 7D       		.byte	0x7d
 2560 000b 00       		.sleb128 0
 2561 000c 44020000 		.4byte	.LCFI10-.Ltext0
 2562 0010 46020000 		.4byte	.LCFI11-.Ltext0
 2563 0014 0200     		.2byte	0x2
 2564 0016 7D       		.byte	0x7d
 2565 0017 04       		.sleb128 4
 2566 0018 46020000 		.4byte	.LCFI11-.Ltext0
 2567 001c 54030000 		.4byte	.LCFI12-.Ltext0
 2568 0020 0200     		.2byte	0x2
 2569 0022 7D       		.byte	0x7d
 2570 0023 10       		.sleb128 16
 2571 0024 54030000 		.4byte	.LCFI12-.Ltext0
 2572 0028 74030000 		.4byte	.LFE69-.Ltext0
 2573 002c 0200     		.2byte	0x2
 2574 002e 7D       		.byte	0x7d
 2575 002f 04       		.sleb128 4
 2576 0030 00000000 		.4byte	0
 2577 0034 00000000 		.4byte	0
 2578              	.LLST4:
 2579 0038 38020000 		.4byte	.LFB68-.Ltext0
 2580 003c 3A020000 		.4byte	.LCFI9-.Ltext0
 2581 0040 0200     		.2byte	0x2
 2582 0042 7D       		.byte	0x7d
 2583 0043 00       		.sleb128 0
 2584 0044 3A020000 		.4byte	.LCFI9-.Ltext0
 2585 0048 42020000 		.4byte	.LFE68-.Ltext0
 2586 004c 0200     		.2byte	0x2
 2587 004e 7D       		.byte	0x7d
ARM GAS  C:\Users\Aayush\AppData\Local\Temp\ccvWu1Je.s 			page 52


 2588 004f 08       		.sleb128 8
 2589 0050 00000000 		.4byte	0
 2590 0054 00000000 		.4byte	0
 2591              	.LLST3:
 2592 0058 E0010000 		.4byte	.LFB67-.Ltext0
 2593 005c E2010000 		.4byte	.LCFI6-.Ltext0
 2594 0060 0200     		.2byte	0x2
 2595 0062 7D       		.byte	0x7d
 2596 0063 00       		.sleb128 0
 2597 0064 E2010000 		.4byte	.LCFI6-.Ltext0
 2598 0068 E4010000 		.4byte	.LCFI7-.Ltext0
 2599 006c 0200     		.2byte	0x2
 2600 006e 7D       		.byte	0x7d
 2601 006f 04       		.sleb128 4
 2602 0070 E4010000 		.4byte	.LCFI7-.Ltext0
 2603 0074 2A020000 		.4byte	.LCFI8-.Ltext0
 2604 0078 0200     		.2byte	0x2
 2605 007a 7D       		.byte	0x7d
 2606 007b 10       		.sleb128 16
 2607 007c 2A020000 		.4byte	.LCFI8-.Ltext0
 2608 0080 38020000 		.4byte	.LFE67-.Ltext0
 2609 0084 0200     		.2byte	0x2
 2610 0086 7D       		.byte	0x7d
 2611 0087 04       		.sleb128 4
 2612 0088 00000000 		.4byte	0
 2613 008c 00000000 		.4byte	0
 2614              	.LLST2:
 2615 0090 B4010000 		.4byte	.LFB66-.Ltext0
 2616 0094 B6010000 		.4byte	.LCFI3-.Ltext0
 2617 0098 0200     		.2byte	0x2
 2618 009a 7D       		.byte	0x7d
 2619 009b 00       		.sleb128 0
 2620 009c B6010000 		.4byte	.LCFI3-.Ltext0
 2621 00a0 B8010000 		.4byte	.LCFI4-.Ltext0
 2622 00a4 0200     		.2byte	0x2
 2623 00a6 7D       		.byte	0x7d
 2624 00a7 04       		.sleb128 4
 2625 00a8 B8010000 		.4byte	.LCFI4-.Ltext0
 2626 00ac D4010000 		.4byte	.LCFI5-.Ltext0
 2627 00b0 0200     		.2byte	0x2
 2628 00b2 7D       		.byte	0x7d
 2629 00b3 10       		.sleb128 16
 2630 00b4 D4010000 		.4byte	.LCFI5-.Ltext0
 2631 00b8 E0010000 		.4byte	.LFE66-.Ltext0
 2632 00bc 0200     		.2byte	0x2
 2633 00be 7D       		.byte	0x7d
 2634 00bf 04       		.sleb128 4
 2635 00c0 00000000 		.4byte	0
 2636 00c4 00000000 		.4byte	0
 2637              	.LLST1:
 2638 00c8 0C010000 		.4byte	.LFB61-.Ltext0
 2639 00cc 0E010000 		.4byte	.LCFI1-.Ltext0
 2640 00d0 0200     		.2byte	0x2
 2641 00d2 7D       		.byte	0x7d
 2642 00d3 00       		.sleb128 0
 2643 00d4 0E010000 		.4byte	.LCFI1-.Ltext0
 2644 00d8 72010000 		.4byte	.LCFI2-.Ltext0
ARM GAS  C:\Users\Aayush\AppData\Local\Temp\ccvWu1Je.s 			page 53


 2645 00dc 0200     		.2byte	0x2
 2646 00de 7D       		.byte	0x7d
 2647 00df 20       		.sleb128 32
 2648 00e0 72010000 		.4byte	.LCFI2-.Ltext0
 2649 00e4 74010000 		.4byte	.LFE61-.Ltext0
 2650 00e8 0200     		.2byte	0x2
 2651 00ea 7D       		.byte	0x7d
 2652 00eb 00       		.sleb128 0
 2653 00ec 00000000 		.4byte	0
 2654 00f0 00000000 		.4byte	0
 2655              	.LLST0:
 2656 00f4 00000000 		.4byte	.LFB60-.Ltext0
 2657 00f8 02000000 		.4byte	.LCFI0-.Ltext0
 2658 00fc 0200     		.2byte	0x2
 2659 00fe 7D       		.byte	0x7d
 2660 00ff 00       		.sleb128 0
 2661 0100 02000000 		.4byte	.LCFI0-.Ltext0
 2662 0104 0C010000 		.4byte	.LFE60-.Ltext0
 2663 0108 0200     		.2byte	0x2
 2664 010a 7D       		.byte	0x7d
 2665 010b 08       		.sleb128 8
 2666 010c 00000000 		.4byte	0
 2667 0110 00000000 		.4byte	0
 2668              		.section	.debug_aranges,"",%progbits
 2669 0000 1C000000 		.4byte	0x1c
 2670 0004 0200     		.2byte	0x2
 2671 0006 00000000 		.4byte	.Ldebug_info0
 2672 000a 04       		.byte	0x4
 2673 000b 00       		.byte	0
 2674 000c 0000     		.2byte	0
 2675 000e 0000     		.2byte	0
 2676 0010 00000000 		.4byte	.Ltext0
 2677 0014 74030000 		.4byte	.Letext0-.Ltext0
 2678 0018 00000000 		.4byte	0
 2679 001c 00000000 		.4byte	0
 2680              		.section	.debug_line,"",%progbits
 2681              	.Ldebug_line0:
 2682 0000 DF010000 		.section	.debug_str,"MS",%progbits,1
 2682      03009C00 
 2682      00000201 
 2682      FB0E0D00 
 2682      01010101 
 2683              	.LASF70:
 2684 0000 66726565 		.ascii	"freeHandBtnEventHandler\000"
 2684      48616E64 
 2684      42746E45 
 2684      76656E74 
 2684      48616E64 
 2685              	.LASF58:
 2686 0018 6C696E65 		.ascii	"lineBtnWidget\000"
 2686      42746E57 
 2686      69646765 
 2686      7400
 2687              	.LASF61:
 2688 0026 636C6561 		.ascii	"clearscreenBtnWidget\000"
 2688      72736372 
 2688      65656E42 
ARM GAS  C:\Users\Aayush\AppData\Local\Temp\ccvWu1Je.s 			page 54


 2688      746E5769 
 2688      64676574 
 2689              	.LASF15:
 2690 003b 656E426F 		.ascii	"enBooleanTrue\000"
 2690      6F6C6561 
 2690      6E547275 
 2690      6500
 2691              	.LASF42:
 2692 0049 666F6E74 		.ascii	"font\000"
 2692      00
 2693              	.LASF9:
 2694 004e 50466279 		.ascii	"PFbyte\000"
 2694      746500
 2695              	.LASF65:
 2696 0055 686F6D65 		.ascii	"homeScreen\000"
 2696      53637265 
 2696      656E00
 2697              	.LASF33:
 2698 0060 6261636B 		.ascii	"backgroundColor\000"
 2698      67726F75 
 2698      6E64436F 
 2698      6C6F7200 
 2699              	.LASF14:
 2700 0070 656E426F 		.ascii	"enBooleanFalse\000"
 2700      6F6C6561 
 2700      6E46616C 
 2700      736500
 2701              	.LASF10:
 2702 007f 5046776F 		.ascii	"PFword\000"
 2702      726400
 2703              	.LASF35:
 2704 0086 57696E64 		.ascii	"WindowCfg\000"
 2704      6F774366 
 2704      6700
 2705              	.LASF37:
 2706 0090 6F6E6553 		.ascii	"oneShotHandler\000"
 2706      686F7448 
 2706      616E646C 
 2706      657200
 2707              	.LASF43:
 2708 009f 666F6E74 		.ascii	"fontColor\000"
 2708      436F6C6F 
 2708      7200
 2709              	.LASF3:
 2710 00a9 73686F72 		.ascii	"short int\000"
 2710      7420696E 
 2710      7400
 2711              	.LASF38:
 2712 00b3 43616E76 		.ascii	"CanvasCfg\000"
 2712      61734366 
 2712      6700
 2713              	.LASF57:
 2714 00bd 66726565 		.ascii	"freeHandBtnWidget\000"
 2714      48616E64 
 2714      42746E57 
 2714      69646765 
 2714      7400
ARM GAS  C:\Users\Aayush\AppData\Local\Temp\ccvWu1Je.s 			page 55


 2715              	.LASF26:
 2716 00cf 77696474 		.ascii	"width\000"
 2716      6800
 2717              	.LASF34:
 2718 00d5 626F7264 		.ascii	"border\000"
 2718      657200
 2719              	.LASF12:
 2720 00dc 666C6F61 		.ascii	"float\000"
 2720      7400
 2721              	.LASF19:
 2722 00e2 656E4766 		.ascii	"enGfxFont_8X8\000"
 2722      78466F6E 
 2722      745F3858 
 2722      3800
 2723              	.LASF39:
 2724 00f0 63616E76 		.ascii	"canvasAttr\000"
 2724      61734174 
 2724      747200
 2725              	.LASF11:
 2726 00fb 50466477 		.ascii	"PFdword\000"
 2726      6F726400 
 2727              	.LASF5:
 2728 0103 6C6F6E67 		.ascii	"long int\000"
 2728      20696E74 
 2728      00
 2729              	.LASF62:
 2730 010c 73617665 		.ascii	"saveBtnWidget\000"
 2730      42746E57 
 2730      69646765 
 2730      7400
 2731              	.LASF66:
 2732 011a 73617665 		.ascii	"saveBtnEventHandler\000"
 2732      42746E45 
 2732      76656E74 
 2732      48616E64 
 2732      6C657200 
 2733              	.LASF25:
 2734 012e 436F6F72 		.ascii	"Coordinate\000"
 2734      64696E61 
 2734      746500
 2735              	.LASF16:
 2736 0139 5046456E 		.ascii	"PFEnBoolean\000"
 2736      426F6F6C 
 2736      65616E00 
 2737              	.LASF23:
 2738 0145 7856616C 		.ascii	"xValue\000"
 2738      756500
 2739              	.LASF30:
 2740 014c 6E616D65 		.ascii	"name\000"
 2740      00
 2741              	.LASF68:
 2742 0151 63697263 		.ascii	"circleBtnEventHandler\000"
 2742      6C654274 
 2742      6E457665 
 2742      6E744861 
 2742      6E646C65 
 2743              	.LASF21:
ARM GAS  C:\Users\Aayush\AppData\Local\Temp\ccvWu1Je.s 			page 56


 2744 0167 656E4766 		.ascii	"enGfxFont_16X24\000"
 2744      78466F6E 
 2744      745F3136 
 2744      58323400 
 2745              	.LASF64:
 2746 0177 636C6561 		.ascii	"clearscreenBtnEventHandler\000"
 2746      72736372 
 2746      65656E42 
 2746      746E4576 
 2746      656E7448 
 2747              	.LASF2:
 2748 0192 756E7369 		.ascii	"unsigned char\000"
 2748      676E6564 
 2748      20636861 
 2748      7200
 2749              	.LASF54:
 2750 01a0 77696467 		.ascii	"widget6ID\000"
 2750      65743649 
 2750      4400
 2751              	.LASF20:
 2752 01aa 656E4766 		.ascii	"enGfxFont_8X16\000"
 2752      78466F6E 
 2752      745F3858 
 2752      313600
 2753              	.LASF1:
 2754 01b9 7369676E 		.ascii	"signed char\000"
 2754      65642063 
 2754      68617200 
 2755              	.LASF8:
 2756 01c5 6C6F6E67 		.ascii	"long long unsigned int\000"
 2756      206C6F6E 
 2756      6720756E 
 2756      7369676E 
 2756      65642069 
 2757              	.LASF40:
 2758 01dc 6576656E 		.ascii	"eventHandler\000"
 2758      7448616E 
 2758      646C6572 
 2758      00
 2759              	.LASF75:
 2760 01e9 443A5C46 		.ascii	"D:\\Final year project\\Paint Application\\UserInte"
 2760      696E616C 
 2760      20796561 
 2760      72207072 
 2760      6F6A6563 
 2761 0219 72666163 		.ascii	"rface\000"
 2761      6500
 2762              	.LASF27:
 2763 021f 68656967 		.ascii	"height\000"
 2763      687400
 2764              	.LASF0:
 2765 0226 756E7369 		.ascii	"unsigned int\000"
 2765      676E6564 
 2765      20696E74 
 2765      00
 2766              	.LASF67:
 2767 0233 72656374 		.ascii	"rectangleBtnEventHandler\000"
ARM GAS  C:\Users\Aayush\AppData\Local\Temp\ccvWu1Je.s 			page 57


 2767      616E676C 
 2767      6542746E 
 2767      4576656E 
 2767      7448616E 
 2768              	.LASF71:
 2769 024c 73746172 		.ascii	"start\000"
 2769      7400
 2770              	.LASF4:
 2771 0252 73686F72 		.ascii	"short unsigned int\000"
 2771      7420756E 
 2771      7369676E 
 2771      65642069 
 2771      6E7400
 2772              	.LASF53:
 2773 0265 77696467 		.ascii	"widget5ID\000"
 2773      65743549 
 2773      4400
 2774              	.LASF18:
 2775 026f 63686172 		.ascii	"char\000"
 2775      00
 2776              	.LASF72:
 2777 0274 6D61696E 		.ascii	"main\000"
 2777      00
 2778              	.LASF31:
 2779 0279 746F704C 		.ascii	"topLeft\000"
 2779      65667400 
 2780              	.LASF36:
 2781 0281 77696E64 		.ascii	"windowAttr\000"
 2781      6F774174 
 2781      747200
 2782              	.LASF17:
 2783 028c 50466361 		.ascii	"PFcallback\000"
 2783      6C6C6261 
 2783      636B00
 2784              	.LASF44:
 2785 0297 696D6167 		.ascii	"image1\000"
 2785      653100
 2786              	.LASF32:
 2787 029e 73697A65 		.ascii	"size\000"
 2787      00
 2788              	.LASF59:
 2789 02a3 63697263 		.ascii	"circleBtnWidget\000"
 2789      6C654274 
 2789      6E576964 
 2789      67657400 
 2790              	.LASF52:
 2791 02b3 77696467 		.ascii	"widget4ID\000"
 2791      65743449 
 2791      4400
 2792              	.LASF74:
 2793 02bd 6D61696E 		.ascii	"main.c\000"
 2793      2E6300
 2794              	.LASF6:
 2795 02c4 6C6F6E67 		.ascii	"long unsigned int\000"
 2795      20756E73 
 2795      69676E65 
 2795      6420696E 
ARM GAS  C:\Users\Aayush\AppData\Local\Temp\ccvWu1Je.s 			page 58


 2795      7400
 2796              	.LASF48:
 2797 02d6 63616E76 		.ascii	"canvasID\000"
 2797      61734944 
 2797      00
 2798              	.LASF56:
 2799 02df 43616E76 		.ascii	"Canvas\000"
 2799      617300
 2800              	.LASF47:
 2801 02e6 77696E64 		.ascii	"windowID\000"
 2801      6F774944 
 2801      00
 2802              	.LASF73:
 2803 02ef 474E5520 		.ascii	"GNU C99 10.3.1 20210824 (release) -mcpu=cortex-m3 -"
 2803      43393920 
 2803      31302E33 
 2803      2E312032 
 2803      30323130 
 2804 0322 6D746875 		.ascii	"mthumb -mfloat-abi=soft -march=armv7-m -gdwarf-2 -O"
 2804      6D62202D 
 2804      6D666C6F 
 2804      61742D61 
 2804      62693D73 
 2805 0355 30202D73 		.ascii	"0 -std=gnu99 -fomit-frame-pointer\000"
 2805      74643D67 
 2805      6E753939 
 2805      202D666F 
 2805      6D69742D 
 2806              	.LASF76:
 2807 0377 63616E76 		.ascii	"canvasEventHandler\000"
 2807      61734576 
 2807      656E7448 
 2807      616E646C 
 2807      657200
 2808              	.LASF22:
 2809 038a 456E4766 		.ascii	"EnGfxFonts\000"
 2809      78466F6E 
 2809      747300
 2810              	.LASF51:
 2811 0395 77696467 		.ascii	"widget3ID\000"
 2811      65743349 
 2811      4400
 2812              	.LASF69:
 2813 039f 6C696E65 		.ascii	"lineBtnEventHandler\000"
 2813      42746E45 
 2813      76656E74 
 2813      48616E64 
 2813      6C657200 
 2814              	.LASF50:
 2815 03b3 77696467 		.ascii	"widget2ID\000"
 2815      65743249 
 2815      4400
 2816              	.LASF46:
 2817 03bd 77696467 		.ascii	"widgetAttr\000"
 2817      65744174 
 2817      747200
 2818              	.LASF45:
ARM GAS  C:\Users\Aayush\AppData\Local\Temp\ccvWu1Je.s 			page 59


 2819 03c8 57696467 		.ascii	"WidgetCfg\000"
 2819      65744366 
 2819      6700
 2820              	.LASF28:
 2821 03d2 44696D65 		.ascii	"Dimension\000"
 2821      6E73696F 
 2821      6E00
 2822              	.LASF13:
 2823 03dc 646F7562 		.ascii	"double\000"
 2823      6C6500
 2824              	.LASF41:
 2825 03e3 64697370 		.ascii	"displayString\000"
 2825      6C617953 
 2825      7472696E 
 2825      6700
 2826              	.LASF63:
 2827 03f1 72616469 		.ascii	"radius\000"
 2827      757300
 2828              	.LASF24:
 2829 03f8 7956616C 		.ascii	"yValue\000"
 2829      756500
 2830              	.LASF55:
 2831 03ff 77696E64 		.ascii	"window1\000"
 2831      6F773100 
 2832              	.LASF49:
 2833 0407 77696467 		.ascii	"widget1ID\000"
 2833      65743149 
 2833      4400
 2834              	.LASF29:
 2835 0411 636F6D6D 		.ascii	"commAttributes\000"
 2835      41747472 
 2835      69627574 
 2835      657300
 2836              	.LASF77:
 2837 0420 7371726F 		.ascii	"sqroot\000"
 2837      6F7400
 2838              	.LASF60:
 2839 0427 72656374 		.ascii	"rectangleBtnWidget\000"
 2839      616E676C 
 2839      6542746E 
 2839      57696467 
 2839      657400
 2840              	.LASF7:
 2841 043a 6C6F6E67 		.ascii	"long long int\000"
 2841      206C6F6E 
 2841      6720696E 
 2841      7400
 2842              		.ident	"GCC: (GNU Arm Embedded Toolchain 10.3-2021.10) 10.3.1 20210824 (release)"
ARM GAS  C:\Users\Aayush\AppData\Local\Temp\ccvWu1Je.s 			page 60


DEFINED SYMBOLS
                            *ABS*:00000000 main.c
C:\Users\Aayush\AppData\Local\Temp\ccvWu1Je.s:61     .bss:00000000 windowID
C:\Users\Aayush\AppData\Local\Temp\ccvWu1Je.s:62     .bss:00000000 $d
C:\Users\Aayush\AppData\Local\Temp\ccvWu1Je.s:66     .bss:00000001 canvasID
C:\Users\Aayush\AppData\Local\Temp\ccvWu1Je.s:71     .bss:00000002 widget1ID
C:\Users\Aayush\AppData\Local\Temp\ccvWu1Je.s:76     .bss:00000003 widget2ID
C:\Users\Aayush\AppData\Local\Temp\ccvWu1Je.s:81     .bss:00000004 widget3ID
C:\Users\Aayush\AppData\Local\Temp\ccvWu1Je.s:86     .bss:00000005 widget4ID
C:\Users\Aayush\AppData\Local\Temp\ccvWu1Je.s:91     .bss:00000006 widget5ID
C:\Users\Aayush\AppData\Local\Temp\ccvWu1Je.s:96     .bss:00000007 widget6ID
C:\Users\Aayush\AppData\Local\Temp\ccvWu1Je.s:102    .bss:00000008 x
C:\Users\Aayush\AppData\Local\Temp\ccvWu1Je.s:108    .bss:0000000c y
C:\Users\Aayush\AppData\Local\Temp\ccvWu1Je.s:114    .bss:00000010 a
C:\Users\Aayush\AppData\Local\Temp\ccvWu1Je.s:120    .bss:00000014 b
C:\Users\Aayush\AppData\Local\Temp\ccvWu1Je.s:126    .bss:00000018 c
C:\Users\Aayush\AppData\Local\Temp\ccvWu1Je.s:132    .bss:0000001c d
C:\Users\Aayush\AppData\Local\Temp\ccvWu1Je.s:139    .data:00000000 val
C:\Users\Aayush\AppData\Local\Temp\ccvWu1Je.s:136    .data:00000000 $d
C:\Users\Aayush\AppData\Local\Temp\ccvWu1Je.s:146    .bss:00000020 idx
C:\Users\Aayush\AppData\Local\Temp\ccvWu1Je.s:149    .rodata:00000000 $d
C:\Users\Aayush\AppData\Local\Temp\ccvWu1Je.s:156    .data:00000004 window1
C:\Users\Aayush\AppData\Local\Temp\ccvWu1Je.s:188    .data:00000018 Canvas
C:\Users\Aayush\AppData\Local\Temp\ccvWu1Je.s:1006   .text:00000242 canvasEventHandler
C:\Users\Aayush\AppData\Local\Temp\ccvWu1Je.s:229    .data:00000038 freeHandBtnWidget
C:\Users\Aayush\AppData\Local\Temp\ccvWu1Je.s:734    .text:00000174 freeHandBtnEventHandler
C:\Users\Aayush\AppData\Local\Temp\ccvWu1Je.s:267    .data:00000058 lineBtnWidget
C:\Users\Aayush\AppData\Local\Temp\ccvWu1Je.s:763    .text:00000184 lineBtnEventHandler
C:\Users\Aayush\AppData\Local\Temp\ccvWu1Je.s:305    .data:00000078 circleBtnWidget
C:\Users\Aayush\AppData\Local\Temp\ccvWu1Je.s:792    .text:00000194 circleBtnEventHandler
C:\Users\Aayush\AppData\Local\Temp\ccvWu1Je.s:343    .data:00000098 rectangleBtnWidget
C:\Users\Aayush\AppData\Local\Temp\ccvWu1Je.s:821    .text:000001a4 rectangleBtnEventHandler
C:\Users\Aayush\AppData\Local\Temp\ccvWu1Je.s:384    .data:000000b8 clearscreenBtnWidget
C:\Users\Aayush\AppData\Local\Temp\ccvWu1Je.s:979    .text:00000238 clearscreenBtnEventHandler
C:\Users\Aayush\AppData\Local\Temp\ccvWu1Je.s:422    .data:000000d8 saveBtnWidget
C:\Users\Aayush\AppData\Local\Temp\ccvWu1Je.s:855    .text:000001b4 saveBtnEventHandler
C:\Users\Aayush\AppData\Local\Temp\ccvWu1Je.s:453    .text:00000000 $t
C:\Users\Aayush\AppData\Local\Temp\ccvWu1Je.s:459    .text:00000000 main
C:\Users\Aayush\AppData\Local\Temp\ccvWu1Je.s:907    .text:000001e0 homeScreen
C:\Users\Aayush\AppData\Local\Temp\ccvWu1Je.s:590    .text:000000bc $d
C:\Users\Aayush\AppData\Local\Temp\ccvWu1Je.s:613    .text:0000010c $t
C:\Users\Aayush\AppData\Local\Temp\ccvWu1Je.s:619    .text:0000010c sqroot
C:\Users\Aayush\AppData\Local\Temp\ccvWu1Je.s:753    .text:00000180 $d
C:\Users\Aayush\AppData\Local\Temp\ccvWu1Je.s:757    .text:00000184 $t
C:\Users\Aayush\AppData\Local\Temp\ccvWu1Je.s:782    .text:00000190 $d
C:\Users\Aayush\AppData\Local\Temp\ccvWu1Je.s:786    .text:00000194 $t
C:\Users\Aayush\AppData\Local\Temp\ccvWu1Je.s:811    .text:000001a0 $d
C:\Users\Aayush\AppData\Local\Temp\ccvWu1Je.s:815    .text:000001a4 $t
C:\Users\Aayush\AppData\Local\Temp\ccvWu1Je.s:840    .text:000001b0 $d
C:\Users\Aayush\AppData\Local\Temp\ccvWu1Je.s:849    .text:000001b4 $t
C:\Users\Aayush\AppData\Local\Temp\ccvWu1Je.s:891    .text:000001d8 $d
C:\Users\Aayush\AppData\Local\Temp\ccvWu1Je.s:901    .text:000001e0 $t
C:\Users\Aayush\AppData\Local\Temp\ccvWu1Je.s:968    .text:00000230 $d
C:\Users\Aayush\AppData\Local\Temp\ccvWu1Je.s:973    .text:00000238 $t
C:\Users\Aayush\AppData\Local\Temp\ccvWu1Je.s:1030   .text:00000258 $d
C:\Users\Aayush\AppData\Local\Temp\ccvWu1Je.s:1034   .text:00000268 $t
C:\Users\Aayush\AppData\Local\Temp\ccvWu1Je.s:1223   .text:00000358 $d
ARM GAS  C:\Users\Aayush\AppData\Local\Temp\ccvWu1Je.s 			page 61



UNDEFINED SYMBOLS
appInit
gameEngineInit
gfxSetColor
gfxSetPenSize
createWindow
createCanvas
createWidget
touchAvailable
windowEventHandler
gfxDrawString
setWindow
gfxDrawLine
gfxDrawCircle
gfxDrawRectangle
gfxDrawPixels
