ARM GAS  C:\Users\Aayush\AppData\Local\Temp\ccHTsoxP.s 			page 1


   1              		.cpu cortex-m3
   2              		.arch armv7-m
   3              		.fpu softvfp
   4              		.eabi_attribute 20, 1	@ Tag_ABI_FP_denormal
   5              		.eabi_attribute 21, 1	@ Tag_ABI_FP_exceptions
   6              		.eabi_attribute 23, 3	@ Tag_ABI_FP_number_model
   7              		.eabi_attribute 24, 1	@ Tag_ABI_align8_needed
   8              		.eabi_attribute 25, 1	@ Tag_ABI_align8_preserved
   9              		.eabi_attribute 26, 1	@ Tag_ABI_enum_size
  10              		.eabi_attribute 30, 6	@ Tag_ABI_optimization_goals
  11              		.eabi_attribute 34, 1	@ Tag_CPU_unaligned_access
  12              		.eabi_attribute 18, 4	@ Tag_ABI_PCS_wchar_t
  13              		.file	"main.c"
  14              	@ GNU C99 (GNU Arm Embedded Toolchain 10.3-2021.10) version 10.3.1 20210824 (release) (arm-none-eab
  15              	@	compiled by GNU C version 7.3-win32 20180312, GMP version 6.1.0, MPFR version 3.1.4, MPC version 
  16              	
  17              	@ GGC heuristics: --param ggc-min-expand=100 --param ggc-min-heapsize=131072
  18              	@ options passed:  -I . -I ../../Include -I ../../Include/PrimeFramework
  19              	@ -I ../../Include/AppHelper -I ../../Include/GameEngine
  20              	@ -I ../../Include/GameEngine/Graphics -I ../../Include/GameEngine/Object
  21              	@ -I ../../Include/GameEngine/Renderer -I ../../Include/GameEngine/Resource
  22              	@ -imultilib thumb/v7-m/nofp
  23              	@ -iprefix c:\program files (x86)\gnu arm embedded toolchain\10 2021.10\bin\../lib/gcc/arm-none-eab
  24              	@ -isysroot c:\program files (x86)\gnu arm embedded toolchain\10 2021.10\bin\../arm-none-eabi
  25              	@ -MD Build/Obj/Debug/main.d -MF .dep/main.o.d -MP
  26              	@ -MQ Build/Obj/Debug/main.o -D__USES_INITFINI__ -D MCU_CHIP_lpc1768
  27              	@ -D PRIME_DEBUG main.c -mcpu=cortex-m3 -mthumb -mfloat-abi=soft
  28              	@ -mlibarch=armv7-m -march=armv7-m -auxbase-strip Build/Obj/Debug/main.o
  29              	@ -gdwarf-2 -O0 -Wall -Wno-cpp -std=gnu99 -fomit-frame-pointer
  30              	@ -fverbose-asm
  31              	@ options enabled:  -faggressive-loop-optimizations -fallocation-dce
  32              	@ -fauto-inc-dec -fdelete-null-pointer-checks -fdwarf2-cfi-asm
  33              	@ -fearly-inlining -feliminate-unused-debug-symbols
  34              	@ -feliminate-unused-debug-types -ffp-int-builtin-inexact -ffunction-cse
  35              	@ -fgcse-lm -fgnu-unique -fident -finline-atomics -fipa-stack-alignment
  36              	@ -fira-hoist-pressure -fira-share-save-slots -fira-share-spill-slots
  37              	@ -fivopts -fkeep-static-consts -fleading-underscore -flifetime-dse
  38              	@ -fmath-errno -fmerge-debug-strings -fomit-frame-pointer -fpeephole -fplt
  39              	@ -fprefetch-loop-arrays -freg-struct-return
  40              	@ -fsched-critical-path-heuristic -fsched-dep-count-heuristic
  41              	@ -fsched-group-heuristic -fsched-interblock -fsched-last-insn-heuristic
  42              	@ -fsched-rank-heuristic -fsched-spec -fsched-spec-insn-heuristic
  43              	@ -fsched-stalled-insns-dep -fsemantic-interposition -fshow-column
  44              	@ -fshrink-wrap-separate -fsigned-zeros -fsplit-ivs-in-unroller
  45              	@ -fssa-backprop -fstdarg-opt -fstrict-volatile-bitfields -fsync-libcalls
  46              	@ -ftrapping-math -ftree-cselim -ftree-forwprop -ftree-loop-if-convert
  47              	@ -ftree-loop-im -ftree-loop-ivcanon -ftree-loop-optimize
  48              	@ -ftree-parallelize-loops= -ftree-phiprop -ftree-reassoc -ftree-scev-cprop
  49              	@ -funit-at-a-time -fverbose-asm -fzero-initialized-in-bss
  50              	@ -masm-syntax-unified -mbe32 -mfix-cortex-m3-ldrd -mlittle-endian
  51              	@ -mpic-data-is-text-relative -msched-prolog -mthumb -munaligned-access
  52              	@ -mvectorize-with-neon-quad
  53              	
  54              		.text
  55              	.Ltext0:
  56              		.cfi_sections	.debug_frame
  57              		.global	windowID
ARM GAS  C:\Users\Aayush\AppData\Local\Temp\ccHTsoxP.s 			page 2


  58              		.bss
  59              		.type	windowID, %object
  60              		.size	windowID, 1
  61              	windowID:
  62 0000 00       		.space	1
  63              		.global	canvasID
  64              		.type	canvasID, %object
  65              		.size	canvasID, 1
  66              	canvasID:
  67 0001 00       		.space	1
  68              		.global	widget1ID
  69              		.type	widget1ID, %object
  70              		.size	widget1ID, 1
  71              	widget1ID:
  72 0002 00       		.space	1
  73              		.global	widget2ID
  74              		.type	widget2ID, %object
  75              		.size	widget2ID, 1
  76              	widget2ID:
  77 0003 00       		.space	1
  78              		.global	widget3ID
  79              		.type	widget3ID, %object
  80              		.size	widget3ID, 1
  81              	widget3ID:
  82 0004 00       		.space	1
  83              		.global	widget4ID
  84              		.type	widget4ID, %object
  85              		.size	widget4ID, 1
  86              	widget4ID:
  87 0005 00       		.space	1
  88              		.global	widget5ID
  89              		.type	widget5ID, %object
  90              		.size	widget5ID, 1
  91              	widget5ID:
  92 0006 00       		.space	1
  93              		.global	widget6ID
  94              		.type	widget6ID, %object
  95              		.size	widget6ID, 1
  96              	widget6ID:
  97 0007 00       		.space	1
  98              		.global	i
  99              		.align	2
 100              		.type	i, %object
 101              		.size	i, 4
 102              	i:
 103 0008 00000000 		.space	4
 104              		.global	j
 105              		.align	2
 106              		.type	j, %object
 107              		.size	j, 4
 108              	j:
 109 000c 00000000 		.space	4
 110              		.global	a1
 111              		.align	2
 112              		.type	a1, %object
 113              		.size	a1, 4
 114              	a1:
ARM GAS  C:\Users\Aayush\AppData\Local\Temp\ccHTsoxP.s 			page 3


 115 0010 00000000 		.space	4
 116              		.global	b1
 117              		.align	2
 118              		.type	b1, %object
 119              		.size	b1, 4
 120              	b1:
 121 0014 00000000 		.space	4
 122              		.global	a2
 123              		.align	2
 124              		.type	a2, %object
 125              		.size	a2, 4
 126              	a2:
 127 0018 00000000 		.space	4
 128              		.global	b2
 129              		.align	2
 130              		.type	b2, %object
 131              		.size	b2, 4
 132              	b2:
 133 001c 00000000 		.space	4
 134              		.global	shape
 135              		.data
 136              		.type	shape, %object
 137              		.size	shape, 1
 138              	shape:
 139 0000 66       		.byte	102
 140              		.global	cnt
 141              		.bss
 142              		.align	2
 143              		.type	cnt, %object
 144              		.size	cnt, 4
 145              	cnt:
 146 0020 00000000 		.space	4
 147              		.section	.rodata
 148              		.align	2
 149              	.LC0:
 150 0000 57696E64 		.ascii	"Window 1\000"
 150      6F772031 
 150      00
 151              		.data
 152 0001 000000   		.align	2
 153              		.type	window1, %object
 154              		.size	window1, 20
 155              	window1:
 156              	@ windowAttr:
 157              	@ name:
 158 0004 00000000 		.word	.LC0
 159              	@ topLeft:
 160              	@ xValue:
 161 0008 0000     		.short	0
 162              	@ yValue:
 163 000a 0000     		.short	0
 164              	@ size:
 165              	@ width:
 166 000c F000     		.short	240
 167              	@ height:
 168 000e 4001     		.short	320
 169              	@ backgroundColor:
ARM GAS  C:\Users\Aayush\AppData\Local\Temp\ccHTsoxP.s 			page 4


 170 0010 FFFF     		.short	-1
 171              	@ border:
 172 0012 00       		.byte	0
 173 0013 00       		.space	1
 174              	@ oneShotHandler:
 175 0014 00000000 		.word	0
 176              		.section	.rodata
 177 0009 000000   		.align	2
 178              	.LC1:
 179 000c 43616E76 		.ascii	"Canvas\000"
 179      617300
 180 0013 00       		.align	2
 181              	.LC2:
 182 0014 00       		.ascii	"\000"
 183              		.data
 184              		.align	2
 185              		.type	Canvas, %object
 186              		.size	Canvas, 32
 187              	Canvas:
 188              	@ canvasAttr:
 189              	@ name:
 190 0018 0C000000 		.word	.LC1
 191              	@ topLeft:
 192              	@ xValue:
 193 001c 0000     		.short	0
 194              	@ yValue:
 195 001e 2B00     		.short	43
 196              	@ size:
 197              	@ width:
 198 0020 F000     		.short	240
 199              	@ height:
 200 0022 1801     		.short	280
 201              	@ backgroundColor:
 202 0024 FFFF     		.short	-1
 203              	@ border:
 204 0026 01       		.byte	1
 205 0027 00       		.space	1
 206              	@ eventHandler:
 207 0028 00000000 		.word	canvasEventHandler
 208              	@ displayString:
 209 002c 14000000 		.word	.LC2
 210              	@ font:
 211 0030 01       		.byte	1
 212              	@ fontColor:
 213 0031 00       		.space	1
 214 0032 FFFF     		.short	-1
 215              	@ image1:
 216 0034 00000000 		.word	0
 217              		.section	.rodata
 218 0015 000000   		.align	2
 219              	.LC3:
 220 0018 46726565 		.ascii	"Freehand button widget\000"
 220      68616E64 
 220      20627574 
 220      746F6E20 
 220      77696467 
 221 002f 00       		.align	2
ARM GAS  C:\Users\Aayush\AppData\Local\Temp\ccHTsoxP.s 			page 5


 222              	.LC4:
 223 0030 20204648 		.ascii	"  FH\000"
 223      00
 224              		.data
 225              		.align	2
 226              		.type	freeHandBtnWidget, %object
 227              		.size	freeHandBtnWidget, 32
 228              	freeHandBtnWidget:
 229              	@ widgetAttr:
 230              	@ name:
 231 0038 18000000 		.word	.LC3
 232              	@ topLeft:
 233              	@ xValue:
 234 003c 0000     		.short	0
 235              	@ yValue:
 236 003e 0000     		.short	0
 237              	@ size:
 238              	@ width:
 239 0040 2800     		.short	40
 240              	@ height:
 241 0042 2B00     		.short	43
 242              	@ backgroundColor:
 243 0044 FFFF     		.short	-1
 244              	@ border:
 245 0046 01       		.byte	1
 246 0047 00       		.space	1
 247              	@ eventHandler:
 248 0048 00000000 		.word	freeHandBtnEventHandler
 249              	@ displayString:
 250 004c 30000000 		.word	.LC4
 251              	@ font:
 252 0050 01       		.byte	1
 253              	@ fontColor:
 254 0051 00       		.space	1
 255 0052 0000     		.short	0
 256              	@ image1:
 257 0054 00000000 		.word	0
 258              		.section	.rodata
 259 0035 000000   		.align	2
 260              	.LC5:
 261 0038 4C696E65 		.ascii	"Line button widget\000"
 261      20627574 
 261      746F6E20 
 261      77696467 
 261      657400
 262              		.data
 263              		.align	2
 264              		.type	lineBtnWidget, %object
 265              		.size	lineBtnWidget, 32
 266              	lineBtnWidget:
 267              	@ widgetAttr:
 268              	@ name:
 269 0058 38000000 		.word	.LC5
 270              	@ topLeft:
 271              	@ xValue:
 272 005c 2800     		.short	40
 273              	@ yValue:
ARM GAS  C:\Users\Aayush\AppData\Local\Temp\ccHTsoxP.s 			page 6


 274 005e 0000     		.short	0
 275              	@ size:
 276              	@ width:
 277 0060 2800     		.short	40
 278              	@ height:
 279 0062 2B00     		.short	43
 280              	@ backgroundColor:
 281 0064 FFFF     		.short	-1
 282              	@ border:
 283 0066 01       		.byte	1
 284 0067 00       		.space	1
 285              	@ eventHandler:
 286 0068 00000000 		.word	lineBtnEventHandler
 287              	@ displayString:
 288 006c 14000000 		.word	.LC2
 289              	@ font:
 290 0070 01       		.byte	1
 291              	@ fontColor:
 292 0071 00       		.space	1
 293 0072 0000     		.short	0
 294              	@ image1:
 295 0074 00000000 		.word	0
 296              		.section	.rodata
 297 004b 00       		.align	2
 298              	.LC6:
 299 004c 43697263 		.ascii	"Circle button widget\000"
 299      6C652062 
 299      7574746F 
 299      6E207769 
 299      64676574 
 300              		.data
 301              		.align	2
 302              		.type	circleBtnWidget, %object
 303              		.size	circleBtnWidget, 32
 304              	circleBtnWidget:
 305              	@ widgetAttr:
 306              	@ name:
 307 0078 4C000000 		.word	.LC6
 308              	@ topLeft:
 309              	@ xValue:
 310 007c 5000     		.short	80
 311              	@ yValue:
 312 007e 0000     		.short	0
 313              	@ size:
 314              	@ width:
 315 0080 2800     		.short	40
 316              	@ height:
 317 0082 2B00     		.short	43
 318              	@ backgroundColor:
 319 0084 FFFF     		.short	-1
 320              	@ border:
 321 0086 01       		.byte	1
 322 0087 00       		.space	1
 323              	@ eventHandler:
 324 0088 00000000 		.word	circleBtnEventHandler
 325              	@ displayString:
 326 008c 14000000 		.word	.LC2
ARM GAS  C:\Users\Aayush\AppData\Local\Temp\ccHTsoxP.s 			page 7


 327              	@ font:
 328 0090 01       		.byte	1
 329              	@ fontColor:
 330 0091 00       		.space	1
 331 0092 0000     		.short	0
 332              	@ image1:
 333 0094 00000000 		.word	0
 334              		.section	.rodata
 335 0061 000000   		.align	2
 336              	.LC7:
 337 0064 52656374 		.ascii	"Rectangle button widget\000"
 337      616E676C 
 337      65206275 
 337      74746F6E 
 337      20776964 
 338              		.data
 339              		.align	2
 340              		.type	rectangleBtnWidget, %object
 341              		.size	rectangleBtnWidget, 32
 342              	rectangleBtnWidget:
 343              	@ widgetAttr:
 344              	@ name:
 345 0098 64000000 		.word	.LC7
 346              	@ topLeft:
 347              	@ xValue:
 348 009c 7800     		.short	120
 349              	@ yValue:
 350 009e 0000     		.short	0
 351              	@ size:
 352              	@ width:
 353 00a0 2800     		.short	40
 354              	@ height:
 355 00a2 2B00     		.short	43
 356              	@ backgroundColor:
 357 00a4 FFFF     		.short	-1
 358              	@ border:
 359 00a6 01       		.byte	1
 360 00a7 00       		.space	1
 361              	@ eventHandler:
 362 00a8 00000000 		.word	rectangleBtnEventHandler
 363              	@ displayString:
 364 00ac 14000000 		.word	.LC2
 365              	@ font:
 366 00b0 01       		.byte	1
 367              	@ fontColor:
 368 00b1 00       		.space	1
 369 00b2 0000     		.short	0
 370              	@ image1:
 371 00b4 00000000 		.word	0
 372              		.section	.rodata
 373              		.align	2
 374              	.LC8:
 375 007c 436C6561 		.ascii	"Clearscreen button widget\000"
 375      72736372 
 375      65656E20 
 375      62757474 
 375      6F6E2077 
ARM GAS  C:\Users\Aayush\AppData\Local\Temp\ccHTsoxP.s 			page 8


 376 0096 0000     		.align	2
 377              	.LC9:
 378 0098 20434C53 		.ascii	" CLS\000"
 378      00
 379              		.data
 380              		.align	2
 381              		.type	clearscreenBtnWidget, %object
 382              		.size	clearscreenBtnWidget, 32
 383              	clearscreenBtnWidget:
 384              	@ widgetAttr:
 385              	@ name:
 386 00b8 7C000000 		.word	.LC8
 387              	@ topLeft:
 388              	@ xValue:
 389 00bc A000     		.short	160
 390              	@ yValue:
 391 00be 0000     		.short	0
 392              	@ size:
 393              	@ width:
 394 00c0 2400     		.short	36
 395              	@ height:
 396 00c2 2B00     		.short	43
 397              	@ backgroundColor:
 398 00c4 FFFF     		.short	-1
 399              	@ border:
 400 00c6 01       		.byte	1
 401 00c7 00       		.space	1
 402              	@ eventHandler:
 403 00c8 00000000 		.word	clearscreenBtnEventHandler
 404              	@ displayString:
 405 00cc 98000000 		.word	.LC9
 406              	@ font:
 407 00d0 01       		.byte	1
 408              	@ fontColor:
 409 00d1 00       		.space	1
 410 00d2 0000     		.short	0
 411              	@ image1:
 412 00d4 00000000 		.word	0
 413              		.section	.rodata
 414 009d 000000   		.align	2
 415              	.LC10:
 416 00a0 53617665 		.ascii	"Save button widget\000"
 416      20627574 
 416      746F6E20 
 416      77696467 
 416      657400
 417              		.data
 418              		.align	2
 419              		.type	saveBtnWidget, %object
 420              		.size	saveBtnWidget, 32
 421              	saveBtnWidget:
 422              	@ widgetAttr:
 423              	@ name:
 424 00d8 A0000000 		.word	.LC10
 425              	@ topLeft:
 426              	@ xValue:
 427 00dc C400     		.short	196
ARM GAS  C:\Users\Aayush\AppData\Local\Temp\ccHTsoxP.s 			page 9


 428              	@ yValue:
 429 00de 0000     		.short	0
 430              	@ size:
 431              	@ width:
 432 00e0 2C00     		.short	44
 433              	@ height:
 434 00e2 2B00     		.short	43
 435              	@ backgroundColor:
 436 00e4 FFFF     		.short	-1
 437              	@ border:
 438 00e6 01       		.byte	1
 439 00e7 00       		.space	1
 440              	@ eventHandler:
 441 00e8 00000000 		.word	saveBtnEventHandler
 442              	@ displayString:
 443 00ec 14000000 		.word	.LC2
 444              	@ font:
 445 00f0 01       		.byte	1
 446              	@ fontColor:
 447 00f1 00       		.space	1
 448 00f2 0000     		.short	0
 449              	@ image1:
 450 00f4 00000000 		.word	0
 451              		.text
 452              		.align	1
 453              		.global	main
 454              		.syntax unified
 455              		.thumb
 456              		.thumb_func
 457              		.type	main, %function
 458              	main:
 459              	.LFB60:
 460              		.file 1 "main.c"
   1:main.c        **** 
   2:main.c        **** #include "app.h"
   3:main.c        **** #include "gameEngine.h"
   4:main.c        **** 
   5:main.c        **** PFbyte windowID, canvasID, widget1ID, widget2ID, widget3ID, widget4ID, widget5ID, widget6ID;
   6:main.c        **** PFdword i, j, a1, b1, a2, b2;
   7:main.c        **** char shape = 'f';
   8:main.c        **** int cnt = 0;
   9:main.c        **** 
  10:main.c        **** PFdword sqroot(PFdword r); // Function to find square root of a PFdword type variable
  11:main.c        **** void freeHandBtnEventHandler(void);
  12:main.c        **** void lineBtnEventHandler(void);
  13:main.c        **** void circleBtnEventHandler(void);
  14:main.c        **** void rectangleBtnEventHandler(void);
  15:main.c        **** void saveBtnEventHandler(void);
  16:main.c        **** void homeScreen(void);
  17:main.c        **** void clearscreenBtnEventHandler(void);
  18:main.c        **** void canvasEventHandler(void);
  19:main.c        **** 
  20:main.c        **** static WindowCfg window1 =
  21:main.c        ****     {
  22:main.c        ****         {"Window 1",
  23:main.c        ****          {0, 0},
  24:main.c        ****          {240, 320},
ARM GAS  C:\Users\Aayush\AppData\Local\Temp\ccHTsoxP.s 			page 10


  25:main.c        ****          WHITE,
  26:main.c        ****          enBooleanFalse},
  27:main.c        ****         NULL};
  28:main.c        **** 
  29:main.c        **** static CanvasCfg Canvas =
  30:main.c        ****     {
  31:main.c        ****         {"Canvas",
  32:main.c        ****          {0, 43},
  33:main.c        ****          {240, 280},
  34:main.c        ****          WHITE,
  35:main.c        ****          enBooleanTrue},
  36:main.c        ****         canvasEventHandler,
  37:main.c        ****         "",
  38:main.c        ****         enGfxFont_8X16,
  39:main.c        ****         WHITE,
  40:main.c        ****         0};
  41:main.c        **** 
  42:main.c        **** static WidgetCfg freeHandBtnWidget =
  43:main.c        ****     {
  44:main.c        ****         {"Freehand button widget",
  45:main.c        ****          {0, 0},
  46:main.c        ****          {40, 43},
  47:main.c        ****          WHITE,
  48:main.c        ****          enBooleanTrue},
  49:main.c        ****         freeHandBtnEventHandler,
  50:main.c        ****         "  FH",
  51:main.c        ****         enGfxFont_8X16,
  52:main.c        ****         BLACK,
  53:main.c        ****         0};
  54:main.c        **** 
  55:main.c        **** static WidgetCfg lineBtnWidget =
  56:main.c        ****     {
  57:main.c        ****         {"Line button widget",
  58:main.c        ****          {40, 0},
  59:main.c        ****          {40, 43},
  60:main.c        ****          WHITE,
  61:main.c        ****          enBooleanTrue},
  62:main.c        ****         lineBtnEventHandler,
  63:main.c        ****         "",
  64:main.c        ****         enGfxFont_8X16,
  65:main.c        ****         BLACK,
  66:main.c        ****         0};
  67:main.c        **** 
  68:main.c        **** static WidgetCfg circleBtnWidget =
  69:main.c        ****     {
  70:main.c        ****         {"Circle button widget",
  71:main.c        ****          {80, 0},
  72:main.c        ****          {40, 43},
  73:main.c        ****          WHITE,
  74:main.c        ****          enBooleanTrue},
  75:main.c        ****         circleBtnEventHandler,
  76:main.c        ****         "",
  77:main.c        ****         enGfxFont_8X16,
  78:main.c        ****         BLACK,
  79:main.c        ****         0};
  80:main.c        **** 
  81:main.c        **** static WidgetCfg rectangleBtnWidget =
ARM GAS  C:\Users\Aayush\AppData\Local\Temp\ccHTsoxP.s 			page 11


  82:main.c        ****     {
  83:main.c        ****         {"Rectangle button widget",
  84:main.c        ****          {120, 0},
  85:main.c        ****          {40, 43},
  86:main.c        ****          WHITE,
  87:main.c        ****          enBooleanTrue},
  88:main.c        ****         rectangleBtnEventHandler,
  89:main.c        ****         "",
  90:main.c        ****         enGfxFont_8X16,
  91:main.c        ****         BLACK,
  92:main.c        ****         0};
  93:main.c        **** 
  94:main.c        **** static WidgetCfg clearscreenBtnWidget =
  95:main.c        ****     {
  96:main.c        ****         {"Clearscreen button widget",
  97:main.c        ****          {160, 0},
  98:main.c        ****          {36, 43},
  99:main.c        ****          WHITE,
 100:main.c        ****          enBooleanTrue},
 101:main.c        ****         clearscreenBtnEventHandler,
 102:main.c        ****         " CLS",
 103:main.c        ****         enGfxFont_8X16,
 104:main.c        ****         BLACK,
 105:main.c        ****         0};
 106:main.c        **** 
 107:main.c        **** static WidgetCfg saveBtnWidget =
 108:main.c        ****     {
 109:main.c        ****         {"Save button widget",
 110:main.c        ****          {196, 0},
 111:main.c        ****          {44, 43},
 112:main.c        ****          WHITE,
 113:main.c        ****          enBooleanTrue},
 114:main.c        ****         saveBtnEventHandler,
 115:main.c        ****         "",
 116:main.c        ****         enGfxFont_8X16,
 117:main.c        ****         BLACK,
 118:main.c        ****         0};
 119:main.c        **** 
 120:main.c        **** int main()
 121:main.c        **** {
 461              		.loc 1 121 1
 462              		.cfi_startproc
 463              		@ args = 0, pretend = 0, frame = 0
 464              		@ frame_needed = 0, uses_anonymous_args = 0
 465 0000 08B5     		push	{r3, lr}	@
 466              	.LCFI0:
 467              		.cfi_def_cfa_offset 8
 468              		.cfi_offset 3, -8
 469              		.cfi_offset 14, -4
 470              	@ main.c:123:     appInit();
 122:main.c        **** 
 123:main.c        ****     appInit();
 471              		.loc 1 123 5
 472 0002 FFF7FEFF 		bl	appInit		@
 473              	@ main.c:124:     gameEngineInit();
 124:main.c        ****     gameEngineInit();
 474              		.loc 1 124 5
ARM GAS  C:\Users\Aayush\AppData\Local\Temp\ccHTsoxP.s 			page 12


 475 0006 FFF7FEFF 		bl	gameEngineInit		@
 476              	@ main.c:125:     gfxSetColor(BLACK);
 125:main.c        ****     gfxSetColor(BLACK);
 477              		.loc 1 125 5
 478 000a 0020     		movs	r0, #0	@,
 479 000c FFF7FEFF 		bl	gfxSetColor		@
 480              	@ main.c:126:     gfxSetPenSize(2);
 126:main.c        ****     gfxSetPenSize(2);
 481              		.loc 1 126 5
 482 0010 0220     		movs	r0, #2	@,
 483 0012 FFF7FEFF 		bl	gfxSetPenSize		@
 484              	@ main.c:129:     createWindow(&windowID, &window1);
 127:main.c        **** 
 128:main.c        ****     // creating widgets
 129:main.c        ****     createWindow(&windowID, &window1);
 485              		.loc 1 129 5
 486 0016 2549     		ldr	r1, .L4	@,
 487 0018 2548     		ldr	r0, .L4+4	@,
 488 001a FFF7FEFF 		bl	createWindow		@
 489              	@ main.c:130:     createCanvas(windowID, &canvasID, &Canvas);
 130:main.c        ****     createCanvas(windowID, &canvasID, &Canvas);
 490              		.loc 1 130 5
 491 001e 244B     		ldr	r3, .L4+4	@ tmp127,
 492 0020 1B78     		ldrb	r3, [r3]	@ zero_extendqisi2	@ windowID.0_1, windowID
 493 0022 244A     		ldr	r2, .L4+8	@,
 494 0024 2449     		ldr	r1, .L4+12	@,
 495 0026 1846     		mov	r0, r3	@, windowID.0_1
 496 0028 FFF7FEFF 		bl	createCanvas		@
 497              	@ main.c:131:     createWidget(windowID, &widget1ID, &freeHandBtnWidget);
 131:main.c        ****     createWidget(windowID, &widget1ID, &freeHandBtnWidget);
 498              		.loc 1 131 5
 499 002c 204B     		ldr	r3, .L4+4	@ tmp128,
 500 002e 1B78     		ldrb	r3, [r3]	@ zero_extendqisi2	@ windowID.1_2, windowID
 501 0030 224A     		ldr	r2, .L4+16	@,
 502 0032 2349     		ldr	r1, .L4+20	@,
 503 0034 1846     		mov	r0, r3	@, windowID.1_2
 504 0036 FFF7FEFF 		bl	createWidget		@
 505              	@ main.c:132:     createWidget(windowID, &widget2ID, &lineBtnWidget);
 132:main.c        ****     createWidget(windowID, &widget2ID, &lineBtnWidget);
 506              		.loc 1 132 5
 507 003a 1D4B     		ldr	r3, .L4+4	@ tmp129,
 508 003c 1B78     		ldrb	r3, [r3]	@ zero_extendqisi2	@ windowID.2_3, windowID
 509 003e 214A     		ldr	r2, .L4+24	@,
 510 0040 2149     		ldr	r1, .L4+28	@,
 511 0042 1846     		mov	r0, r3	@, windowID.2_3
 512 0044 FFF7FEFF 		bl	createWidget		@
 513              	@ main.c:133:     createWidget(windowID, &widget3ID, &circleBtnWidget);
 133:main.c        ****     createWidget(windowID, &widget3ID, &circleBtnWidget);
 514              		.loc 1 133 5
 515 0048 194B     		ldr	r3, .L4+4	@ tmp130,
 516 004a 1B78     		ldrb	r3, [r3]	@ zero_extendqisi2	@ windowID.3_4, windowID
 517 004c 1F4A     		ldr	r2, .L4+32	@,
 518 004e 2049     		ldr	r1, .L4+36	@,
 519 0050 1846     		mov	r0, r3	@, windowID.3_4
 520 0052 FFF7FEFF 		bl	createWidget		@
 521              	@ main.c:134:     createWidget(windowID, &widget4ID, &rectangleBtnWidget);
 134:main.c        ****     createWidget(windowID, &widget4ID, &rectangleBtnWidget);
ARM GAS  C:\Users\Aayush\AppData\Local\Temp\ccHTsoxP.s 			page 13


 522              		.loc 1 134 5
 523 0056 164B     		ldr	r3, .L4+4	@ tmp131,
 524 0058 1B78     		ldrb	r3, [r3]	@ zero_extendqisi2	@ windowID.4_5, windowID
 525 005a 1E4A     		ldr	r2, .L4+40	@,
 526 005c 1E49     		ldr	r1, .L4+44	@,
 527 005e 1846     		mov	r0, r3	@, windowID.4_5
 528 0060 FFF7FEFF 		bl	createWidget		@
 529              	@ main.c:135:     createWidget(windowID, &widget5ID, &clearscreenBtnWidget);
 135:main.c        ****     createWidget(windowID, &widget5ID, &clearscreenBtnWidget);
 530              		.loc 1 135 5
 531 0064 124B     		ldr	r3, .L4+4	@ tmp132,
 532 0066 1B78     		ldrb	r3, [r3]	@ zero_extendqisi2	@ windowID.5_6, windowID
 533 0068 1C4A     		ldr	r2, .L4+48	@,
 534 006a 1D49     		ldr	r1, .L4+52	@,
 535 006c 1846     		mov	r0, r3	@, windowID.5_6
 536 006e FFF7FEFF 		bl	createWidget		@
 537              	@ main.c:136:     createWidget(windowID, &widget6ID, &saveBtnWidget);
 136:main.c        ****     createWidget(windowID, &widget6ID, &saveBtnWidget);
 538              		.loc 1 136 5
 539 0072 0F4B     		ldr	r3, .L4+4	@ tmp133,
 540 0074 1B78     		ldrb	r3, [r3]	@ zero_extendqisi2	@ windowID.6_7, windowID
 541 0076 1B4A     		ldr	r2, .L4+56	@,
 542 0078 1B49     		ldr	r1, .L4+60	@,
 543 007a 1846     		mov	r0, r3	@, windowID.6_7
 544 007c FFF7FEFF 		bl	createWidget		@
 545              	@ main.c:138:     homeScreen();
 137:main.c        **** 
 138:main.c        ****     homeScreen();
 546              		.loc 1 138 5
 547 0080 FFF7FEFF 		bl	homeScreen		@
 548              	.L3:
 549              	@ main.c:142:         if (touchAvailable(&i, &j) == enBooleanTrue)
 139:main.c        **** 
 140:main.c        ****     while (1)
 141:main.c        ****     {
 142:main.c        ****         if (touchAvailable(&i, &j) == enBooleanTrue)
 550              		.loc 1 142 13
 551 0084 1949     		ldr	r1, .L4+64	@,
 552 0086 1A48     		ldr	r0, .L4+68	@,
 553 0088 FFF7FEFF 		bl	touchAvailable		@
 554 008c 0346     		mov	r3, r0	@ tmp134,
 555              	@ main.c:142:         if (touchAvailable(&i, &j) == enBooleanTrue)
 556              		.loc 1 142 12
 557 008e 012B     		cmp	r3, #1	@ _8,
 558 0090 F8D1     		bne	.L3		@,
 559              	@ main.c:144:             windowEventHandler(windowID, i, j);
 143:main.c        ****         {
 144:main.c        ****             windowEventHandler(windowID, i, j);
 560              		.loc 1 144 13
 561 0092 074B     		ldr	r3, .L4+4	@ tmp135,
 562 0094 1B78     		ldrb	r3, [r3]	@ zero_extendqisi2	@ windowID.7_9, windowID
 563 0096 164A     		ldr	r2, .L4+68	@ tmp136,
 564 0098 1268     		ldr	r2, [r2]	@ i.8_10, i
 565 009a 91B2     		uxth	r1, r2	@ _11, i.8_10
 566 009c 134A     		ldr	r2, .L4+64	@ tmp137,
 567 009e 1268     		ldr	r2, [r2]	@ j.9_12, j
 568 00a0 92B2     		uxth	r2, r2	@ _13, j.9_12
ARM GAS  C:\Users\Aayush\AppData\Local\Temp\ccHTsoxP.s 			page 14


 569 00a2 1846     		mov	r0, r3	@, windowID.7_9
 570 00a4 FFF7FEFF 		bl	windowEventHandler		@
 571              	@ main.c:142:         if (touchAvailable(&i, &j) == enBooleanTrue)
 142:main.c        ****         {
 572              		.loc 1 142 12
 573 00a8 ECE7     		b	.L3		@
 574              	.L5:
 575 00aa 00BF     		.align	2
 576              	.L4:
 577 00ac 04000000 		.word	window1
 578 00b0 00000000 		.word	windowID
 579 00b4 18000000 		.word	Canvas
 580 00b8 00000000 		.word	canvasID
 581 00bc 38000000 		.word	freeHandBtnWidget
 582 00c0 00000000 		.word	widget1ID
 583 00c4 58000000 		.word	lineBtnWidget
 584 00c8 00000000 		.word	widget2ID
 585 00cc 78000000 		.word	circleBtnWidget
 586 00d0 00000000 		.word	widget3ID
 587 00d4 98000000 		.word	rectangleBtnWidget
 588 00d8 00000000 		.word	widget4ID
 589 00dc B8000000 		.word	clearscreenBtnWidget
 590 00e0 00000000 		.word	widget5ID
 591 00e4 D8000000 		.word	saveBtnWidget
 592 00e8 00000000 		.word	widget6ID
 593 00ec 00000000 		.word	j
 594 00f0 00000000 		.word	i
 595              		.cfi_endproc
 596              	.LFE60:
 597              		.size	main, .-main
 598              		.align	1
 599              		.global	sqroot
 600              		.syntax unified
 601              		.thumb
 602              		.thumb_func
 603              		.type	sqroot, %function
 604              	sqroot:
 605              	.LFB61:
 145:main.c        ****         }
 146:main.c        ****     }
 147:main.c        ****     return 0;
 148:main.c        **** }
 149:main.c        **** 
 150:main.c        **** PFdword sqroot(PFdword r)
 151:main.c        **** {
 606              		.loc 1 151 1
 607              		.cfi_startproc
 608              		@ args = 0, pretend = 0, frame = 32
 609              		@ frame_needed = 0, uses_anonymous_args = 0
 610              		@ link register save eliminated.
 611 00f4 88B0     		sub	sp, sp, #32	@,,
 612              	.LCFI1:
 613              		.cfi_def_cfa_offset 32
 614 00f6 0190     		str	r0, [sp, #4]	@ r, r
 615              	@ main.c:153:     if (r == 0 || r == 1)
 152:main.c        **** 
 153:main.c        ****     if (r == 0 || r == 1)
ARM GAS  C:\Users\Aayush\AppData\Local\Temp\ccHTsoxP.s 			page 15


 616              		.loc 1 153 8
 617 00f8 019B     		ldr	r3, [sp, #4]	@ tmp116, r
 618 00fa 002B     		cmp	r3, #0	@ tmp116,
 619 00fc 02D0     		beq	.L7		@,
 620              	@ main.c:153:     if (r == 0 || r == 1)
 621              		.loc 1 153 16 discriminator 1
 622 00fe 019B     		ldr	r3, [sp, #4]	@ tmp117, r
 623 0100 012B     		cmp	r3, #1	@ tmp117,
 624 0102 01D1     		bne	.L8		@,
 625              	.L7:
 626              	@ main.c:154:         return r;
 154:main.c        ****         return r;
 627              		.loc 1 154 16
 628 0104 019B     		ldr	r3, [sp, #4]	@ _5, r
 629 0106 26E0     		b	.L9		@
 630              	.L8:
 631              	@ main.c:156:     PFdword start = 1, end = r / 2, mid, res, sqr;
 155:main.c        **** 
 156:main.c        ****     PFdword start = 1, end = r / 2, mid, res, sqr;
 632              		.loc 1 156 13
 633 0108 0123     		movs	r3, #1	@ tmp118,
 634 010a 0793     		str	r3, [sp, #28]	@ tmp118, start
 635              	@ main.c:156:     PFdword start = 1, end = r / 2, mid, res, sqr;
 636              		.loc 1 156 24
 637 010c 019B     		ldr	r3, [sp, #4]	@ tmp120, r
 638 010e 5B08     		lsrs	r3, r3, #1	@ tmp119, tmp120,
 639 0110 0693     		str	r3, [sp, #24]	@ tmp119, end
 640              	@ main.c:158:     while (start <= end)
 157:main.c        **** 
 158:main.c        ****     while (start <= end)
 641              		.loc 1 158 11
 642 0112 1BE0     		b	.L10		@
 643              	.L13:
 644              	@ main.c:161:         mid = (start + end) / 2;
 159:main.c        ****     {
 160:main.c        **** 
 161:main.c        ****         mid = (start + end) / 2;
 645              		.loc 1 161 22
 646 0114 079A     		ldr	r2, [sp, #28]	@ tmp121, start
 647 0116 069B     		ldr	r3, [sp, #24]	@ tmp122, end
 648 0118 1344     		add	r3, r3, r2	@ _1, tmp121
 649              	@ main.c:161:         mid = (start + end) / 2;
 650              		.loc 1 161 13
 651 011a 5B08     		lsrs	r3, r3, #1	@ tmp123, _1,
 652 011c 0493     		str	r3, [sp, #16]	@ tmp123, mid
 653              	@ main.c:162:         sqr = mid * mid;
 162:main.c        ****         sqr = mid * mid;
 654              		.loc 1 162 13
 655 011e 049B     		ldr	r3, [sp, #16]	@ tmp125, mid
 656 0120 03FB03F3 		mul	r3, r3, r3	@ tmp124, tmp125, tmp125
 657 0124 0393     		str	r3, [sp, #12]	@ tmp124, sqr
 658              	@ main.c:164:         if (sqr == r)
 163:main.c        **** 
 164:main.c        ****         if (sqr == r)
 659              		.loc 1 164 12
 660 0126 039A     		ldr	r2, [sp, #12]	@ tmp126, sqr
 661 0128 019B     		ldr	r3, [sp, #4]	@ tmp127, r
ARM GAS  C:\Users\Aayush\AppData\Local\Temp\ccHTsoxP.s 			page 16


 662 012a 9A42     		cmp	r2, r3	@ tmp126, tmp127
 663 012c 01D1     		bne	.L11		@,
 664              	@ main.c:166:             return mid;
 165:main.c        ****         {
 166:main.c        ****             return mid;
 665              		.loc 1 166 20
 666 012e 049B     		ldr	r3, [sp, #16]	@ _5, mid
 667 0130 11E0     		b	.L9		@
 668              	.L11:
 669              	@ main.c:169:         if (sqr < r)
 167:main.c        ****         }
 168:main.c        **** 
 169:main.c        ****         if (sqr < r)
 670              		.loc 1 169 12
 671 0132 039A     		ldr	r2, [sp, #12]	@ tmp128, sqr
 672 0134 019B     		ldr	r3, [sp, #4]	@ tmp129, r
 673 0136 9A42     		cmp	r2, r3	@ tmp128, tmp129
 674 0138 05D2     		bcs	.L12		@,
 675              	@ main.c:171:             start = mid + 1;
 170:main.c        ****         {
 171:main.c        ****             start = mid + 1;
 676              		.loc 1 171 19
 677 013a 049B     		ldr	r3, [sp, #16]	@ tmp131, mid
 678 013c 0133     		adds	r3, r3, #1	@ tmp130, tmp131,
 679 013e 0793     		str	r3, [sp, #28]	@ tmp130, start
 680              	@ main.c:172:             res = mid;
 172:main.c        ****             res = mid;
 681              		.loc 1 172 17
 682 0140 049B     		ldr	r3, [sp, #16]	@ tmp132, mid
 683 0142 0593     		str	r3, [sp, #20]	@ tmp132, res
 684 0144 02E0     		b	.L10		@
 685              	.L12:
 686              	@ main.c:177:             end = mid - 1;
 173:main.c        ****         }
 174:main.c        **** 
 175:main.c        ****         else
 176:main.c        ****         {
 177:main.c        ****             end = mid - 1;
 687              		.loc 1 177 17
 688 0146 049B     		ldr	r3, [sp, #16]	@ tmp134, mid
 689 0148 013B     		subs	r3, r3, #1	@ tmp133, tmp134,
 690 014a 0693     		str	r3, [sp, #24]	@ tmp133, end
 691              	.L10:
 692              	@ main.c:158:     while (start <= end)
 158:main.c        ****     {
 693              		.loc 1 158 11
 694 014c 079A     		ldr	r2, [sp, #28]	@ tmp135, start
 695 014e 069B     		ldr	r3, [sp, #24]	@ tmp136, end
 696 0150 9A42     		cmp	r2, r3	@ tmp135, tmp136
 697 0152 DFD9     		bls	.L13		@,
 698              	@ main.c:180:     return res;
 178:main.c        ****         }
 179:main.c        ****     }
 180:main.c        ****     return res;
 699              		.loc 1 180 12
 700 0154 059B     		ldr	r3, [sp, #20]	@ _5, res
 701              	.L9:
ARM GAS  C:\Users\Aayush\AppData\Local\Temp\ccHTsoxP.s 			page 17


 702              	@ main.c:181: }
 181:main.c        **** }
 703              		.loc 1 181 1
 704 0156 1846     		mov	r0, r3	@, <retval>
 705 0158 08B0     		add	sp, sp, #32	@,,
 706              	.LCFI2:
 707              		.cfi_def_cfa_offset 0
 708              		@ sp needed	@
 709 015a 7047     		bx	lr	@
 710              		.cfi_endproc
 711              	.LFE61:
 712              		.size	sqroot, .-sqroot
 713              		.align	1
 714              		.global	freeHandBtnEventHandler
 715              		.syntax unified
 716              		.thumb
 717              		.thumb_func
 718              		.type	freeHandBtnEventHandler, %function
 719              	freeHandBtnEventHandler:
 720              	.LFB62:
 182:main.c        **** 
 183:main.c        **** void freeHandBtnEventHandler(void)
 184:main.c        **** {
 721              		.loc 1 184 1
 722              		.cfi_startproc
 723              		@ args = 0, pretend = 0, frame = 0
 724              		@ frame_needed = 0, uses_anonymous_args = 0
 725              		@ link register save eliminated.
 726              	@ main.c:185:     shape = 'f';
 185:main.c        ****     shape = 'f';
 727              		.loc 1 185 11
 728 015c 024B     		ldr	r3, .L15	@ tmp113,
 729 015e 6622     		movs	r2, #102	@ tmp114,
 730 0160 1A70     		strb	r2, [r3]	@ tmp115, shape
 731              	@ main.c:186: }
 186:main.c        **** }
 732              		.loc 1 186 1
 733 0162 00BF     		nop	
 734 0164 7047     		bx	lr	@
 735              	.L16:
 736 0166 00BF     		.align	2
 737              	.L15:
 738 0168 00000000 		.word	shape
 739              		.cfi_endproc
 740              	.LFE62:
 741              		.size	freeHandBtnEventHandler, .-freeHandBtnEventHandler
 742              		.align	1
 743              		.global	lineBtnEventHandler
 744              		.syntax unified
 745              		.thumb
 746              		.thumb_func
 747              		.type	lineBtnEventHandler, %function
 748              	lineBtnEventHandler:
 749              	.LFB63:
 187:main.c        **** 
 188:main.c        **** void lineBtnEventHandler(void)
 189:main.c        **** {
ARM GAS  C:\Users\Aayush\AppData\Local\Temp\ccHTsoxP.s 			page 18


 750              		.loc 1 189 1
 751              		.cfi_startproc
 752              		@ args = 0, pretend = 0, frame = 0
 753              		@ frame_needed = 0, uses_anonymous_args = 0
 754              		@ link register save eliminated.
 755              	@ main.c:190:     shape = 'l';
 190:main.c        ****     shape = 'l';
 756              		.loc 1 190 11
 757 016c 024B     		ldr	r3, .L18	@ tmp113,
 758 016e 6C22     		movs	r2, #108	@ tmp114,
 759 0170 1A70     		strb	r2, [r3]	@ tmp115, shape
 760              	@ main.c:191: }
 191:main.c        **** }
 761              		.loc 1 191 1
 762 0172 00BF     		nop	
 763 0174 7047     		bx	lr	@
 764              	.L19:
 765 0176 00BF     		.align	2
 766              	.L18:
 767 0178 00000000 		.word	shape
 768              		.cfi_endproc
 769              	.LFE63:
 770              		.size	lineBtnEventHandler, .-lineBtnEventHandler
 771              		.align	1
 772              		.global	circleBtnEventHandler
 773              		.syntax unified
 774              		.thumb
 775              		.thumb_func
 776              		.type	circleBtnEventHandler, %function
 777              	circleBtnEventHandler:
 778              	.LFB64:
 192:main.c        **** 
 193:main.c        **** void circleBtnEventHandler(void)
 194:main.c        **** {
 779              		.loc 1 194 1
 780              		.cfi_startproc
 781              		@ args = 0, pretend = 0, frame = 0
 782              		@ frame_needed = 0, uses_anonymous_args = 0
 783              		@ link register save eliminated.
 784              	@ main.c:195:     shape = 'c';
 195:main.c        ****     shape = 'c';
 785              		.loc 1 195 11
 786 017c 024B     		ldr	r3, .L21	@ tmp113,
 787 017e 6322     		movs	r2, #99	@ tmp114,
 788 0180 1A70     		strb	r2, [r3]	@ tmp115, shape
 789              	@ main.c:196: }
 196:main.c        **** }
 790              		.loc 1 196 1
 791 0182 00BF     		nop	
 792 0184 7047     		bx	lr	@
 793              	.L22:
 794 0186 00BF     		.align	2
 795              	.L21:
 796 0188 00000000 		.word	shape
 797              		.cfi_endproc
 798              	.LFE64:
 799              		.size	circleBtnEventHandler, .-circleBtnEventHandler
ARM GAS  C:\Users\Aayush\AppData\Local\Temp\ccHTsoxP.s 			page 19


 800              		.align	1
 801              		.global	rectangleBtnEventHandler
 802              		.syntax unified
 803              		.thumb
 804              		.thumb_func
 805              		.type	rectangleBtnEventHandler, %function
 806              	rectangleBtnEventHandler:
 807              	.LFB65:
 197:main.c        **** 
 198:main.c        **** void rectangleBtnEventHandler(void)
 199:main.c        **** {
 808              		.loc 1 199 1
 809              		.cfi_startproc
 810              		@ args = 0, pretend = 0, frame = 0
 811              		@ frame_needed = 0, uses_anonymous_args = 0
 812              		@ link register save eliminated.
 813              	@ main.c:200:     shape = 'r';
 200:main.c        ****     shape = 'r';
 814              		.loc 1 200 11
 815 018c 024B     		ldr	r3, .L24	@ tmp113,
 816 018e 7222     		movs	r2, #114	@ tmp114,
 817 0190 1A70     		strb	r2, [r3]	@ tmp115, shape
 818              	@ main.c:201: }
 201:main.c        **** }
 819              		.loc 1 201 1
 820 0192 00BF     		nop	
 821 0194 7047     		bx	lr	@
 822              	.L25:
 823 0196 00BF     		.align	2
 824              	.L24:
 825 0198 00000000 		.word	shape
 826              		.cfi_endproc
 827              	.LFE65:
 828              		.size	rectangleBtnEventHandler, .-rectangleBtnEventHandler
 829              		.section	.rodata
 830 00b3 00       		.align	2
 831              	.LC11:
 832 00b4 53415645 		.ascii	"SAVED\000"
 832      4400
 833              		.text
 834              		.align	1
 835              		.global	saveBtnEventHandler
 836              		.syntax unified
 837              		.thumb
 838              		.thumb_func
 839              		.type	saveBtnEventHandler, %function
 840              	saveBtnEventHandler:
 841              	.LFB66:
 202:main.c        **** 
 203:main.c        **** void saveBtnEventHandler(void)
 204:main.c        **** {
 842              		.loc 1 204 1
 843              		.cfi_startproc
 844              		@ args = 0, pretend = 0, frame = 0
 845              		@ frame_needed = 0, uses_anonymous_args = 0
 846 019c 00B5     		push	{lr}	@
 847              	.LCFI3:
ARM GAS  C:\Users\Aayush\AppData\Local\Temp\ccHTsoxP.s 			page 20


 848              		.cfi_def_cfa_offset 4
 849              		.cfi_offset 14, -4
 850 019e 83B0     		sub	sp, sp, #12	@,,
 851              	.LCFI4:
 852              		.cfi_def_cfa_offset 16
 853              	@ main.c:205:     gfxDrawString(10, 54, "SAVED", enGfxFont_8X16, BLACK, WHITE);
 205:main.c        ****     gfxDrawString(10, 54, "SAVED", enGfxFont_8X16, BLACK, WHITE);
 854              		.loc 1 205 5
 855 01a0 4FF6FF73 		movw	r3, #65535	@ tmp113,
 856 01a4 0193     		str	r3, [sp, #4]	@ tmp113,
 857 01a6 0023     		movs	r3, #0	@ tmp114,
 858 01a8 0093     		str	r3, [sp]	@ tmp114,
 859 01aa 0123     		movs	r3, #1	@,
 860 01ac 044A     		ldr	r2, .L27	@,
 861 01ae 3621     		movs	r1, #54	@,
 862 01b0 0A20     		movs	r0, #10	@,
 863 01b2 FFF7FEFF 		bl	gfxDrawString		@
 864              	@ main.c:206: }
 206:main.c        **** }
 865              		.loc 1 206 1
 866 01b6 00BF     		nop	
 867 01b8 03B0     		add	sp, sp, #12	@,,
 868              	.LCFI5:
 869              		.cfi_def_cfa_offset 4
 870              		@ sp needed	@
 871 01ba 5DF804FB 		ldr	pc, [sp], #4	@
 872              	.L28:
 873 01be 00BF     		.align	2
 874              	.L27:
 875 01c0 B4000000 		.word	.LC11
 876              		.cfi_endproc
 877              	.LFE66:
 878              		.size	saveBtnEventHandler, .-saveBtnEventHandler
 879              		.section	.rodata
 880 00ba 0000     		.align	2
 881              	.LC12:
 882 00bc 53415645 		.ascii	"SAVE\000"
 882      00
 883              		.text
 884              		.align	1
 885              		.global	homeScreen
 886              		.syntax unified
 887              		.thumb
 888              		.thumb_func
 889              		.type	homeScreen, %function
 890              	homeScreen:
 891              	.LFB67:
 207:main.c        **** 
 208:main.c        **** void homeScreen(void)
 209:main.c        **** {
 892              		.loc 1 209 1
 893              		.cfi_startproc
 894              		@ args = 0, pretend = 0, frame = 0
 895              		@ frame_needed = 0, uses_anonymous_args = 0
 896 01c4 00B5     		push	{lr}	@
 897              	.LCFI6:
 898              		.cfi_def_cfa_offset 4
ARM GAS  C:\Users\Aayush\AppData\Local\Temp\ccHTsoxP.s 			page 21


 899              		.cfi_offset 14, -4
 900 01c6 83B0     		sub	sp, sp, #12	@,,
 901              	.LCFI7:
 902              		.cfi_def_cfa_offset 16
 903              	@ main.c:210:     setWindow(windowID);
 210:main.c        ****     setWindow(windowID);
 904              		.loc 1 210 5
 905 01c8 124B     		ldr	r3, .L30	@ tmp114,
 906 01ca 1B78     		ldrb	r3, [r3]	@ zero_extendqisi2	@ windowID.10_1, windowID
 907 01cc 1846     		mov	r0, r3	@, windowID.10_1
 908 01ce FFF7FEFF 		bl	setWindow		@
 909              	@ main.c:211:     gfxDrawLine(76, 5, 44, 39);
 211:main.c        ****     gfxDrawLine(76, 5, 44, 39);
 910              		.loc 1 211 5
 911 01d2 2723     		movs	r3, #39	@,
 912 01d4 2C22     		movs	r2, #44	@,
 913 01d6 0521     		movs	r1, #5	@,
 914 01d8 4C20     		movs	r0, #76	@,
 915 01da FFF7FEFF 		bl	gfxDrawLine		@
 916              	@ main.c:212:     gfxDrawCircle(100, 21, 17);
 212:main.c        ****     gfxDrawCircle(100, 21, 17);
 917              		.loc 1 212 5
 918 01de 1122     		movs	r2, #17	@,
 919 01e0 1521     		movs	r1, #21	@,
 920 01e2 6420     		movs	r0, #100	@,
 921 01e4 FFF7FEFF 		bl	gfxDrawCircle		@
 922              	@ main.c:213:     gfxDrawRectangle(124, 4, 156, 39);
 213:main.c        ****     gfxDrawRectangle(124, 4, 156, 39);
 923              		.loc 1 213 5
 924 01e8 2723     		movs	r3, #39	@,
 925 01ea 9C22     		movs	r2, #156	@,
 926 01ec 0421     		movs	r1, #4	@,
 927 01ee 7C20     		movs	r0, #124	@,
 928 01f0 FFF7FEFF 		bl	gfxDrawRectangle		@
 929              	@ main.c:214:     gfxDrawString(201, 14, "SAVE", enGfxFont_8X16, BLACK, WHITE);
 214:main.c        ****     gfxDrawString(201, 14, "SAVE", enGfxFont_8X16, BLACK, WHITE);
 930              		.loc 1 214 5
 931 01f4 4FF6FF73 		movw	r3, #65535	@ tmp115,
 932 01f8 0193     		str	r3, [sp, #4]	@ tmp115,
 933 01fa 0023     		movs	r3, #0	@ tmp116,
 934 01fc 0093     		str	r3, [sp]	@ tmp116,
 935 01fe 0123     		movs	r3, #1	@,
 936 0200 054A     		ldr	r2, .L30+4	@,
 937 0202 0E21     		movs	r1, #14	@,
 938 0204 C920     		movs	r0, #201	@,
 939 0206 FFF7FEFF 		bl	gfxDrawString		@
 940              	@ main.c:215: }
 215:main.c        **** }
 941              		.loc 1 215 1
 942 020a 00BF     		nop	
 943 020c 03B0     		add	sp, sp, #12	@,,
 944              	.LCFI8:
 945              		.cfi_def_cfa_offset 4
 946              		@ sp needed	@
 947 020e 5DF804FB 		ldr	pc, [sp], #4	@
 948              	.L31:
 949 0212 00BF     		.align	2
ARM GAS  C:\Users\Aayush\AppData\Local\Temp\ccHTsoxP.s 			page 22


 950              	.L30:
 951 0214 00000000 		.word	windowID
 952 0218 BC000000 		.word	.LC12
 953              		.cfi_endproc
 954              	.LFE67:
 955              		.size	homeScreen, .-homeScreen
 956              		.align	1
 957              		.global	clearscreenBtnEventHandler
 958              		.syntax unified
 959              		.thumb
 960              		.thumb_func
 961              		.type	clearscreenBtnEventHandler, %function
 962              	clearscreenBtnEventHandler:
 963              	.LFB68:
 216:main.c        **** 
 217:main.c        **** void clearscreenBtnEventHandler(void)
 218:main.c        **** {
 964              		.loc 1 218 1
 965              		.cfi_startproc
 966              		@ args = 0, pretend = 0, frame = 0
 967              		@ frame_needed = 0, uses_anonymous_args = 0
 968 021c 00B5     		push	{lr}	@
 969              	.LCFI9:
 970              		.cfi_def_cfa_offset 4
 971              		.cfi_offset 14, -4
 972 021e 83B0     		sub	sp, sp, #12	@,,
 973              	.LCFI10:
 974              		.cfi_def_cfa_offset 16
 975              	@ main.c:219:     gfxFillArea(2, 45, 238, 318, WHITE);
 219:main.c        ****     gfxFillArea(2, 45, 238, 318, WHITE);
 976              		.loc 1 219 5
 977 0220 4FF6FF73 		movw	r3, #65535	@ tmp113,
 978 0224 0093     		str	r3, [sp]	@ tmp113,
 979 0226 4FF49F73 		mov	r3, #318	@,
 980 022a EE22     		movs	r2, #238	@,
 981 022c 2D21     		movs	r1, #45	@,
 982 022e 0220     		movs	r0, #2	@,
 983 0230 FFF7FEFF 		bl	gfxFillArea		@
 984              	@ main.c:220: }
 220:main.c        **** }
 985              		.loc 1 220 1
 986 0234 00BF     		nop	
 987 0236 03B0     		add	sp, sp, #12	@,,
 988              	.LCFI11:
 989              		.cfi_def_cfa_offset 4
 990              		@ sp needed	@
 991 0238 5DF804FB 		ldr	pc, [sp], #4	@
 992              		.cfi_endproc
 993              	.LFE68:
 994              		.size	clearscreenBtnEventHandler, .-clearscreenBtnEventHandler
 995              		.align	1
 996              		.global	canvasEventHandler
 997              		.syntax unified
 998              		.thumb
 999              		.thumb_func
 1000              		.type	canvasEventHandler, %function
 1001              	canvasEventHandler:
ARM GAS  C:\Users\Aayush\AppData\Local\Temp\ccHTsoxP.s 			page 23


 1002              	.LFB69:
 221:main.c        **** 
 222:main.c        **** void canvasEventHandler(void)
 223:main.c        **** {
 1003              		.loc 1 223 1
 1004              		.cfi_startproc
 1005              		@ args = 0, pretend = 0, frame = 8
 1006              		@ frame_needed = 0, uses_anonymous_args = 0
 1007 023c 00B5     		push	{lr}	@
 1008              	.LCFI12:
 1009              		.cfi_def_cfa_offset 4
 1010              		.cfi_offset 14, -4
 1011 023e 83B0     		sub	sp, sp, #12	@,,
 1012              	.LCFI13:
 1013              		.cfi_def_cfa_offset 16
 1014              	@ main.c:225:     switch (shape)
 224:main.c        **** 
 225:main.c        ****     switch (shape)
 1015              		.loc 1 225 5
 1016 0240 824B     		ldr	r3, .L59	@ tmp181,
 1017 0242 1B78     		ldrb	r3, [r3]	@ zero_extendqisi2	@ shape.11_1, shape
 1018 0244 633B     		subs	r3, r3, #99	@ tmp182, _2,
 1019 0246 0F2B     		cmp	r3, #15	@ tmp182,
 1020 0248 00F2F480 		bhi	.L54		@
 1021 024c 01A2     		adr	r2, .L36	@ tmp244,
 1022 024e 52F823F0 		ldr	pc, [r2, r3, lsl #2]	@ tmp244, tmp182
 1023 0252 00BF     		.p2align 2
 1024              	.L36:
 1025 0254 4D030000 		.word	.L47+1
 1026 0258 35040000 		.word	.L54+1
 1027 025c 35040000 		.word	.L54+1
 1028 0260 95020000 		.word	.L38+1
 1029 0264 35040000 		.word	.L54+1
 1030 0268 35040000 		.word	.L54+1
 1031 026c 35040000 		.word	.L54+1
 1032 0270 35040000 		.word	.L54+1
 1033 0274 35040000 		.word	.L54+1
 1034 0278 E7020000 		.word	.L43+1
 1035 027c 35040000 		.word	.L54+1
 1036 0280 35040000 		.word	.L54+1
 1037 0284 35040000 		.word	.L54+1
 1038 0288 35040000 		.word	.L54+1
 1039 028c 35040000 		.word	.L54+1
 1040 0290 F1030000 		.word	.L51+1
 1041              		.p2align 1
 1042              	.L38:
 1043              	@ main.c:228:         gfxDrawPixels(i, j);
 226:main.c        ****     {
 227:main.c        ****     case 'f':
 228:main.c        ****         gfxDrawPixels(i, j);
 1044              		.loc 1 228 9
 1045 0294 6E4B     		ldr	r3, .L59+4	@ tmp183,
 1046 0296 1B68     		ldr	r3, [r3]	@ i.12_3, i
 1047 0298 6E4A     		ldr	r2, .L59+8	@ tmp184,
 1048 029a 1268     		ldr	r2, [r2]	@ j.13_4, j
 1049 029c 1146     		mov	r1, r2	@, j.13_4
 1050 029e 1846     		mov	r0, r3	@, i.12_3
ARM GAS  C:\Users\Aayush\AppData\Local\Temp\ccHTsoxP.s 			page 24


 1051 02a0 FFF7FEFF 		bl	gfxDrawPixels		@
 1052              	@ main.c:229:         while (touchAvailable(&a1, &b1) == enBooleanTrue)
 229:main.c        ****         while (touchAvailable(&a1, &b1) == enBooleanTrue)
 1053              		.loc 1 229 15
 1054 02a4 0BE0     		b	.L40		@
 1055              	.L41:
 1056              	@ main.c:231:             if (b1 >= 45)
 230:main.c        ****         {
 231:main.c        ****             if (b1 >= 45)
 1057              		.loc 1 231 20
 1058 02a6 6C4B     		ldr	r3, .L59+12	@ tmp185,
 1059 02a8 1B68     		ldr	r3, [r3]	@ b1.14_5, b1
 1060              	@ main.c:231:             if (b1 >= 45)
 1061              		.loc 1 231 16
 1062 02aa 2C2B     		cmp	r3, #44	@ b1.14_5,
 1063 02ac 07D9     		bls	.L40		@,
 1064              	@ main.c:233:                 gfxDrawPixels(a1, b1);
 232:main.c        ****             {
 233:main.c        ****                 gfxDrawPixels(a1, b1);
 1065              		.loc 1 233 17
 1066 02ae 6B4B     		ldr	r3, .L59+16	@ tmp186,
 1067 02b0 1B68     		ldr	r3, [r3]	@ a1.15_6, a1
 1068 02b2 694A     		ldr	r2, .L59+12	@ tmp187,
 1069 02b4 1268     		ldr	r2, [r2]	@ b1.16_7, b1
 1070 02b6 1146     		mov	r1, r2	@, b1.16_7
 1071 02b8 1846     		mov	r0, r3	@, a1.15_6
 1072 02ba FFF7FEFF 		bl	gfxDrawPixels		@
 1073              	.L40:
 1074              	@ main.c:229:         while (touchAvailable(&a1, &b1) == enBooleanTrue)
 229:main.c        ****         {
 1075              		.loc 1 229 16
 1076 02be 6649     		ldr	r1, .L59+12	@,
 1077 02c0 6648     		ldr	r0, .L59+16	@,
 1078 02c2 FFF7FEFF 		bl	touchAvailable		@
 1079 02c6 0346     		mov	r3, r0	@ tmp188,
 1080              	@ main.c:229:         while (touchAvailable(&a1, &b1) == enBooleanTrue)
 229:main.c        ****         {
 1081              		.loc 1 229 15
 1082 02c8 012B     		cmp	r3, #1	@ _8,
 1083 02ca ECD0     		beq	.L41		@,
 1084              	@ main.c:236:         break;
 234:main.c        ****             }
 235:main.c        ****         }
 236:main.c        ****         break;
 1085              		.loc 1 236 9
 1086 02cc B9E0     		b	.L42		@
 1087              	.L44:
 1088              	@ main.c:240:             if (b2 >= 45)
 237:main.c        ****     case 'l':
 238:main.c        ****         while (touchAvailable(&a2, &b2) == enBooleanTrue)
 239:main.c        ****         {
 240:main.c        ****             if (b2 >= 45)
 1089              		.loc 1 240 20
 1090 02ce 644B     		ldr	r3, .L59+20	@ tmp189,
 1091 02d0 1B68     		ldr	r3, [r3]	@ b2.17_9, b2
 1092              	@ main.c:240:             if (b2 >= 45)
 1093              		.loc 1 240 16
ARM GAS  C:\Users\Aayush\AppData\Local\Temp\ccHTsoxP.s 			page 25


 1094 02d2 2C2B     		cmp	r3, #44	@ b2.17_9,
 1095 02d4 07D9     		bls	.L43		@,
 1096              	@ main.c:242:                 a1 = a2;
 241:main.c        ****             {
 242:main.c        ****                 a1 = a2;
 1097              		.loc 1 242 20
 1098 02d6 634B     		ldr	r3, .L59+24	@ tmp190,
 1099 02d8 1B68     		ldr	r3, [r3]	@ a2.18_10, a2
 1100 02da 604A     		ldr	r2, .L59+16	@ tmp191,
 1101 02dc 1360     		str	r3, [r2]	@ a2.18_10, a1
 1102              	@ main.c:243:                 b1 = b2;
 243:main.c        ****                 b1 = b2;
 1103              		.loc 1 243 20
 1104 02de 604B     		ldr	r3, .L59+20	@ tmp192,
 1105 02e0 1B68     		ldr	r3, [r3]	@ b2.19_11, b2
 1106 02e2 5D4A     		ldr	r2, .L59+12	@ tmp193,
 1107 02e4 1360     		str	r3, [r2]	@ b2.19_11, b1
 1108              	.L43:
 1109              	@ main.c:238:         while (touchAvailable(&a2, &b2) == enBooleanTrue)
 238:main.c        ****         {
 1110              		.loc 1 238 16
 1111 02e6 5E49     		ldr	r1, .L59+20	@,
 1112 02e8 5E48     		ldr	r0, .L59+24	@,
 1113 02ea FFF7FEFF 		bl	touchAvailable		@
 1114 02ee 0346     		mov	r3, r0	@ tmp194,
 1115              	@ main.c:238:         while (touchAvailable(&a2, &b2) == enBooleanTrue)
 238:main.c        ****         {
 1116              		.loc 1 238 15
 1117 02f0 012B     		cmp	r3, #1	@ _12,
 1118 02f2 ECD0     		beq	.L44		@,
 1119              	@ main.c:246:         if ((i != a1 || j != b1) && b1 >= 45)
 244:main.c        ****             }
 245:main.c        ****         }
 246:main.c        ****         if ((i != a1 || j != b1) && b1 >= 45)
 1120              		.loc 1 246 16
 1121 02f4 564B     		ldr	r3, .L59+4	@ tmp195,
 1122 02f6 1A68     		ldr	r2, [r3]	@ i.20_13, i
 1123 02f8 584B     		ldr	r3, .L59+16	@ tmp196,
 1124 02fa 1B68     		ldr	r3, [r3]	@ a1.21_14, a1
 1125              	@ main.c:246:         if ((i != a1 || j != b1) && b1 >= 45)
 1126              		.loc 1 246 12
 1127 02fc 9A42     		cmp	r2, r3	@ i.20_13, a1.21_14
 1128 02fe 06D1     		bne	.L45		@,
 1129              	@ main.c:246:         if ((i != a1 || j != b1) && b1 >= 45)
 1130              		.loc 1 246 27 discriminator 2
 1131 0300 544B     		ldr	r3, .L59+8	@ tmp197,
 1132 0302 1A68     		ldr	r2, [r3]	@ j.22_15, j
 1133 0304 544B     		ldr	r3, .L59+12	@ tmp198,
 1134 0306 1B68     		ldr	r3, [r3]	@ b1.23_16, b1
 1135              	@ main.c:246:         if ((i != a1 || j != b1) && b1 >= 45)
 1136              		.loc 1 246 22 discriminator 2
 1137 0308 9A42     		cmp	r2, r3	@ j.22_15, b1.23_16
 1138 030a 00F09580 		beq	.L55		@,
 1139              	.L45:
 1140              	@ main.c:246:         if ((i != a1 || j != b1) && b1 >= 45)
 1141              		.loc 1 246 40 discriminator 3
 1142 030e 524B     		ldr	r3, .L59+12	@ tmp199,
ARM GAS  C:\Users\Aayush\AppData\Local\Temp\ccHTsoxP.s 			page 26


 1143 0310 1B68     		ldr	r3, [r3]	@ b1.24_17, b1
 1144              	@ main.c:246:         if ((i != a1 || j != b1) && b1 >= 45)
 1145              		.loc 1 246 34 discriminator 3
 1146 0312 2C2B     		cmp	r3, #44	@ b1.24_17,
 1147 0314 40F29080 		bls	.L55		@,
 1148              	@ main.c:248:             gfxDrawLine(i, j, a1, b1);
 247:main.c        ****         {
 248:main.c        ****             gfxDrawLine(i, j, a1, b1);
 1149              		.loc 1 248 13
 1150 0318 4D4B     		ldr	r3, .L59+4	@ tmp200,
 1151 031a 1B68     		ldr	r3, [r3]	@ i.25_18, i
 1152 031c 1846     		mov	r0, r3	@ i.26_19, i.25_18
 1153 031e 4D4B     		ldr	r3, .L59+8	@ tmp201,
 1154 0320 1B68     		ldr	r3, [r3]	@ j.27_20, j
 1155 0322 1946     		mov	r1, r3	@ j.28_21, j.27_20
 1156 0324 4D4B     		ldr	r3, .L59+16	@ tmp202,
 1157 0326 1B68     		ldr	r3, [r3]	@ a1.29_22, a1
 1158 0328 1A46     		mov	r2, r3	@ a1.30_23, a1.29_22
 1159 032a 4B4B     		ldr	r3, .L59+12	@ tmp203,
 1160 032c 1B68     		ldr	r3, [r3]	@ b1.31_24, b1
 1161 032e FFF7FEFF 		bl	gfxDrawLine		@
 1162              	@ main.c:250:         break;
 249:main.c        ****         }
 250:main.c        ****         break;
 1163              		.loc 1 250 9
 1164 0332 81E0     		b	.L55		@
 1165              	.L48:
 1166              	@ main.c:254:             if (b2 >= 45)
 251:main.c        ****     case 'c':
 252:main.c        ****         while (touchAvailable(&a2, &b2) == enBooleanTrue)
 253:main.c        ****         {
 254:main.c        ****             if (b2 >= 45)
 1167              		.loc 1 254 20
 1168 0334 4A4B     		ldr	r3, .L59+20	@ tmp204,
 1169 0336 1B68     		ldr	r3, [r3]	@ b2.33_26, b2
 1170              	@ main.c:254:             if (b2 >= 45)
 1171              		.loc 1 254 16
 1172 0338 2C2B     		cmp	r3, #44	@ b2.33_26,
 1173 033a 07D9     		bls	.L47		@,
 1174              	@ main.c:256:                 a1 = a2;
 255:main.c        ****             {
 256:main.c        ****                 a1 = a2;
 1175              		.loc 1 256 20
 1176 033c 494B     		ldr	r3, .L59+24	@ tmp205,
 1177 033e 1B68     		ldr	r3, [r3]	@ a2.34_27, a2
 1178 0340 464A     		ldr	r2, .L59+16	@ tmp206,
 1179 0342 1360     		str	r3, [r2]	@ a2.34_27, a1
 1180              	@ main.c:257:                 b1 = b2;
 257:main.c        ****                 b1 = b2;
 1181              		.loc 1 257 20
 1182 0344 464B     		ldr	r3, .L59+20	@ tmp207,
 1183 0346 1B68     		ldr	r3, [r3]	@ b2.35_28, b2
 1184 0348 434A     		ldr	r2, .L59+12	@ tmp208,
 1185 034a 1360     		str	r3, [r2]	@ b2.35_28, b1
 1186              	.L47:
 1187              	@ main.c:252:         while (touchAvailable(&a2, &b2) == enBooleanTrue)
 252:main.c        ****         {
ARM GAS  C:\Users\Aayush\AppData\Local\Temp\ccHTsoxP.s 			page 27


 1188              		.loc 1 252 16
 1189 034c 4449     		ldr	r1, .L59+20	@,
 1190 034e 4548     		ldr	r0, .L59+24	@,
 1191 0350 FFF7FEFF 		bl	touchAvailable		@
 1192 0354 0346     		mov	r3, r0	@ tmp209,
 1193              	@ main.c:252:         while (touchAvailable(&a2, &b2) == enBooleanTrue)
 252:main.c        ****         {
 1194              		.loc 1 252 15
 1195 0356 012B     		cmp	r3, #1	@ _29,
 1196 0358 ECD0     		beq	.L48		@,
 1197              	@ main.c:260:         if ((i != a1 || j != b1) && b1 >= 45)
 258:main.c        ****             }
 259:main.c        ****         }
 260:main.c        ****         if ((i != a1 || j != b1) && b1 >= 45)
 1198              		.loc 1 260 16
 1199 035a 3D4B     		ldr	r3, .L59+4	@ tmp210,
 1200 035c 1A68     		ldr	r2, [r3]	@ i.36_30, i
 1201 035e 3F4B     		ldr	r3, .L59+16	@ tmp211,
 1202 0360 1B68     		ldr	r3, [r3]	@ a1.37_31, a1
 1203              	@ main.c:260:         if ((i != a1 || j != b1) && b1 >= 45)
 1204              		.loc 1 260 12
 1205 0362 9A42     		cmp	r2, r3	@ i.36_30, a1.37_31
 1206 0364 05D1     		bne	.L49		@,
 1207              	@ main.c:260:         if ((i != a1 || j != b1) && b1 >= 45)
 1208              		.loc 1 260 27 discriminator 2
 1209 0366 3B4B     		ldr	r3, .L59+8	@ tmp212,
 1210 0368 1A68     		ldr	r2, [r3]	@ j.38_32, j
 1211 036a 3B4B     		ldr	r3, .L59+12	@ tmp213,
 1212 036c 1B68     		ldr	r3, [r3]	@ b1.39_33, b1
 1213              	@ main.c:260:         if ((i != a1 || j != b1) && b1 >= 45)
 1214              		.loc 1 260 22 discriminator 2
 1215 036e 9A42     		cmp	r2, r3	@ j.38_32, b1.39_33
 1216 0370 64D0     		beq	.L56		@,
 1217              	.L49:
 1218              	@ main.c:260:         if ((i != a1 || j != b1) && b1 >= 45)
 1219              		.loc 1 260 40 discriminator 3
 1220 0372 394B     		ldr	r3, .L59+12	@ tmp214,
 1221 0374 1B68     		ldr	r3, [r3]	@ b1.40_34, b1
 1222              	@ main.c:260:         if ((i != a1 || j != b1) && b1 >= 45)
 1223              		.loc 1 260 34 discriminator 3
 1224 0376 2C2B     		cmp	r3, #44	@ b1.40_34,
 1225 0378 60D9     		bls	.L56		@,
 1226              	.LBB2:
 1227              	@ main.c:262:             PFdword radius, tmp = ((i - a1) * (i - a1)) + ((j - b1) * (j - b1));
 261:main.c        ****         {
 262:main.c        ****             PFdword radius, tmp = ((i - a1) * (i - a1)) + ((j - b1) * (j - b1));
 1228              		.loc 1 262 39
 1229 037a 354B     		ldr	r3, .L59+4	@ tmp215,
 1230 037c 1A68     		ldr	r2, [r3]	@ i.41_35, i
 1231 037e 374B     		ldr	r3, .L59+16	@ tmp216,
 1232 0380 1B68     		ldr	r3, [r3]	@ a1.42_36, a1
 1233 0382 D31A     		subs	r3, r2, r3	@ _37, i.41_35, a1.42_36
 1234              	@ main.c:262:             PFdword radius, tmp = ((i - a1) * (i - a1)) + ((j - b1) * (j - b1));
 1235              		.loc 1 262 50
 1236 0384 324A     		ldr	r2, .L59+4	@ tmp217,
 1237 0386 1168     		ldr	r1, [r2]	@ i.43_38, i
 1238 0388 344A     		ldr	r2, .L59+16	@ tmp218,
ARM GAS  C:\Users\Aayush\AppData\Local\Temp\ccHTsoxP.s 			page 28


 1239 038a 1268     		ldr	r2, [r2]	@ a1.44_39, a1
 1240 038c 8A1A     		subs	r2, r1, r2	@ _40, i.43_38, a1.44_39
 1241              	@ main.c:262:             PFdword radius, tmp = ((i - a1) * (i - a1)) + ((j - b1) * (j - b1));
 1242              		.loc 1 262 45
 1243 038e 03FB02F2 		mul	r2, r3, r2	@ _41, _37, _40
 1244              	@ main.c:262:             PFdword radius, tmp = ((i - a1) * (i - a1)) + ((j - b1) * (j - b1));
 1245              		.loc 1 262 63
 1246 0392 304B     		ldr	r3, .L59+8	@ tmp219,
 1247 0394 1968     		ldr	r1, [r3]	@ j.45_42, j
 1248 0396 304B     		ldr	r3, .L59+12	@ tmp220,
 1249 0398 1B68     		ldr	r3, [r3]	@ b1.46_43, b1
 1250 039a CB1A     		subs	r3, r1, r3	@ _44, j.45_42, b1.46_43
 1251              	@ main.c:262:             PFdword radius, tmp = ((i - a1) * (i - a1)) + ((j - b1) * (j - b1));
 1252              		.loc 1 262 74
 1253 039c 2D49     		ldr	r1, .L59+8	@ tmp221,
 1254 039e 0868     		ldr	r0, [r1]	@ j.47_45, j
 1255 03a0 2D49     		ldr	r1, .L59+12	@ tmp222,
 1256 03a2 0968     		ldr	r1, [r1]	@ b1.48_46, b1
 1257 03a4 411A     		subs	r1, r0, r1	@ _47, j.47_45, b1.48_46
 1258              	@ main.c:262:             PFdword radius, tmp = ((i - a1) * (i - a1)) + ((j - b1) * (j - b1));
 1259              		.loc 1 262 69
 1260 03a6 01FB03F3 		mul	r3, r1, r3	@ _48, _47, _44
 1261              	@ main.c:262:             PFdword radius, tmp = ((i - a1) * (i - a1)) + ((j - b1) * (j - b1));
 1262              		.loc 1 262 29
 1263 03aa 1344     		add	r3, r3, r2	@ tmp223, _41
 1264 03ac 0193     		str	r3, [sp, #4]	@ tmp223, tmp
 1265              	@ main.c:263:             radius = sqroot(tmp);
 263:main.c        ****             radius = sqroot(tmp);
 1266              		.loc 1 263 22
 1267 03ae 0198     		ldr	r0, [sp, #4]	@, tmp
 1268 03b0 FFF7FEFF 		bl	sqroot		@
 1269 03b4 0090     		str	r0, [sp]	@, radius
 1270              	@ main.c:265:             if (j - radius >= 45)
 264:main.c        ****             // if (i - radius >= 0 && i + radius >= 249 && j - radius >= 42 && j + radius <= 320) {
 265:main.c        ****             if (j - radius >= 45)
 1271              		.loc 1 265 19
 1272 03b6 274B     		ldr	r3, .L59+8	@ tmp224,
 1273 03b8 1A68     		ldr	r2, [r3]	@ j.49_49, j
 1274 03ba 009B     		ldr	r3, [sp]	@ tmp225, radius
 1275 03bc D31A     		subs	r3, r2, r3	@ _50, j.49_49, tmp225
 1276              	@ main.c:265:             if (j - radius >= 45)
 1277              		.loc 1 265 16
 1278 03be 2C2B     		cmp	r3, #44	@ _50,
 1279 03c0 3CD9     		bls	.L56		@,
 1280              	@ main.c:267:                 gfxDrawCircle(i, j, radius);
 266:main.c        ****             {
 267:main.c        ****                 gfxDrawCircle(i, j, radius);
 1281              		.loc 1 267 17
 1282 03c2 234B     		ldr	r3, .L59+4	@ tmp226,
 1283 03c4 1B68     		ldr	r3, [r3]	@ i.50_51, i
 1284 03c6 1846     		mov	r0, r3	@ i.51_52, i.50_51
 1285 03c8 224B     		ldr	r3, .L59+8	@ tmp227,
 1286 03ca 1B68     		ldr	r3, [r3]	@ j.52_53, j
 1287 03cc 1946     		mov	r1, r3	@ j.53_54, j.52_53
 1288 03ce 009B     		ldr	r3, [sp]	@ radius.54_55, radius
 1289 03d0 1A46     		mov	r2, r3	@, radius.54_55
 1290 03d2 FFF7FEFF 		bl	gfxDrawCircle		@
ARM GAS  C:\Users\Aayush\AppData\Local\Temp\ccHTsoxP.s 			page 29


 1291              	.LBE2:
 1292              	@ main.c:271:         break;
 268:main.c        ****             }
 269:main.c        ****         }
 270:main.c        **** 
 271:main.c        ****         break;
 1293              		.loc 1 271 9
 1294 03d6 31E0     		b	.L56		@
 1295              	.L52:
 1296              	@ main.c:275:             if (b2 >= 45)
 272:main.c        ****     case 'r':
 273:main.c        ****         while (touchAvailable(&a2, &b2) == enBooleanTrue)
 274:main.c        ****         {
 275:main.c        ****             if (b2 >= 45)
 1297              		.loc 1 275 20
 1298 03d8 214B     		ldr	r3, .L59+20	@ tmp228,
 1299 03da 1B68     		ldr	r3, [r3]	@ b2.55_56, b2
 1300              	@ main.c:275:             if (b2 >= 45)
 1301              		.loc 1 275 16
 1302 03dc 2C2B     		cmp	r3, #44	@ b2.55_56,
 1303 03de 07D9     		bls	.L51		@,
 1304              	@ main.c:277:                 a1 = a2;
 276:main.c        ****             {
 277:main.c        ****                 a1 = a2;
 1305              		.loc 1 277 20
 1306 03e0 204B     		ldr	r3, .L59+24	@ tmp229,
 1307 03e2 1B68     		ldr	r3, [r3]	@ a2.56_57, a2
 1308 03e4 1D4A     		ldr	r2, .L59+16	@ tmp230,
 1309 03e6 1360     		str	r3, [r2]	@ a2.56_57, a1
 1310              	@ main.c:278:                 b1 = b2;
 278:main.c        ****                 b1 = b2;
 1311              		.loc 1 278 20
 1312 03e8 1D4B     		ldr	r3, .L59+20	@ tmp231,
 1313 03ea 1B68     		ldr	r3, [r3]	@ b2.57_58, b2
 1314 03ec 1A4A     		ldr	r2, .L59+12	@ tmp232,
 1315 03ee 1360     		str	r3, [r2]	@ b2.57_58, b1
 1316              	.L51:
 1317              	@ main.c:273:         while (touchAvailable(&a2, &b2) == enBooleanTrue)
 273:main.c        ****         {
 1318              		.loc 1 273 16
 1319 03f0 1B49     		ldr	r1, .L59+20	@,
 1320 03f2 1C48     		ldr	r0, .L59+24	@,
 1321 03f4 FFF7FEFF 		bl	touchAvailable		@
 1322 03f8 0346     		mov	r3, r0	@ tmp233,
 1323              	@ main.c:273:         while (touchAvailable(&a2, &b2) == enBooleanTrue)
 273:main.c        ****         {
 1324              		.loc 1 273 15
 1325 03fa 012B     		cmp	r3, #1	@ _59,
 1326 03fc ECD0     		beq	.L52		@,
 1327              	@ main.c:281:         if ((i != a1 && j != b1) && b1 >= 45)
 279:main.c        ****             }
 280:main.c        ****         }
 281:main.c        ****         if ((i != a1 && j != b1) && b1 >= 45)
 1328              		.loc 1 281 16
 1329 03fe 144B     		ldr	r3, .L59+4	@ tmp234,
 1330 0400 1A68     		ldr	r2, [r3]	@ i.58_60, i
 1331 0402 164B     		ldr	r3, .L59+16	@ tmp235,
ARM GAS  C:\Users\Aayush\AppData\Local\Temp\ccHTsoxP.s 			page 30


 1332 0404 1B68     		ldr	r3, [r3]	@ a1.59_61, a1
 1333              	@ main.c:281:         if ((i != a1 && j != b1) && b1 >= 45)
 1334              		.loc 1 281 12
 1335 0406 9A42     		cmp	r2, r3	@ i.58_60, a1.59_61
 1336 0408 1AD0     		beq	.L57		@,
 1337              	@ main.c:281:         if ((i != a1 && j != b1) && b1 >= 45)
 1338              		.loc 1 281 27 discriminator 1
 1339 040a 124B     		ldr	r3, .L59+8	@ tmp236,
 1340 040c 1A68     		ldr	r2, [r3]	@ j.60_62, j
 1341 040e 124B     		ldr	r3, .L59+12	@ tmp237,
 1342 0410 1B68     		ldr	r3, [r3]	@ b1.61_63, b1
 1343              	@ main.c:281:         if ((i != a1 && j != b1) && b1 >= 45)
 1344              		.loc 1 281 22 discriminator 1
 1345 0412 9A42     		cmp	r2, r3	@ j.60_62, b1.61_63
 1346 0414 14D0     		beq	.L57		@,
 1347              	@ main.c:281:         if ((i != a1 && j != b1) && b1 >= 45)
 1348              		.loc 1 281 40 discriminator 2
 1349 0416 104B     		ldr	r3, .L59+12	@ tmp238,
 1350 0418 1B68     		ldr	r3, [r3]	@ b1.62_64, b1
 1351              	@ main.c:281:         if ((i != a1 && j != b1) && b1 >= 45)
 1352              		.loc 1 281 34 discriminator 2
 1353 041a 2C2B     		cmp	r3, #44	@ b1.62_64,
 1354 041c 10D9     		bls	.L57		@,
 1355              	@ main.c:283:             gfxDrawRectangle(i, j, a1, b1);
 282:main.c        ****         {
 283:main.c        ****             gfxDrawRectangle(i, j, a1, b1);
 1356              		.loc 1 283 13
 1357 041e 0C4B     		ldr	r3, .L59+4	@ tmp239,
 1358 0420 1868     		ldr	r0, [r3]	@ i.63_65, i
 1359 0422 0C4B     		ldr	r3, .L59+8	@ tmp240,
 1360 0424 1968     		ldr	r1, [r3]	@ j.64_66, j
 1361 0426 0D4B     		ldr	r3, .L59+16	@ tmp241,
 1362 0428 1A68     		ldr	r2, [r3]	@ a1.65_67, a1
 1363 042a 0B4B     		ldr	r3, .L59+12	@ tmp242,
 1364 042c 1B68     		ldr	r3, [r3]	@ b1.66_68, b1
 1365 042e FFF7FEFF 		bl	gfxDrawRectangle		@
 1366              	@ main.c:285:         break;
 284:main.c        ****         }
 285:main.c        ****         break;
 1367              		.loc 1 285 9
 1368 0432 05E0     		b	.L57		@
 1369              	.L54:
 1370              	@ main.c:287:         break;
 286:main.c        ****     default:
 287:main.c        ****         break;
 1371              		.loc 1 287 9
 1372 0434 00BF     		nop	
 1373 0436 04E0     		b	.L58		@
 1374              	.L55:
 1375              	@ main.c:250:         break;
 250:main.c        ****     case 'c':
 1376              		.loc 1 250 9
 1377 0438 00BF     		nop	
 1378 043a 02E0     		b	.L58		@
 1379              	.L56:
 1380              	@ main.c:271:         break;
 271:main.c        ****     case 'r':
ARM GAS  C:\Users\Aayush\AppData\Local\Temp\ccHTsoxP.s 			page 31


 1381              		.loc 1 271 9
 1382 043c 00BF     		nop	
 1383 043e 00E0     		b	.L58		@
 1384              	.L57:
 1385              	@ main.c:285:         break;
 285:main.c        ****     default:
 1386              		.loc 1 285 9
 1387 0440 00BF     		nop	
 1388              	.L42:
 1389              	.L58:
 1390              	@ main.c:289: }
 288:main.c        ****     }
 289:main.c        **** }...
 1391              		.loc 1 289 1
 1392 0442 00BF     		nop	
 1393 0444 03B0     		add	sp, sp, #12	@,,
 1394              	.LCFI14:
 1395              		.cfi_def_cfa_offset 4
 1396              		@ sp needed	@
 1397 0446 5DF804FB 		ldr	pc, [sp], #4	@
 1398              	.L60:
 1399 044a 00BF     		.align	2
 1400              	.L59:
 1401 044c 00000000 		.word	shape
 1402 0450 00000000 		.word	i
 1403 0454 00000000 		.word	j
 1404 0458 00000000 		.word	b1
 1405 045c 00000000 		.word	a1
 1406 0460 00000000 		.word	b2
 1407 0464 00000000 		.word	a2
 1408              		.cfi_endproc
 1409              	.LFE69:
 1410              		.size	canvasEventHandler, .-canvasEventHandler
 1411              	.Letext0:
 1412              		.file 2 "../../Include/PrimeFramework/prime_types.h"
 1413              		.file 3 "../../Include/AppHelper/graphics.h"
 1414              		.file 4 "../../Include/GameEngine/Graphics/gui.h"
 1415              		.section	.debug_info,"",%progbits
 1416              	.Ldebug_info0:
 1417 0000 32060000 		.4byte	0x632
 1418 0004 0200     		.2byte	0x2
 1419 0006 00000000 		.4byte	.Ldebug_abbrev0
 1420 000a 04       		.byte	0x4
 1421 000b 01       		.uleb128 0x1
 1422 000c C0020000 		.4byte	.LASF74
 1423 0010 0C       		.byte	0xc
 1424 0011 8E020000 		.4byte	.LASF75
 1425 0015 84030000 		.4byte	.LASF76
 1426 0019 00000000 		.4byte	.Ltext0
 1427 001d 68040000 		.4byte	.Letext0
 1428 0021 00000000 		.4byte	.Ldebug_line0
 1429 0025 02       		.uleb128 0x2
 1430 0026 04       		.byte	0x4
 1431 0027 05       		.byte	0x5
 1432 0028 696E7400 		.ascii	"int\000"
 1433 002c 03       		.uleb128 0x3
 1434 002d 04       		.byte	0x4
ARM GAS  C:\Users\Aayush\AppData\Local\Temp\ccHTsoxP.s 			page 32


 1435 002e 07       		.byte	0x7
 1436 002f E7010000 		.4byte	.LASF0
 1437 0033 03       		.uleb128 0x3
 1438 0034 01       		.byte	0x1
 1439 0035 06       		.byte	0x6
 1440 0036 98010000 		.4byte	.LASF1
 1441 003a 03       		.uleb128 0x3
 1442 003b 01       		.byte	0x1
 1443 003c 08       		.byte	0x8
 1444 003d 71010000 		.4byte	.LASF2
 1445 0041 03       		.uleb128 0x3
 1446 0042 02       		.byte	0x2
 1447 0043 05       		.byte	0x5
 1448 0044 98000000 		.4byte	.LASF3
 1449 0048 03       		.uleb128 0x3
 1450 0049 02       		.byte	0x2
 1451 004a 07       		.byte	0x7
 1452 004b 13020000 		.4byte	.LASF4
 1453 004f 03       		.uleb128 0x3
 1454 0050 04       		.byte	0x4
 1455 0051 05       		.byte	0x5
 1456 0052 F2000000 		.4byte	.LASF5
 1457 0056 03       		.uleb128 0x3
 1458 0057 04       		.byte	0x4
 1459 0058 07       		.byte	0x7
 1460 0059 95020000 		.4byte	.LASF6
 1461 005d 03       		.uleb128 0x3
 1462 005e 08       		.byte	0x8
 1463 005f 05       		.byte	0x5
 1464 0060 40040000 		.4byte	.LASF7
 1465 0064 03       		.uleb128 0x3
 1466 0065 08       		.byte	0x8
 1467 0066 07       		.byte	0x7
 1468 0067 A4010000 		.4byte	.LASF8
 1469 006b 04       		.uleb128 0x4
 1470 006c 3D000000 		.4byte	.LASF9
 1471 0070 02       		.byte	0x2
 1472 0071 3B       		.byte	0x3b
 1473 0072 1D       		.byte	0x1d
 1474 0073 3A000000 		.4byte	0x3a
 1475 0077 04       		.uleb128 0x4
 1476 0078 6E000000 		.4byte	.LASF10
 1477 007c 02       		.byte	0x2
 1478 007d 3F       		.byte	0x3f
 1479 007e 1D       		.byte	0x1d
 1480 007f 48000000 		.4byte	0x48
 1481 0083 04       		.uleb128 0x4
 1482 0084 EA000000 		.4byte	.LASF11
 1483 0088 02       		.byte	0x2
 1484 0089 43       		.byte	0x43
 1485 008a 1D       		.byte	0x1d
 1486 008b 56000000 		.4byte	0x56
 1487 008f 03       		.uleb128 0x3
 1488 0090 04       		.byte	0x4
 1489 0091 04       		.byte	0x4
 1490 0092 CB000000 		.4byte	.LASF12
 1491 0096 03       		.uleb128 0x3
ARM GAS  C:\Users\Aayush\AppData\Local\Temp\ccHTsoxP.s 			page 33


 1492 0097 08       		.byte	0x8
 1493 0098 04       		.byte	0x4
 1494 0099 00000000 		.4byte	.LASF13
 1495 009d 05       		.uleb128 0x5
 1496 009e 07       		.byte	0x7
 1497 009f 01       		.byte	0x1
 1498 00a0 3A000000 		.4byte	0x3a
 1499 00a4 02       		.byte	0x2
 1500 00a5 1C01     		.2byte	0x11c
 1501 00a7 01       		.byte	0x1
 1502 00a8 B9000000 		.4byte	0xb9
 1503 00ac 06       		.uleb128 0x6
 1504 00ad 5F000000 		.4byte	.LASF14
 1505 00b1 00       		.byte	0
 1506 00b2 06       		.uleb128 0x6
 1507 00b3 2A000000 		.4byte	.LASF15
 1508 00b7 01       		.byte	0x1
 1509 00b8 00       		.byte	0
 1510 00b9 07       		.uleb128 0x7
 1511 00ba 28010000 		.4byte	.LASF16
 1512 00be 02       		.byte	0x2
 1513 00bf 1F01     		.2byte	0x11f
 1514 00c1 03       		.byte	0x3
 1515 00c2 9D000000 		.4byte	0x9d
 1516 00c6 07       		.uleb128 0x7
 1517 00c7 5D020000 		.4byte	.LASF17
 1518 00cb 02       		.byte	0x2
 1519 00cc 3001     		.2byte	0x130
 1520 00ce 10       		.byte	0x10
 1521 00cf D3000000 		.4byte	0xd3
 1522 00d3 08       		.uleb128 0x8
 1523 00d4 04       		.byte	0x4
 1524 00d5 D9000000 		.4byte	0xd9
 1525 00d9 09       		.uleb128 0x9
 1526 00da 01       		.byte	0x1
 1527 00db 08       		.uleb128 0x8
 1528 00dc 04       		.byte	0x4
 1529 00dd E1000000 		.4byte	0xe1
 1530 00e1 03       		.uleb128 0x3
 1531 00e2 01       		.byte	0x1
 1532 00e3 08       		.byte	0x8
 1533 00e4 40020000 		.4byte	.LASF18
 1534 00e8 0A       		.uleb128 0xa
 1535 00e9 07       		.byte	0x7
 1536 00ea 01       		.byte	0x1
 1537 00eb 3A000000 		.4byte	0x3a
 1538 00ef 03       		.byte	0x3
 1539 00f0 39       		.byte	0x39
 1540 00f1 0D       		.byte	0xd
 1541 00f2 09010000 		.4byte	0x109
 1542 00f6 06       		.uleb128 0x6
 1543 00f7 D1000000 		.4byte	.LASF19
 1544 00fb 00       		.byte	0
 1545 00fc 06       		.uleb128 0x6
 1546 00fd 89010000 		.4byte	.LASF20
 1547 0101 01       		.byte	0x1
 1548 0102 06       		.uleb128 0x6
ARM GAS  C:\Users\Aayush\AppData\Local\Temp\ccHTsoxP.s 			page 34


 1549 0103 26020000 		.4byte	.LASF21
 1550 0107 02       		.byte	0x2
 1551 0108 00       		.byte	0
 1552 0109 04       		.uleb128 0x4
 1553 010a 5B030000 		.4byte	.LASF22
 1554 010e 03       		.byte	0x3
 1555 010f 3D       		.byte	0x3d
 1556 0110 02       		.byte	0x2
 1557 0111 E8000000 		.4byte	0xe8
 1558 0115 0B       		.uleb128 0xb
 1559 0116 04       		.byte	0x4
 1560 0117 04       		.byte	0x4
 1561 0118 22       		.byte	0x22
 1562 0119 09       		.byte	0x9
 1563 011a 3D010000 		.4byte	0x13d
 1564 011e 0C       		.uleb128 0xc
 1565 011f 34010000 		.4byte	.LASF23
 1566 0123 04       		.byte	0x4
 1567 0124 24       		.byte	0x24
 1568 0125 0C       		.byte	0xc
 1569 0126 77000000 		.4byte	0x77
 1570 012a 02       		.byte	0x2
 1571 012b 23       		.byte	0x23
 1572 012c 00       		.uleb128 0
 1573 012d 0C       		.uleb128 0xc
 1574 012e F4030000 		.4byte	.LASF24
 1575 0132 04       		.byte	0x4
 1576 0133 25       		.byte	0x25
 1577 0134 0C       		.byte	0xc
 1578 0135 77000000 		.4byte	0x77
 1579 0139 02       		.byte	0x2
 1580 013a 23       		.byte	0x23
 1581 013b 02       		.uleb128 0x2
 1582 013c 00       		.byte	0
 1583 013d 04       		.uleb128 0x4
 1584 013e 1D010000 		.4byte	.LASF25
 1585 0142 04       		.byte	0x4
 1586 0143 26       		.byte	0x26
 1587 0144 02       		.byte	0x2
 1588 0145 15010000 		.4byte	0x115
 1589 0149 0B       		.uleb128 0xb
 1590 014a 04       		.byte	0x4
 1591 014b 04       		.byte	0x4
 1592 014c 29       		.byte	0x29
 1593 014d 09       		.byte	0x9
 1594 014e 71010000 		.4byte	0x171
 1595 0152 0C       		.uleb128 0xc
 1596 0153 BE000000 		.4byte	.LASF26
 1597 0157 04       		.byte	0x4
 1598 0158 2B       		.byte	0x2b
 1599 0159 0C       		.byte	0xc
 1600 015a 77000000 		.4byte	0x77
 1601 015e 02       		.byte	0x2
 1602 015f 23       		.byte	0x23
 1603 0160 00       		.uleb128 0
 1604 0161 0C       		.uleb128 0xc
 1605 0162 E0010000 		.4byte	.LASF27
ARM GAS  C:\Users\Aayush\AppData\Local\Temp\ccHTsoxP.s 			page 35


 1606 0166 04       		.byte	0x4
 1607 0167 2C       		.byte	0x2c
 1608 0168 0C       		.byte	0xc
 1609 0169 77000000 		.4byte	0x77
 1610 016d 02       		.byte	0x2
 1611 016e 23       		.byte	0x23
 1612 016f 02       		.uleb128 0x2
 1613 0170 00       		.byte	0
 1614 0171 04       		.uleb128 0x4
 1615 0172 CF030000 		.4byte	.LASF28
 1616 0176 04       		.byte	0x4
 1617 0177 2D       		.byte	0x2d
 1618 0178 02       		.byte	0x2
 1619 0179 49010000 		.4byte	0x149
 1620 017d 04       		.uleb128 0x4
 1621 017e 0D040000 		.4byte	.LASF29
 1622 0182 04       		.byte	0x4
 1623 0183 37       		.byte	0x37
 1624 0184 1F       		.byte	0x1f
 1625 0185 89010000 		.4byte	0x189
 1626 0189 0D       		.uleb128 0xd
 1627 018a 0D040000 		.4byte	.LASF29
 1628 018e 10       		.byte	0x10
 1629 018f 04       		.byte	0x4
 1630 0190 41       		.byte	0x41
 1631 0191 08       		.byte	0x8
 1632 0192 E2010000 		.4byte	0x1e2
 1633 0196 0C       		.uleb128 0xc
 1634 0197 3B010000 		.4byte	.LASF30
 1635 019b 04       		.byte	0x4
 1636 019c 43       		.byte	0x43
 1637 019d 0B       		.byte	0xb
 1638 019e DB000000 		.4byte	0xdb
 1639 01a2 02       		.byte	0x2
 1640 01a3 23       		.byte	0x23
 1641 01a4 00       		.uleb128 0
 1642 01a5 0C       		.uleb128 0xc
 1643 01a6 4A020000 		.4byte	.LASF31
 1644 01aa 04       		.byte	0x4
 1645 01ab 44       		.byte	0x44
 1646 01ac 10       		.byte	0x10
 1647 01ad 3D010000 		.4byte	0x13d
 1648 01b1 02       		.byte	0x2
 1649 01b2 23       		.byte	0x23
 1650 01b3 04       		.uleb128 0x4
 1651 01b4 0C       		.uleb128 0xc
 1652 01b5 6F020000 		.4byte	.LASF32
 1653 01b9 04       		.byte	0x4
 1654 01ba 45       		.byte	0x45
 1655 01bb 0F       		.byte	0xf
 1656 01bc 71010000 		.4byte	0x171
 1657 01c0 02       		.byte	0x2
 1658 01c1 23       		.byte	0x23
 1659 01c2 08       		.uleb128 0x8
 1660 01c3 0C       		.uleb128 0xc
 1661 01c4 4F000000 		.4byte	.LASF33
 1662 01c8 04       		.byte	0x4
ARM GAS  C:\Users\Aayush\AppData\Local\Temp\ccHTsoxP.s 			page 36


 1663 01c9 46       		.byte	0x46
 1664 01ca 0C       		.byte	0xc
 1665 01cb 77000000 		.4byte	0x77
 1666 01cf 02       		.byte	0x2
 1667 01d0 23       		.byte	0x23
 1668 01d1 0C       		.uleb128 0xc
 1669 01d2 0C       		.uleb128 0xc
 1670 01d3 C4000000 		.4byte	.LASF34
 1671 01d7 04       		.byte	0x4
 1672 01d8 47       		.byte	0x47
 1673 01d9 11       		.byte	0x11
 1674 01da B9000000 		.4byte	0xb9
 1675 01de 02       		.byte	0x2
 1676 01df 23       		.byte	0x23
 1677 01e0 0E       		.uleb128 0xe
 1678 01e1 00       		.byte	0
 1679 01e2 04       		.uleb128 0x4
 1680 01e3 75000000 		.4byte	.LASF35
 1681 01e7 04       		.byte	0x4
 1682 01e8 38       		.byte	0x38
 1683 01e9 1A       		.byte	0x1a
 1684 01ea EE010000 		.4byte	0x1ee
 1685 01ee 0D       		.uleb128 0xd
 1686 01ef 75000000 		.4byte	.LASF35
 1687 01f3 14       		.byte	0x14
 1688 01f4 04       		.byte	0x4
 1689 01f5 4D       		.byte	0x4d
 1690 01f6 08       		.byte	0x8
 1691 01f7 1A020000 		.4byte	0x21a
 1692 01fb 0C       		.uleb128 0xc
 1693 01fc 52020000 		.4byte	.LASF36
 1694 0200 04       		.byte	0x4
 1695 0201 4F       		.byte	0x4f
 1696 0202 14       		.byte	0x14
 1697 0203 7D010000 		.4byte	0x17d
 1698 0207 02       		.byte	0x2
 1699 0208 23       		.byte	0x23
 1700 0209 00       		.uleb128 0
 1701 020a 0C       		.uleb128 0xc
 1702 020b 7F000000 		.4byte	.LASF37
 1703 020f 04       		.byte	0x4
 1704 0210 50       		.byte	0x50
 1705 0211 10       		.byte	0x10
 1706 0212 C6000000 		.4byte	0xc6
 1707 0216 02       		.byte	0x2
 1708 0217 23       		.byte	0x23
 1709 0218 10       		.uleb128 0x10
 1710 0219 00       		.byte	0
 1711 021a 04       		.uleb128 0x4
 1712 021b A2000000 		.4byte	.LASF38
 1713 021f 04       		.byte	0x4
 1714 0220 39       		.byte	0x39
 1715 0221 1A       		.byte	0x1a
 1716 0222 26020000 		.4byte	0x226
 1717 0226 0D       		.uleb128 0xd
 1718 0227 A2000000 		.4byte	.LASF38
 1719 022b 20       		.byte	0x20
ARM GAS  C:\Users\Aayush\AppData\Local\Temp\ccHTsoxP.s 			page 37


 1720 022c 04       		.byte	0x4
 1721 022d 56       		.byte	0x56
 1722 022e 08       		.byte	0x8
 1723 022f 8E020000 		.4byte	0x28e
 1724 0233 0C       		.uleb128 0xc
 1725 0234 DF000000 		.4byte	.LASF39
 1726 0238 04       		.byte	0x4
 1727 0239 58       		.byte	0x58
 1728 023a 14       		.byte	0x14
 1729 023b 7D010000 		.4byte	0x17d
 1730 023f 02       		.byte	0x2
 1731 0240 23       		.byte	0x23
 1732 0241 00       		.uleb128 0
 1733 0242 0C       		.uleb128 0xc
 1734 0243 BB010000 		.4byte	.LASF40
 1735 0247 04       		.byte	0x4
 1736 0248 59       		.byte	0x59
 1737 0249 10       		.byte	0x10
 1738 024a C6000000 		.4byte	0xc6
 1739 024e 02       		.byte	0x2
 1740 024f 23       		.byte	0x23
 1741 0250 10       		.uleb128 0x10
 1742 0251 0C       		.uleb128 0xc
 1743 0252 DF030000 		.4byte	.LASF41
 1744 0256 04       		.byte	0x4
 1745 0257 5B       		.byte	0x5b
 1746 0258 0B       		.byte	0xb
 1747 0259 DB000000 		.4byte	0xdb
 1748 025d 02       		.byte	0x2
 1749 025e 23       		.byte	0x23
 1750 025f 14       		.uleb128 0x14
 1751 0260 0C       		.uleb128 0xc
 1752 0261 38000000 		.4byte	.LASF42
 1753 0265 04       		.byte	0x4
 1754 0266 5C       		.byte	0x5c
 1755 0267 10       		.byte	0x10
 1756 0268 09010000 		.4byte	0x109
 1757 026c 02       		.byte	0x2
 1758 026d 23       		.byte	0x23
 1759 026e 18       		.uleb128 0x18
 1760 026f 0C       		.uleb128 0xc
 1761 0270 8E000000 		.4byte	.LASF43
 1762 0274 04       		.byte	0x4
 1763 0275 5D       		.byte	0x5d
 1764 0276 0C       		.byte	0xc
 1765 0277 77000000 		.4byte	0x77
 1766 027b 02       		.byte	0x2
 1767 027c 23       		.byte	0x23
 1768 027d 1A       		.uleb128 0x1a
 1769 027e 0C       		.uleb128 0xc
 1770 027f 68020000 		.4byte	.LASF44
 1771 0283 04       		.byte	0x4
 1772 0284 5E       		.byte	0x5e
 1773 0285 0D       		.byte	0xd
 1774 0286 02030000 		.4byte	0x302
 1775 028a 02       		.byte	0x2
 1776 028b 23       		.byte	0x23
ARM GAS  C:\Users\Aayush\AppData\Local\Temp\ccHTsoxP.s 			page 38


 1777 028c 1C       		.uleb128 0x1c
 1778 028d 00       		.byte	0
 1779 028e 04       		.uleb128 0x4
 1780 028f C5030000 		.4byte	.LASF45
 1781 0293 04       		.byte	0x4
 1782 0294 3A       		.byte	0x3a
 1783 0295 1A       		.byte	0x1a
 1784 0296 9A020000 		.4byte	0x29a
 1785 029a 0D       		.uleb128 0xd
 1786 029b C5030000 		.4byte	.LASF45
 1787 029f 20       		.byte	0x20
 1788 02a0 04       		.byte	0x4
 1789 02a1 64       		.byte	0x64
 1790 02a2 08       		.byte	0x8
 1791 02a3 02030000 		.4byte	0x302
 1792 02a7 0C       		.uleb128 0xc
 1793 02a8 BA030000 		.4byte	.LASF46
 1794 02ac 04       		.byte	0x4
 1795 02ad 66       		.byte	0x66
 1796 02ae 14       		.byte	0x14
 1797 02af 7D010000 		.4byte	0x17d
 1798 02b3 02       		.byte	0x2
 1799 02b4 23       		.byte	0x23
 1800 02b5 00       		.uleb128 0
 1801 02b6 0C       		.uleb128 0xc
 1802 02b7 BB010000 		.4byte	.LASF40
 1803 02bb 04       		.byte	0x4
 1804 02bc 67       		.byte	0x67
 1805 02bd 10       		.byte	0x10
 1806 02be C6000000 		.4byte	0xc6
 1807 02c2 02       		.byte	0x2
 1808 02c3 23       		.byte	0x23
 1809 02c4 10       		.uleb128 0x10
 1810 02c5 0C       		.uleb128 0xc
 1811 02c6 DF030000 		.4byte	.LASF41
 1812 02ca 04       		.byte	0x4
 1813 02cb 69       		.byte	0x69
 1814 02cc 0B       		.byte	0xb
 1815 02cd DB000000 		.4byte	0xdb
 1816 02d1 02       		.byte	0x2
 1817 02d2 23       		.byte	0x23
 1818 02d3 14       		.uleb128 0x14
 1819 02d4 0C       		.uleb128 0xc
 1820 02d5 38000000 		.4byte	.LASF42
 1821 02d9 04       		.byte	0x4
 1822 02da 6A       		.byte	0x6a
 1823 02db 10       		.byte	0x10
 1824 02dc 09010000 		.4byte	0x109
 1825 02e0 02       		.byte	0x2
 1826 02e1 23       		.byte	0x23
 1827 02e2 18       		.uleb128 0x18
 1828 02e3 0C       		.uleb128 0xc
 1829 02e4 8E000000 		.4byte	.LASF43
 1830 02e8 04       		.byte	0x4
 1831 02e9 6B       		.byte	0x6b
 1832 02ea 0C       		.byte	0xc
 1833 02eb 77000000 		.4byte	0x77
ARM GAS  C:\Users\Aayush\AppData\Local\Temp\ccHTsoxP.s 			page 39


 1834 02ef 02       		.byte	0x2
 1835 02f0 23       		.byte	0x23
 1836 02f1 1A       		.uleb128 0x1a
 1837 02f2 0C       		.uleb128 0xc
 1838 02f3 68020000 		.4byte	.LASF44
 1839 02f7 04       		.byte	0x4
 1840 02f8 6C       		.byte	0x6c
 1841 02f9 0D       		.byte	0xd
 1842 02fa 02030000 		.4byte	0x302
 1843 02fe 02       		.byte	0x2
 1844 02ff 23       		.byte	0x23
 1845 0300 1C       		.uleb128 0x1c
 1846 0301 00       		.byte	0
 1847 0302 08       		.uleb128 0x8
 1848 0303 04       		.byte	0x4
 1849 0304 77000000 		.4byte	0x77
 1850 0308 0E       		.uleb128 0xe
 1851 0309 B7020000 		.4byte	.LASF47
 1852 030d 01       		.byte	0x1
 1853 030e 05       		.byte	0x5
 1854 030f 08       		.byte	0x8
 1855 0310 6B000000 		.4byte	0x6b
 1856 0314 01       		.byte	0x1
 1857 0315 05       		.byte	0x5
 1858 0316 03       		.byte	0x3
 1859 0317 00000000 		.4byte	windowID
 1860 031b 0E       		.uleb128 0xe
 1861 031c A7020000 		.4byte	.LASF48
 1862 0320 01       		.byte	0x1
 1863 0321 05       		.byte	0x5
 1864 0322 12       		.byte	0x12
 1865 0323 6B000000 		.4byte	0x6b
 1866 0327 01       		.byte	0x1
 1867 0328 05       		.byte	0x5
 1868 0329 03       		.byte	0x3
 1869 032a 00000000 		.4byte	canvasID
 1870 032e 0E       		.uleb128 0xe
 1871 032f 03040000 		.4byte	.LASF49
 1872 0333 01       		.byte	0x1
 1873 0334 05       		.byte	0x5
 1874 0335 1C       		.byte	0x1c
 1875 0336 6B000000 		.4byte	0x6b
 1876 033a 01       		.byte	0x1
 1877 033b 05       		.byte	0x5
 1878 033c 03       		.byte	0x3
 1879 033d 00000000 		.4byte	widget1ID
 1880 0341 0E       		.uleb128 0xe
 1881 0342 36040000 		.4byte	.LASF50
 1882 0346 01       		.byte	0x1
 1883 0347 05       		.byte	0x5
 1884 0348 27       		.byte	0x27
 1885 0349 6B000000 		.4byte	0x6b
 1886 034d 01       		.byte	0x1
 1887 034e 05       		.byte	0x5
 1888 034f 03       		.byte	0x3
 1889 0350 00000000 		.4byte	widget2ID
 1890 0354 0E       		.uleb128 0xe
ARM GAS  C:\Users\Aayush\AppData\Local\Temp\ccHTsoxP.s 			page 40


 1891 0355 66030000 		.4byte	.LASF51
 1892 0359 01       		.byte	0x1
 1893 035a 05       		.byte	0x5
 1894 035b 32       		.byte	0x32
 1895 035c 6B000000 		.4byte	0x6b
 1896 0360 01       		.byte	0x1
 1897 0361 05       		.byte	0x5
 1898 0362 03       		.byte	0x3
 1899 0363 00000000 		.4byte	widget3ID
 1900 0367 0E       		.uleb128 0xe
 1901 0368 84020000 		.4byte	.LASF52
 1902 036c 01       		.byte	0x1
 1903 036d 05       		.byte	0x5
 1904 036e 3D       		.byte	0x3d
 1905 036f 6B000000 		.4byte	0x6b
 1906 0373 01       		.byte	0x1
 1907 0374 05       		.byte	0x5
 1908 0375 03       		.byte	0x3
 1909 0376 00000000 		.4byte	widget4ID
 1910 037a 0E       		.uleb128 0xe
 1911 037b 36020000 		.4byte	.LASF53
 1912 037f 01       		.byte	0x1
 1913 0380 05       		.byte	0x5
 1914 0381 48       		.byte	0x48
 1915 0382 6B000000 		.4byte	0x6b
 1916 0386 01       		.byte	0x1
 1917 0387 05       		.byte	0x5
 1918 0388 03       		.byte	0x3
 1919 0389 00000000 		.4byte	widget5ID
 1920 038d 0E       		.uleb128 0xe
 1921 038e 7F010000 		.4byte	.LASF54
 1922 0392 01       		.byte	0x1
 1923 0393 05       		.byte	0x5
 1924 0394 53       		.byte	0x53
 1925 0395 6B000000 		.4byte	0x6b
 1926 0399 01       		.byte	0x1
 1927 039a 05       		.byte	0x5
 1928 039b 03       		.byte	0x3
 1929 039c 00000000 		.4byte	widget6ID
 1930 03a0 0F       		.uleb128 0xf
 1931 03a1 6900     		.ascii	"i\000"
 1932 03a3 01       		.byte	0x1
 1933 03a4 06       		.byte	0x6
 1934 03a5 09       		.byte	0x9
 1935 03a6 83000000 		.4byte	0x83
 1936 03aa 01       		.byte	0x1
 1937 03ab 05       		.byte	0x5
 1938 03ac 03       		.byte	0x3
 1939 03ad 00000000 		.4byte	i
 1940 03b1 0F       		.uleb128 0xf
 1941 03b2 6A00     		.ascii	"j\000"
 1942 03b4 01       		.byte	0x1
 1943 03b5 06       		.byte	0x6
 1944 03b6 0C       		.byte	0xc
 1945 03b7 83000000 		.4byte	0x83
 1946 03bb 01       		.byte	0x1
 1947 03bc 05       		.byte	0x5
ARM GAS  C:\Users\Aayush\AppData\Local\Temp\ccHTsoxP.s 			page 41


 1948 03bd 03       		.byte	0x3
 1949 03be 00000000 		.4byte	j
 1950 03c2 0F       		.uleb128 0xf
 1951 03c3 613100   		.ascii	"a1\000"
 1952 03c6 01       		.byte	0x1
 1953 03c7 06       		.byte	0x6
 1954 03c8 0F       		.byte	0xf
 1955 03c9 83000000 		.4byte	0x83
 1956 03cd 01       		.byte	0x1
 1957 03ce 05       		.byte	0x5
 1958 03cf 03       		.byte	0x3
 1959 03d0 00000000 		.4byte	a1
 1960 03d4 0F       		.uleb128 0xf
 1961 03d5 623100   		.ascii	"b1\000"
 1962 03d8 01       		.byte	0x1
 1963 03d9 06       		.byte	0x6
 1964 03da 13       		.byte	0x13
 1965 03db 83000000 		.4byte	0x83
 1966 03df 01       		.byte	0x1
 1967 03e0 05       		.byte	0x5
 1968 03e1 03       		.byte	0x3
 1969 03e2 00000000 		.4byte	b1
 1970 03e6 0F       		.uleb128 0xf
 1971 03e7 613200   		.ascii	"a2\000"
 1972 03ea 01       		.byte	0x1
 1973 03eb 06       		.byte	0x6
 1974 03ec 17       		.byte	0x17
 1975 03ed 83000000 		.4byte	0x83
 1976 03f1 01       		.byte	0x1
 1977 03f2 05       		.byte	0x5
 1978 03f3 03       		.byte	0x3
 1979 03f4 00000000 		.4byte	a2
 1980 03f8 0F       		.uleb128 0xf
 1981 03f9 623200   		.ascii	"b2\000"
 1982 03fc 01       		.byte	0x1
 1983 03fd 06       		.byte	0x6
 1984 03fe 1B       		.byte	0x1b
 1985 03ff 83000000 		.4byte	0x83
 1986 0403 01       		.byte	0x1
 1987 0404 05       		.byte	0x5
 1988 0405 03       		.byte	0x3
 1989 0406 00000000 		.4byte	b2
 1990 040a 0E       		.uleb128 0xe
 1991 040b D9030000 		.4byte	.LASF55
 1992 040f 01       		.byte	0x1
 1993 0410 07       		.byte	0x7
 1994 0411 06       		.byte	0x6
 1995 0412 E1000000 		.4byte	0xe1
 1996 0416 01       		.byte	0x1
 1997 0417 05       		.byte	0x5
 1998 0418 03       		.byte	0x3
 1999 0419 00000000 		.4byte	shape
 2000 041d 0F       		.uleb128 0xf
 2001 041e 636E7400 		.ascii	"cnt\000"
 2002 0422 01       		.byte	0x1
 2003 0423 08       		.byte	0x8
 2004 0424 05       		.byte	0x5
ARM GAS  C:\Users\Aayush\AppData\Local\Temp\ccHTsoxP.s 			page 42


 2005 0425 25000000 		.4byte	0x25
 2006 0429 01       		.byte	0x1
 2007 042a 05       		.byte	0x5
 2008 042b 03       		.byte	0x3
 2009 042c 00000000 		.4byte	cnt
 2010 0430 10       		.uleb128 0x10
 2011 0431 FB030000 		.4byte	.LASF56
 2012 0435 01       		.byte	0x1
 2013 0436 14       		.byte	0x14
 2014 0437 12       		.byte	0x12
 2015 0438 E2010000 		.4byte	0x1e2
 2016 043c 05       		.byte	0x5
 2017 043d 03       		.byte	0x3
 2018 043e 04000000 		.4byte	window1
 2019 0442 10       		.uleb128 0x10
 2020 0443 B0020000 		.4byte	.LASF57
 2021 0447 01       		.byte	0x1
 2022 0448 1D       		.byte	0x1d
 2023 0449 12       		.byte	0x12
 2024 044a 1A020000 		.4byte	0x21a
 2025 044e 05       		.byte	0x5
 2026 044f 03       		.byte	0x3
 2027 0450 18000000 		.4byte	Canvas
 2028 0454 10       		.uleb128 0x10
 2029 0455 AC000000 		.4byte	.LASF58
 2030 0459 01       		.byte	0x1
 2031 045a 2A       		.byte	0x2a
 2032 045b 12       		.byte	0x12
 2033 045c 8E020000 		.4byte	0x28e
 2034 0460 05       		.byte	0x5
 2035 0461 03       		.byte	0x3
 2036 0462 38000000 		.4byte	freeHandBtnWidget
 2037 0466 10       		.uleb128 0x10
 2038 0467 07000000 		.4byte	.LASF59
 2039 046b 01       		.byte	0x1
 2040 046c 37       		.byte	0x37
 2041 046d 12       		.byte	0x12
 2042 046e 8E020000 		.4byte	0x28e
 2043 0472 05       		.byte	0x5
 2044 0473 03       		.byte	0x3
 2045 0474 58000000 		.4byte	lineBtnWidget
 2046 0478 10       		.uleb128 0x10
 2047 0479 74020000 		.4byte	.LASF60
 2048 047d 01       		.byte	0x1
 2049 047e 44       		.byte	0x44
 2050 047f 12       		.byte	0x12
 2051 0480 8E020000 		.4byte	0x28e
 2052 0484 05       		.byte	0x5
 2053 0485 03       		.byte	0x3
 2054 0486 78000000 		.4byte	circleBtnWidget
 2055 048a 10       		.uleb128 0x10
 2056 048b 23040000 		.4byte	.LASF61
 2057 048f 01       		.byte	0x1
 2058 0490 51       		.byte	0x51
 2059 0491 12       		.byte	0x12
 2060 0492 8E020000 		.4byte	0x28e
 2061 0496 05       		.byte	0x5
ARM GAS  C:\Users\Aayush\AppData\Local\Temp\ccHTsoxP.s 			page 43


 2062 0497 03       		.byte	0x3
 2063 0498 98000000 		.4byte	rectangleBtnWidget
 2064 049c 10       		.uleb128 0x10
 2065 049d 15000000 		.4byte	.LASF62
 2066 04a1 01       		.byte	0x1
 2067 04a2 5E       		.byte	0x5e
 2068 04a3 12       		.byte	0x12
 2069 04a4 8E020000 		.4byte	0x28e
 2070 04a8 05       		.byte	0x5
 2071 04a9 03       		.byte	0x3
 2072 04aa B8000000 		.4byte	clearscreenBtnWidget
 2073 04ae 10       		.uleb128 0x10
 2074 04af FB000000 		.4byte	.LASF63
 2075 04b3 01       		.byte	0x1
 2076 04b4 6B       		.byte	0x6b
 2077 04b5 12       		.byte	0x12
 2078 04b6 8E020000 		.4byte	0x28e
 2079 04ba 05       		.byte	0x5
 2080 04bb 03       		.byte	0x3
 2081 04bc D8000000 		.4byte	saveBtnWidget
 2082 04c0 11       		.uleb128 0x11
 2083 04c1 01       		.byte	0x1
 2084 04c2 48030000 		.4byte	.LASF77
 2085 04c6 01       		.byte	0x1
 2086 04c7 DE       		.byte	0xde
 2087 04c8 06       		.byte	0x6
 2088 04c9 01       		.byte	0x1
 2089 04ca 3C020000 		.4byte	.LFB69
 2090 04ce 68040000 		.4byte	.LFE69
 2091 04d2 00000000 		.4byte	.LLST5
 2092 04d6 01       		.byte	0x1
 2093 04d7 06050000 		.4byte	0x506
 2094 04db 12       		.uleb128 0x12
 2095 04dc 7A030000 		.4byte	.LBB2
 2096 04e0 D6030000 		.4byte	.LBE2
 2097 04e4 13       		.uleb128 0x13
 2098 04e5 ED030000 		.4byte	.LASF64
 2099 04e9 01       		.byte	0x1
 2100 04ea 0601     		.2byte	0x106
 2101 04ec 15       		.byte	0x15
 2102 04ed 83000000 		.4byte	0x83
 2103 04f1 02       		.byte	0x2
 2104 04f2 91       		.byte	0x91
 2105 04f3 70       		.sleb128 -16
 2106 04f4 14       		.uleb128 0x14
 2107 04f5 746D7000 		.ascii	"tmp\000"
 2108 04f9 01       		.byte	0x1
 2109 04fa 0601     		.2byte	0x106
 2110 04fc 1D       		.byte	0x1d
 2111 04fd 83000000 		.4byte	0x83
 2112 0501 02       		.byte	0x2
 2113 0502 91       		.byte	0x91
 2114 0503 74       		.sleb128 -12
 2115 0504 00       		.byte	0
 2116 0505 00       		.byte	0
 2117 0506 15       		.uleb128 0x15
 2118 0507 01       		.byte	0x1
ARM GAS  C:\Users\Aayush\AppData\Local\Temp\ccHTsoxP.s 			page 44


 2119 0508 56010000 		.4byte	.LASF65
 2120 050c 01       		.byte	0x1
 2121 050d D9       		.byte	0xd9
 2122 050e 06       		.byte	0x6
 2123 050f 01       		.byte	0x1
 2124 0510 1C020000 		.4byte	.LFB68
 2125 0514 3C020000 		.4byte	.LFE68
 2126 0518 38000000 		.4byte	.LLST4
 2127 051c 01       		.byte	0x1
 2128 051d 15       		.uleb128 0x15
 2129 051e 01       		.byte	0x1
 2130 051f 44000000 		.4byte	.LASF66
 2131 0523 01       		.byte	0x1
 2132 0524 D0       		.byte	0xd0
 2133 0525 06       		.byte	0x6
 2134 0526 01       		.byte	0x1
 2135 0527 C4010000 		.4byte	.LFB67
 2136 052b 1C020000 		.4byte	.LFE67
 2137 052f 70000000 		.4byte	.LLST3
 2138 0533 01       		.byte	0x1
 2139 0534 15       		.uleb128 0x15
 2140 0535 01       		.byte	0x1
 2141 0536 09010000 		.4byte	.LASF67
 2142 053a 01       		.byte	0x1
 2143 053b CB       		.byte	0xcb
 2144 053c 06       		.byte	0x6
 2145 053d 01       		.byte	0x1
 2146 053e 9C010000 		.4byte	.LFB66
 2147 0542 C4010000 		.4byte	.LFE66
 2148 0546 A8000000 		.4byte	.LLST2
 2149 054a 01       		.byte	0x1
 2150 054b 16       		.uleb128 0x16
 2151 054c 01       		.byte	0x1
 2152 054d F4010000 		.4byte	.LASF68
 2153 0551 01       		.byte	0x1
 2154 0552 C6       		.byte	0xc6
 2155 0553 06       		.byte	0x6
 2156 0554 01       		.byte	0x1
 2157 0555 8C010000 		.4byte	.LFB65
 2158 0559 9C010000 		.4byte	.LFE65
 2159 055d 02       		.byte	0x2
 2160 055e 7D       		.byte	0x7d
 2161 055f 00       		.sleb128 0
 2162 0560 01       		.byte	0x1
 2163 0561 16       		.uleb128 0x16
 2164 0562 01       		.byte	0x1
 2165 0563 40010000 		.4byte	.LASF69
 2166 0567 01       		.byte	0x1
 2167 0568 C1       		.byte	0xc1
 2168 0569 06       		.byte	0x6
 2169 056a 01       		.byte	0x1
 2170 056b 7C010000 		.4byte	.LFB64
 2171 056f 8C010000 		.4byte	.LFE64
 2172 0573 02       		.byte	0x2
 2173 0574 7D       		.byte	0x7d
 2174 0575 00       		.sleb128 0
 2175 0576 01       		.byte	0x1
ARM GAS  C:\Users\Aayush\AppData\Local\Temp\ccHTsoxP.s 			page 45


 2176 0577 16       		.uleb128 0x16
 2177 0578 01       		.byte	0x1
 2178 0579 70030000 		.4byte	.LASF70
 2179 057d 01       		.byte	0x1
 2180 057e BC       		.byte	0xbc
 2181 057f 06       		.byte	0x6
 2182 0580 01       		.byte	0x1
 2183 0581 6C010000 		.4byte	.LFB63
 2184 0585 7C010000 		.4byte	.LFE63
 2185 0589 02       		.byte	0x2
 2186 058a 7D       		.byte	0x7d
 2187 058b 00       		.sleb128 0
 2188 058c 01       		.byte	0x1
 2189 058d 16       		.uleb128 0x16
 2190 058e 01       		.byte	0x1
 2191 058f C8010000 		.4byte	.LASF71
 2192 0593 01       		.byte	0x1
 2193 0594 B7       		.byte	0xb7
 2194 0595 06       		.byte	0x6
 2195 0596 01       		.byte	0x1
 2196 0597 5C010000 		.4byte	.LFB62
 2197 059b 6C010000 		.4byte	.LFE62
 2198 059f 02       		.byte	0x2
 2199 05a0 7D       		.byte	0x7d
 2200 05a1 00       		.sleb128 0
 2201 05a2 01       		.byte	0x1
 2202 05a3 17       		.uleb128 0x17
 2203 05a4 01       		.byte	0x1
 2204 05a5 1C040000 		.4byte	.LASF78
 2205 05a9 01       		.byte	0x1
 2206 05aa 96       		.byte	0x96
 2207 05ab 09       		.byte	0x9
 2208 05ac 01       		.byte	0x1
 2209 05ad 83000000 		.4byte	0x83
 2210 05b1 F4000000 		.4byte	.LFB61
 2211 05b5 5C010000 		.4byte	.LFE61
 2212 05b9 E0000000 		.4byte	.LLST1
 2213 05bd 01       		.byte	0x1
 2214 05be 1B060000 		.4byte	0x61b
 2215 05c2 18       		.uleb128 0x18
 2216 05c3 7200     		.ascii	"r\000"
 2217 05c5 01       		.byte	0x1
 2218 05c6 96       		.byte	0x96
 2219 05c7 18       		.byte	0x18
 2220 05c8 83000000 		.4byte	0x83
 2221 05cc 02       		.byte	0x2
 2222 05cd 91       		.byte	0x91
 2223 05ce 64       		.sleb128 -28
 2224 05cf 10       		.uleb128 0x10
 2225 05d0 0D020000 		.4byte	.LASF72
 2226 05d4 01       		.byte	0x1
 2227 05d5 9C       		.byte	0x9c
 2228 05d6 0D       		.byte	0xd
 2229 05d7 83000000 		.4byte	0x83
 2230 05db 02       		.byte	0x2
 2231 05dc 91       		.byte	0x91
 2232 05dd 7C       		.sleb128 -4
ARM GAS  C:\Users\Aayush\AppData\Local\Temp\ccHTsoxP.s 			page 46


 2233 05de 19       		.uleb128 0x19
 2234 05df 656E6400 		.ascii	"end\000"
 2235 05e3 01       		.byte	0x1
 2236 05e4 9C       		.byte	0x9c
 2237 05e5 18       		.byte	0x18
 2238 05e6 83000000 		.4byte	0x83
 2239 05ea 02       		.byte	0x2
 2240 05eb 91       		.byte	0x91
 2241 05ec 78       		.sleb128 -8
 2242 05ed 19       		.uleb128 0x19
 2243 05ee 6D696400 		.ascii	"mid\000"
 2244 05f2 01       		.byte	0x1
 2245 05f3 9C       		.byte	0x9c
 2246 05f4 25       		.byte	0x25
 2247 05f5 83000000 		.4byte	0x83
 2248 05f9 02       		.byte	0x2
 2249 05fa 91       		.byte	0x91
 2250 05fb 70       		.sleb128 -16
 2251 05fc 19       		.uleb128 0x19
 2252 05fd 72657300 		.ascii	"res\000"
 2253 0601 01       		.byte	0x1
 2254 0602 9C       		.byte	0x9c
 2255 0603 2A       		.byte	0x2a
 2256 0604 83000000 		.4byte	0x83
 2257 0608 02       		.byte	0x2
 2258 0609 91       		.byte	0x91
 2259 060a 74       		.sleb128 -12
 2260 060b 19       		.uleb128 0x19
 2261 060c 73717200 		.ascii	"sqr\000"
 2262 0610 01       		.byte	0x1
 2263 0611 9C       		.byte	0x9c
 2264 0612 2F       		.byte	0x2f
 2265 0613 83000000 		.4byte	0x83
 2266 0617 02       		.byte	0x2
 2267 0618 91       		.byte	0x91
 2268 0619 6C       		.sleb128 -20
 2269 061a 00       		.byte	0
 2270 061b 1A       		.uleb128 0x1a
 2271 061c 01       		.byte	0x1
 2272 061d 45020000 		.4byte	.LASF73
 2273 0621 01       		.byte	0x1
 2274 0622 78       		.byte	0x78
 2275 0623 05       		.byte	0x5
 2276 0624 25000000 		.4byte	0x25
 2277 0628 00000000 		.4byte	.LFB60
 2278 062c F4000000 		.4byte	.LFE60
 2279 0630 0C010000 		.4byte	.LLST0
 2280 0634 01       		.byte	0x1
 2281 0635 00       		.byte	0
 2282              		.section	.debug_abbrev,"",%progbits
 2283              	.Ldebug_abbrev0:
 2284 0000 01       		.uleb128 0x1
 2285 0001 11       		.uleb128 0x11
 2286 0002 01       		.byte	0x1
 2287 0003 25       		.uleb128 0x25
 2288 0004 0E       		.uleb128 0xe
 2289 0005 13       		.uleb128 0x13
ARM GAS  C:\Users\Aayush\AppData\Local\Temp\ccHTsoxP.s 			page 47


 2290 0006 0B       		.uleb128 0xb
 2291 0007 03       		.uleb128 0x3
 2292 0008 0E       		.uleb128 0xe
 2293 0009 1B       		.uleb128 0x1b
 2294 000a 0E       		.uleb128 0xe
 2295 000b 11       		.uleb128 0x11
 2296 000c 01       		.uleb128 0x1
 2297 000d 12       		.uleb128 0x12
 2298 000e 01       		.uleb128 0x1
 2299 000f 10       		.uleb128 0x10
 2300 0010 06       		.uleb128 0x6
 2301 0011 00       		.byte	0
 2302 0012 00       		.byte	0
 2303 0013 02       		.uleb128 0x2
 2304 0014 24       		.uleb128 0x24
 2305 0015 00       		.byte	0
 2306 0016 0B       		.uleb128 0xb
 2307 0017 0B       		.uleb128 0xb
 2308 0018 3E       		.uleb128 0x3e
 2309 0019 0B       		.uleb128 0xb
 2310 001a 03       		.uleb128 0x3
 2311 001b 08       		.uleb128 0x8
 2312 001c 00       		.byte	0
 2313 001d 00       		.byte	0
 2314 001e 03       		.uleb128 0x3
 2315 001f 24       		.uleb128 0x24
 2316 0020 00       		.byte	0
 2317 0021 0B       		.uleb128 0xb
 2318 0022 0B       		.uleb128 0xb
 2319 0023 3E       		.uleb128 0x3e
 2320 0024 0B       		.uleb128 0xb
 2321 0025 03       		.uleb128 0x3
 2322 0026 0E       		.uleb128 0xe
 2323 0027 00       		.byte	0
 2324 0028 00       		.byte	0
 2325 0029 04       		.uleb128 0x4
 2326 002a 16       		.uleb128 0x16
 2327 002b 00       		.byte	0
 2328 002c 03       		.uleb128 0x3
 2329 002d 0E       		.uleb128 0xe
 2330 002e 3A       		.uleb128 0x3a
 2331 002f 0B       		.uleb128 0xb
 2332 0030 3B       		.uleb128 0x3b
 2333 0031 0B       		.uleb128 0xb
 2334 0032 39       		.uleb128 0x39
 2335 0033 0B       		.uleb128 0xb
 2336 0034 49       		.uleb128 0x49
 2337 0035 13       		.uleb128 0x13
 2338 0036 00       		.byte	0
 2339 0037 00       		.byte	0
 2340 0038 05       		.uleb128 0x5
 2341 0039 04       		.uleb128 0x4
 2342 003a 01       		.byte	0x1
 2343 003b 3E       		.uleb128 0x3e
 2344 003c 0B       		.uleb128 0xb
 2345 003d 0B       		.uleb128 0xb
 2346 003e 0B       		.uleb128 0xb
ARM GAS  C:\Users\Aayush\AppData\Local\Temp\ccHTsoxP.s 			page 48


 2347 003f 49       		.uleb128 0x49
 2348 0040 13       		.uleb128 0x13
 2349 0041 3A       		.uleb128 0x3a
 2350 0042 0B       		.uleb128 0xb
 2351 0043 3B       		.uleb128 0x3b
 2352 0044 05       		.uleb128 0x5
 2353 0045 39       		.uleb128 0x39
 2354 0046 0B       		.uleb128 0xb
 2355 0047 01       		.uleb128 0x1
 2356 0048 13       		.uleb128 0x13
 2357 0049 00       		.byte	0
 2358 004a 00       		.byte	0
 2359 004b 06       		.uleb128 0x6
 2360 004c 28       		.uleb128 0x28
 2361 004d 00       		.byte	0
 2362 004e 03       		.uleb128 0x3
 2363 004f 0E       		.uleb128 0xe
 2364 0050 1C       		.uleb128 0x1c
 2365 0051 0B       		.uleb128 0xb
 2366 0052 00       		.byte	0
 2367 0053 00       		.byte	0
 2368 0054 07       		.uleb128 0x7
 2369 0055 16       		.uleb128 0x16
 2370 0056 00       		.byte	0
 2371 0057 03       		.uleb128 0x3
 2372 0058 0E       		.uleb128 0xe
 2373 0059 3A       		.uleb128 0x3a
 2374 005a 0B       		.uleb128 0xb
 2375 005b 3B       		.uleb128 0x3b
 2376 005c 05       		.uleb128 0x5
 2377 005d 39       		.uleb128 0x39
 2378 005e 0B       		.uleb128 0xb
 2379 005f 49       		.uleb128 0x49
 2380 0060 13       		.uleb128 0x13
 2381 0061 00       		.byte	0
 2382 0062 00       		.byte	0
 2383 0063 08       		.uleb128 0x8
 2384 0064 0F       		.uleb128 0xf
 2385 0065 00       		.byte	0
 2386 0066 0B       		.uleb128 0xb
 2387 0067 0B       		.uleb128 0xb
 2388 0068 49       		.uleb128 0x49
 2389 0069 13       		.uleb128 0x13
 2390 006a 00       		.byte	0
 2391 006b 00       		.byte	0
 2392 006c 09       		.uleb128 0x9
 2393 006d 15       		.uleb128 0x15
 2394 006e 00       		.byte	0
 2395 006f 27       		.uleb128 0x27
 2396 0070 0C       		.uleb128 0xc
 2397 0071 00       		.byte	0
 2398 0072 00       		.byte	0
 2399 0073 0A       		.uleb128 0xa
 2400 0074 04       		.uleb128 0x4
 2401 0075 01       		.byte	0x1
 2402 0076 3E       		.uleb128 0x3e
 2403 0077 0B       		.uleb128 0xb
ARM GAS  C:\Users\Aayush\AppData\Local\Temp\ccHTsoxP.s 			page 49


 2404 0078 0B       		.uleb128 0xb
 2405 0079 0B       		.uleb128 0xb
 2406 007a 49       		.uleb128 0x49
 2407 007b 13       		.uleb128 0x13
 2408 007c 3A       		.uleb128 0x3a
 2409 007d 0B       		.uleb128 0xb
 2410 007e 3B       		.uleb128 0x3b
 2411 007f 0B       		.uleb128 0xb
 2412 0080 39       		.uleb128 0x39
 2413 0081 0B       		.uleb128 0xb
 2414 0082 01       		.uleb128 0x1
 2415 0083 13       		.uleb128 0x13
 2416 0084 00       		.byte	0
 2417 0085 00       		.byte	0
 2418 0086 0B       		.uleb128 0xb
 2419 0087 13       		.uleb128 0x13
 2420 0088 01       		.byte	0x1
 2421 0089 0B       		.uleb128 0xb
 2422 008a 0B       		.uleb128 0xb
 2423 008b 3A       		.uleb128 0x3a
 2424 008c 0B       		.uleb128 0xb
 2425 008d 3B       		.uleb128 0x3b
 2426 008e 0B       		.uleb128 0xb
 2427 008f 39       		.uleb128 0x39
 2428 0090 0B       		.uleb128 0xb
 2429 0091 01       		.uleb128 0x1
 2430 0092 13       		.uleb128 0x13
 2431 0093 00       		.byte	0
 2432 0094 00       		.byte	0
 2433 0095 0C       		.uleb128 0xc
 2434 0096 0D       		.uleb128 0xd
 2435 0097 00       		.byte	0
 2436 0098 03       		.uleb128 0x3
 2437 0099 0E       		.uleb128 0xe
 2438 009a 3A       		.uleb128 0x3a
 2439 009b 0B       		.uleb128 0xb
 2440 009c 3B       		.uleb128 0x3b
 2441 009d 0B       		.uleb128 0xb
 2442 009e 39       		.uleb128 0x39
 2443 009f 0B       		.uleb128 0xb
 2444 00a0 49       		.uleb128 0x49
 2445 00a1 13       		.uleb128 0x13
 2446 00a2 38       		.uleb128 0x38
 2447 00a3 0A       		.uleb128 0xa
 2448 00a4 00       		.byte	0
 2449 00a5 00       		.byte	0
 2450 00a6 0D       		.uleb128 0xd
 2451 00a7 13       		.uleb128 0x13
 2452 00a8 01       		.byte	0x1
 2453 00a9 03       		.uleb128 0x3
 2454 00aa 0E       		.uleb128 0xe
 2455 00ab 0B       		.uleb128 0xb
 2456 00ac 0B       		.uleb128 0xb
 2457 00ad 3A       		.uleb128 0x3a
 2458 00ae 0B       		.uleb128 0xb
 2459 00af 3B       		.uleb128 0x3b
 2460 00b0 0B       		.uleb128 0xb
ARM GAS  C:\Users\Aayush\AppData\Local\Temp\ccHTsoxP.s 			page 50


 2461 00b1 39       		.uleb128 0x39
 2462 00b2 0B       		.uleb128 0xb
 2463 00b3 01       		.uleb128 0x1
 2464 00b4 13       		.uleb128 0x13
 2465 00b5 00       		.byte	0
 2466 00b6 00       		.byte	0
 2467 00b7 0E       		.uleb128 0xe
 2468 00b8 34       		.uleb128 0x34
 2469 00b9 00       		.byte	0
 2470 00ba 03       		.uleb128 0x3
 2471 00bb 0E       		.uleb128 0xe
 2472 00bc 3A       		.uleb128 0x3a
 2473 00bd 0B       		.uleb128 0xb
 2474 00be 3B       		.uleb128 0x3b
 2475 00bf 0B       		.uleb128 0xb
 2476 00c0 39       		.uleb128 0x39
 2477 00c1 0B       		.uleb128 0xb
 2478 00c2 49       		.uleb128 0x49
 2479 00c3 13       		.uleb128 0x13
 2480 00c4 3F       		.uleb128 0x3f
 2481 00c5 0C       		.uleb128 0xc
 2482 00c6 02       		.uleb128 0x2
 2483 00c7 0A       		.uleb128 0xa
 2484 00c8 00       		.byte	0
 2485 00c9 00       		.byte	0
 2486 00ca 0F       		.uleb128 0xf
 2487 00cb 34       		.uleb128 0x34
 2488 00cc 00       		.byte	0
 2489 00cd 03       		.uleb128 0x3
 2490 00ce 08       		.uleb128 0x8
 2491 00cf 3A       		.uleb128 0x3a
 2492 00d0 0B       		.uleb128 0xb
 2493 00d1 3B       		.uleb128 0x3b
 2494 00d2 0B       		.uleb128 0xb
 2495 00d3 39       		.uleb128 0x39
 2496 00d4 0B       		.uleb128 0xb
 2497 00d5 49       		.uleb128 0x49
 2498 00d6 13       		.uleb128 0x13
 2499 00d7 3F       		.uleb128 0x3f
 2500 00d8 0C       		.uleb128 0xc
 2501 00d9 02       		.uleb128 0x2
 2502 00da 0A       		.uleb128 0xa
 2503 00db 00       		.byte	0
 2504 00dc 00       		.byte	0
 2505 00dd 10       		.uleb128 0x10
 2506 00de 34       		.uleb128 0x34
 2507 00df 00       		.byte	0
 2508 00e0 03       		.uleb128 0x3
 2509 00e1 0E       		.uleb128 0xe
 2510 00e2 3A       		.uleb128 0x3a
 2511 00e3 0B       		.uleb128 0xb
 2512 00e4 3B       		.uleb128 0x3b
 2513 00e5 0B       		.uleb128 0xb
 2514 00e6 39       		.uleb128 0x39
 2515 00e7 0B       		.uleb128 0xb
 2516 00e8 49       		.uleb128 0x49
 2517 00e9 13       		.uleb128 0x13
ARM GAS  C:\Users\Aayush\AppData\Local\Temp\ccHTsoxP.s 			page 51


 2518 00ea 02       		.uleb128 0x2
 2519 00eb 0A       		.uleb128 0xa
 2520 00ec 00       		.byte	0
 2521 00ed 00       		.byte	0
 2522 00ee 11       		.uleb128 0x11
 2523 00ef 2E       		.uleb128 0x2e
 2524 00f0 01       		.byte	0x1
 2525 00f1 3F       		.uleb128 0x3f
 2526 00f2 0C       		.uleb128 0xc
 2527 00f3 03       		.uleb128 0x3
 2528 00f4 0E       		.uleb128 0xe
 2529 00f5 3A       		.uleb128 0x3a
 2530 00f6 0B       		.uleb128 0xb
 2531 00f7 3B       		.uleb128 0x3b
 2532 00f8 0B       		.uleb128 0xb
 2533 00f9 39       		.uleb128 0x39
 2534 00fa 0B       		.uleb128 0xb
 2535 00fb 27       		.uleb128 0x27
 2536 00fc 0C       		.uleb128 0xc
 2537 00fd 11       		.uleb128 0x11
 2538 00fe 01       		.uleb128 0x1
 2539 00ff 12       		.uleb128 0x12
 2540 0100 01       		.uleb128 0x1
 2541 0101 40       		.uleb128 0x40
 2542 0102 06       		.uleb128 0x6
 2543 0103 9642     		.uleb128 0x2116
 2544 0105 0C       		.uleb128 0xc
 2545 0106 01       		.uleb128 0x1
 2546 0107 13       		.uleb128 0x13
 2547 0108 00       		.byte	0
 2548 0109 00       		.byte	0
 2549 010a 12       		.uleb128 0x12
 2550 010b 0B       		.uleb128 0xb
 2551 010c 01       		.byte	0x1
 2552 010d 11       		.uleb128 0x11
 2553 010e 01       		.uleb128 0x1
 2554 010f 12       		.uleb128 0x12
 2555 0110 01       		.uleb128 0x1
 2556 0111 00       		.byte	0
 2557 0112 00       		.byte	0
 2558 0113 13       		.uleb128 0x13
 2559 0114 34       		.uleb128 0x34
 2560 0115 00       		.byte	0
 2561 0116 03       		.uleb128 0x3
 2562 0117 0E       		.uleb128 0xe
 2563 0118 3A       		.uleb128 0x3a
 2564 0119 0B       		.uleb128 0xb
 2565 011a 3B       		.uleb128 0x3b
 2566 011b 05       		.uleb128 0x5
 2567 011c 39       		.uleb128 0x39
 2568 011d 0B       		.uleb128 0xb
 2569 011e 49       		.uleb128 0x49
 2570 011f 13       		.uleb128 0x13
 2571 0120 02       		.uleb128 0x2
 2572 0121 0A       		.uleb128 0xa
 2573 0122 00       		.byte	0
 2574 0123 00       		.byte	0
ARM GAS  C:\Users\Aayush\AppData\Local\Temp\ccHTsoxP.s 			page 52


 2575 0124 14       		.uleb128 0x14
 2576 0125 34       		.uleb128 0x34
 2577 0126 00       		.byte	0
 2578 0127 03       		.uleb128 0x3
 2579 0128 08       		.uleb128 0x8
 2580 0129 3A       		.uleb128 0x3a
 2581 012a 0B       		.uleb128 0xb
 2582 012b 3B       		.uleb128 0x3b
 2583 012c 05       		.uleb128 0x5
 2584 012d 39       		.uleb128 0x39
 2585 012e 0B       		.uleb128 0xb
 2586 012f 49       		.uleb128 0x49
 2587 0130 13       		.uleb128 0x13
 2588 0131 02       		.uleb128 0x2
 2589 0132 0A       		.uleb128 0xa
 2590 0133 00       		.byte	0
 2591 0134 00       		.byte	0
 2592 0135 15       		.uleb128 0x15
 2593 0136 2E       		.uleb128 0x2e
 2594 0137 00       		.byte	0
 2595 0138 3F       		.uleb128 0x3f
 2596 0139 0C       		.uleb128 0xc
 2597 013a 03       		.uleb128 0x3
 2598 013b 0E       		.uleb128 0xe
 2599 013c 3A       		.uleb128 0x3a
 2600 013d 0B       		.uleb128 0xb
 2601 013e 3B       		.uleb128 0x3b
 2602 013f 0B       		.uleb128 0xb
 2603 0140 39       		.uleb128 0x39
 2604 0141 0B       		.uleb128 0xb
 2605 0142 27       		.uleb128 0x27
 2606 0143 0C       		.uleb128 0xc
 2607 0144 11       		.uleb128 0x11
 2608 0145 01       		.uleb128 0x1
 2609 0146 12       		.uleb128 0x12
 2610 0147 01       		.uleb128 0x1
 2611 0148 40       		.uleb128 0x40
 2612 0149 06       		.uleb128 0x6
 2613 014a 9642     		.uleb128 0x2116
 2614 014c 0C       		.uleb128 0xc
 2615 014d 00       		.byte	0
 2616 014e 00       		.byte	0
 2617 014f 16       		.uleb128 0x16
 2618 0150 2E       		.uleb128 0x2e
 2619 0151 00       		.byte	0
 2620 0152 3F       		.uleb128 0x3f
 2621 0153 0C       		.uleb128 0xc
 2622 0154 03       		.uleb128 0x3
 2623 0155 0E       		.uleb128 0xe
 2624 0156 3A       		.uleb128 0x3a
 2625 0157 0B       		.uleb128 0xb
 2626 0158 3B       		.uleb128 0x3b
 2627 0159 0B       		.uleb128 0xb
 2628 015a 39       		.uleb128 0x39
 2629 015b 0B       		.uleb128 0xb
 2630 015c 27       		.uleb128 0x27
 2631 015d 0C       		.uleb128 0xc
ARM GAS  C:\Users\Aayush\AppData\Local\Temp\ccHTsoxP.s 			page 53


 2632 015e 11       		.uleb128 0x11
 2633 015f 01       		.uleb128 0x1
 2634 0160 12       		.uleb128 0x12
 2635 0161 01       		.uleb128 0x1
 2636 0162 40       		.uleb128 0x40
 2637 0163 0A       		.uleb128 0xa
 2638 0164 9742     		.uleb128 0x2117
 2639 0166 0C       		.uleb128 0xc
 2640 0167 00       		.byte	0
 2641 0168 00       		.byte	0
 2642 0169 17       		.uleb128 0x17
 2643 016a 2E       		.uleb128 0x2e
 2644 016b 01       		.byte	0x1
 2645 016c 3F       		.uleb128 0x3f
 2646 016d 0C       		.uleb128 0xc
 2647 016e 03       		.uleb128 0x3
 2648 016f 0E       		.uleb128 0xe
 2649 0170 3A       		.uleb128 0x3a
 2650 0171 0B       		.uleb128 0xb
 2651 0172 3B       		.uleb128 0x3b
 2652 0173 0B       		.uleb128 0xb
 2653 0174 39       		.uleb128 0x39
 2654 0175 0B       		.uleb128 0xb
 2655 0176 27       		.uleb128 0x27
 2656 0177 0C       		.uleb128 0xc
 2657 0178 49       		.uleb128 0x49
 2658 0179 13       		.uleb128 0x13
 2659 017a 11       		.uleb128 0x11
 2660 017b 01       		.uleb128 0x1
 2661 017c 12       		.uleb128 0x12
 2662 017d 01       		.uleb128 0x1
 2663 017e 40       		.uleb128 0x40
 2664 017f 06       		.uleb128 0x6
 2665 0180 9742     		.uleb128 0x2117
 2666 0182 0C       		.uleb128 0xc
 2667 0183 01       		.uleb128 0x1
 2668 0184 13       		.uleb128 0x13
 2669 0185 00       		.byte	0
 2670 0186 00       		.byte	0
 2671 0187 18       		.uleb128 0x18
 2672 0188 05       		.uleb128 0x5
 2673 0189 00       		.byte	0
 2674 018a 03       		.uleb128 0x3
 2675 018b 08       		.uleb128 0x8
 2676 018c 3A       		.uleb128 0x3a
 2677 018d 0B       		.uleb128 0xb
 2678 018e 3B       		.uleb128 0x3b
 2679 018f 0B       		.uleb128 0xb
 2680 0190 39       		.uleb128 0x39
 2681 0191 0B       		.uleb128 0xb
 2682 0192 49       		.uleb128 0x49
 2683 0193 13       		.uleb128 0x13
 2684 0194 02       		.uleb128 0x2
 2685 0195 0A       		.uleb128 0xa
 2686 0196 00       		.byte	0
 2687 0197 00       		.byte	0
 2688 0198 19       		.uleb128 0x19
ARM GAS  C:\Users\Aayush\AppData\Local\Temp\ccHTsoxP.s 			page 54


 2689 0199 34       		.uleb128 0x34
 2690 019a 00       		.byte	0
 2691 019b 03       		.uleb128 0x3
 2692 019c 08       		.uleb128 0x8
 2693 019d 3A       		.uleb128 0x3a
 2694 019e 0B       		.uleb128 0xb
 2695 019f 3B       		.uleb128 0x3b
 2696 01a0 0B       		.uleb128 0xb
 2697 01a1 39       		.uleb128 0x39
 2698 01a2 0B       		.uleb128 0xb
 2699 01a3 49       		.uleb128 0x49
 2700 01a4 13       		.uleb128 0x13
 2701 01a5 02       		.uleb128 0x2
 2702 01a6 0A       		.uleb128 0xa
 2703 01a7 00       		.byte	0
 2704 01a8 00       		.byte	0
 2705 01a9 1A       		.uleb128 0x1a
 2706 01aa 2E       		.uleb128 0x2e
 2707 01ab 00       		.byte	0
 2708 01ac 3F       		.uleb128 0x3f
 2709 01ad 0C       		.uleb128 0xc
 2710 01ae 03       		.uleb128 0x3
 2711 01af 0E       		.uleb128 0xe
 2712 01b0 3A       		.uleb128 0x3a
 2713 01b1 0B       		.uleb128 0xb
 2714 01b2 3B       		.uleb128 0x3b
 2715 01b3 0B       		.uleb128 0xb
 2716 01b4 39       		.uleb128 0x39
 2717 01b5 0B       		.uleb128 0xb
 2718 01b6 49       		.uleb128 0x49
 2719 01b7 13       		.uleb128 0x13
 2720 01b8 11       		.uleb128 0x11
 2721 01b9 01       		.uleb128 0x1
 2722 01ba 12       		.uleb128 0x12
 2723 01bb 01       		.uleb128 0x1
 2724 01bc 40       		.uleb128 0x40
 2725 01bd 06       		.uleb128 0x6
 2726 01be 9642     		.uleb128 0x2116
 2727 01c0 0C       		.uleb128 0xc
 2728 01c1 00       		.byte	0
 2729 01c2 00       		.byte	0
 2730 01c3 00       		.byte	0
 2731              		.section	.debug_loc,"",%progbits
 2732              	.Ldebug_loc0:
 2733              	.LLST5:
 2734 0000 3C020000 		.4byte	.LFB69-.Ltext0
 2735 0004 3E020000 		.4byte	.LCFI12-.Ltext0
 2736 0008 0200     		.2byte	0x2
 2737 000a 7D       		.byte	0x7d
 2738 000b 00       		.sleb128 0
 2739 000c 3E020000 		.4byte	.LCFI12-.Ltext0
 2740 0010 40020000 		.4byte	.LCFI13-.Ltext0
 2741 0014 0200     		.2byte	0x2
 2742 0016 7D       		.byte	0x7d
 2743 0017 04       		.sleb128 4
 2744 0018 40020000 		.4byte	.LCFI13-.Ltext0
 2745 001c 46040000 		.4byte	.LCFI14-.Ltext0
ARM GAS  C:\Users\Aayush\AppData\Local\Temp\ccHTsoxP.s 			page 55


 2746 0020 0200     		.2byte	0x2
 2747 0022 7D       		.byte	0x7d
 2748 0023 10       		.sleb128 16
 2749 0024 46040000 		.4byte	.LCFI14-.Ltext0
 2750 0028 68040000 		.4byte	.LFE69-.Ltext0
 2751 002c 0200     		.2byte	0x2
 2752 002e 7D       		.byte	0x7d
 2753 002f 04       		.sleb128 4
 2754 0030 00000000 		.4byte	0
 2755 0034 00000000 		.4byte	0
 2756              	.LLST4:
 2757 0038 1C020000 		.4byte	.LFB68-.Ltext0
 2758 003c 1E020000 		.4byte	.LCFI9-.Ltext0
 2759 0040 0200     		.2byte	0x2
 2760 0042 7D       		.byte	0x7d
 2761 0043 00       		.sleb128 0
 2762 0044 1E020000 		.4byte	.LCFI9-.Ltext0
 2763 0048 20020000 		.4byte	.LCFI10-.Ltext0
 2764 004c 0200     		.2byte	0x2
 2765 004e 7D       		.byte	0x7d
 2766 004f 04       		.sleb128 4
 2767 0050 20020000 		.4byte	.LCFI10-.Ltext0
 2768 0054 38020000 		.4byte	.LCFI11-.Ltext0
 2769 0058 0200     		.2byte	0x2
 2770 005a 7D       		.byte	0x7d
 2771 005b 10       		.sleb128 16
 2772 005c 38020000 		.4byte	.LCFI11-.Ltext0
 2773 0060 3C020000 		.4byte	.LFE68-.Ltext0
 2774 0064 0200     		.2byte	0x2
 2775 0066 7D       		.byte	0x7d
 2776 0067 04       		.sleb128 4
 2777 0068 00000000 		.4byte	0
 2778 006c 00000000 		.4byte	0
 2779              	.LLST3:
 2780 0070 C4010000 		.4byte	.LFB67-.Ltext0
 2781 0074 C6010000 		.4byte	.LCFI6-.Ltext0
 2782 0078 0200     		.2byte	0x2
 2783 007a 7D       		.byte	0x7d
 2784 007b 00       		.sleb128 0
 2785 007c C6010000 		.4byte	.LCFI6-.Ltext0
 2786 0080 C8010000 		.4byte	.LCFI7-.Ltext0
 2787 0084 0200     		.2byte	0x2
 2788 0086 7D       		.byte	0x7d
 2789 0087 04       		.sleb128 4
 2790 0088 C8010000 		.4byte	.LCFI7-.Ltext0
 2791 008c 0E020000 		.4byte	.LCFI8-.Ltext0
 2792 0090 0200     		.2byte	0x2
 2793 0092 7D       		.byte	0x7d
 2794 0093 10       		.sleb128 16
 2795 0094 0E020000 		.4byte	.LCFI8-.Ltext0
 2796 0098 1C020000 		.4byte	.LFE67-.Ltext0
 2797 009c 0200     		.2byte	0x2
 2798 009e 7D       		.byte	0x7d
 2799 009f 04       		.sleb128 4
 2800 00a0 00000000 		.4byte	0
 2801 00a4 00000000 		.4byte	0
 2802              	.LLST2:
ARM GAS  C:\Users\Aayush\AppData\Local\Temp\ccHTsoxP.s 			page 56


 2803 00a8 9C010000 		.4byte	.LFB66-.Ltext0
 2804 00ac 9E010000 		.4byte	.LCFI3-.Ltext0
 2805 00b0 0200     		.2byte	0x2
 2806 00b2 7D       		.byte	0x7d
 2807 00b3 00       		.sleb128 0
 2808 00b4 9E010000 		.4byte	.LCFI3-.Ltext0
 2809 00b8 A0010000 		.4byte	.LCFI4-.Ltext0
 2810 00bc 0200     		.2byte	0x2
 2811 00be 7D       		.byte	0x7d
 2812 00bf 04       		.sleb128 4
 2813 00c0 A0010000 		.4byte	.LCFI4-.Ltext0
 2814 00c4 BA010000 		.4byte	.LCFI5-.Ltext0
 2815 00c8 0200     		.2byte	0x2
 2816 00ca 7D       		.byte	0x7d
 2817 00cb 10       		.sleb128 16
 2818 00cc BA010000 		.4byte	.LCFI5-.Ltext0
 2819 00d0 C4010000 		.4byte	.LFE66-.Ltext0
 2820 00d4 0200     		.2byte	0x2
 2821 00d6 7D       		.byte	0x7d
 2822 00d7 04       		.sleb128 4
 2823 00d8 00000000 		.4byte	0
 2824 00dc 00000000 		.4byte	0
 2825              	.LLST1:
 2826 00e0 F4000000 		.4byte	.LFB61-.Ltext0
 2827 00e4 F6000000 		.4byte	.LCFI1-.Ltext0
 2828 00e8 0200     		.2byte	0x2
 2829 00ea 7D       		.byte	0x7d
 2830 00eb 00       		.sleb128 0
 2831 00ec F6000000 		.4byte	.LCFI1-.Ltext0
 2832 00f0 5A010000 		.4byte	.LCFI2-.Ltext0
 2833 00f4 0200     		.2byte	0x2
 2834 00f6 7D       		.byte	0x7d
 2835 00f7 20       		.sleb128 32
 2836 00f8 5A010000 		.4byte	.LCFI2-.Ltext0
 2837 00fc 5C010000 		.4byte	.LFE61-.Ltext0
 2838 0100 0200     		.2byte	0x2
 2839 0102 7D       		.byte	0x7d
 2840 0103 00       		.sleb128 0
 2841 0104 00000000 		.4byte	0
 2842 0108 00000000 		.4byte	0
 2843              	.LLST0:
 2844 010c 00000000 		.4byte	.LFB60-.Ltext0
 2845 0110 02000000 		.4byte	.LCFI0-.Ltext0
 2846 0114 0200     		.2byte	0x2
 2847 0116 7D       		.byte	0x7d
 2848 0117 00       		.sleb128 0
 2849 0118 02000000 		.4byte	.LCFI0-.Ltext0
 2850 011c F4000000 		.4byte	.LFE60-.Ltext0
 2851 0120 0200     		.2byte	0x2
 2852 0122 7D       		.byte	0x7d
 2853 0123 08       		.sleb128 8
 2854 0124 00000000 		.4byte	0
 2855 0128 00000000 		.4byte	0
 2856              		.section	.debug_aranges,"",%progbits
 2857 0000 1C000000 		.4byte	0x1c
 2858 0004 0200     		.2byte	0x2
 2859 0006 00000000 		.4byte	.Ldebug_info0
ARM GAS  C:\Users\Aayush\AppData\Local\Temp\ccHTsoxP.s 			page 57


 2860 000a 04       		.byte	0x4
 2861 000b 00       		.byte	0
 2862 000c 0000     		.2byte	0
 2863 000e 0000     		.2byte	0
 2864 0010 00000000 		.4byte	.Ltext0
 2865 0014 68040000 		.4byte	.Letext0-.Ltext0
 2866 0018 00000000 		.4byte	0
 2867 001c 00000000 		.4byte	0
 2868              		.section	.debug_line,"",%progbits
 2869              	.Ldebug_line0:
 2870 0000 34020000 		.section	.debug_str,"MS",%progbits,1
 2870      03009C00 
 2870      00000201 
 2870      FB0E0D00 
 2870      01010101 
 2871              	.LASF13:
 2872 0000 646F7562 		.ascii	"double\000"
 2872      6C6500
 2873              	.LASF59:
 2874 0007 6C696E65 		.ascii	"lineBtnWidget\000"
 2874      42746E57 
 2874      69646765 
 2874      7400
 2875              	.LASF62:
 2876 0015 636C6561 		.ascii	"clearscreenBtnWidget\000"
 2876      72736372 
 2876      65656E42 
 2876      746E5769 
 2876      64676574 
 2877              	.LASF15:
 2878 002a 656E426F 		.ascii	"enBooleanTrue\000"
 2878      6F6C6561 
 2878      6E547275 
 2878      6500
 2879              	.LASF42:
 2880 0038 666F6E74 		.ascii	"font\000"
 2880      00
 2881              	.LASF9:
 2882 003d 50466279 		.ascii	"PFbyte\000"
 2882      746500
 2883              	.LASF66:
 2884 0044 686F6D65 		.ascii	"homeScreen\000"
 2884      53637265 
 2884      656E00
 2885              	.LASF33:
 2886 004f 6261636B 		.ascii	"backgroundColor\000"
 2886      67726F75 
 2886      6E64436F 
 2886      6C6F7200 
 2887              	.LASF14:
 2888 005f 656E426F 		.ascii	"enBooleanFalse\000"
 2888      6F6C6561 
 2888      6E46616C 
 2888      736500
 2889              	.LASF10:
 2890 006e 5046776F 		.ascii	"PFword\000"
 2890      726400
ARM GAS  C:\Users\Aayush\AppData\Local\Temp\ccHTsoxP.s 			page 58


 2891              	.LASF35:
 2892 0075 57696E64 		.ascii	"WindowCfg\000"
 2892      6F774366 
 2892      6700
 2893              	.LASF37:
 2894 007f 6F6E6553 		.ascii	"oneShotHandler\000"
 2894      686F7448 
 2894      616E646C 
 2894      657200
 2895              	.LASF43:
 2896 008e 666F6E74 		.ascii	"fontColor\000"
 2896      436F6C6F 
 2896      7200
 2897              	.LASF3:
 2898 0098 73686F72 		.ascii	"short int\000"
 2898      7420696E 
 2898      7400
 2899              	.LASF38:
 2900 00a2 43616E76 		.ascii	"CanvasCfg\000"
 2900      61734366 
 2900      6700
 2901              	.LASF58:
 2902 00ac 66726565 		.ascii	"freeHandBtnWidget\000"
 2902      48616E64 
 2902      42746E57 
 2902      69646765 
 2902      7400
 2903              	.LASF26:
 2904 00be 77696474 		.ascii	"width\000"
 2904      6800
 2905              	.LASF34:
 2906 00c4 626F7264 		.ascii	"border\000"
 2906      657200
 2907              	.LASF12:
 2908 00cb 666C6F61 		.ascii	"float\000"
 2908      7400
 2909              	.LASF19:
 2910 00d1 656E4766 		.ascii	"enGfxFont_8X8\000"
 2910      78466F6E 
 2910      745F3858 
 2910      3800
 2911              	.LASF39:
 2912 00df 63616E76 		.ascii	"canvasAttr\000"
 2912      61734174 
 2912      747200
 2913              	.LASF11:
 2914 00ea 50466477 		.ascii	"PFdword\000"
 2914      6F726400 
 2915              	.LASF5:
 2916 00f2 6C6F6E67 		.ascii	"long int\000"
 2916      20696E74 
 2916      00
 2917              	.LASF63:
 2918 00fb 73617665 		.ascii	"saveBtnWidget\000"
 2918      42746E57 
 2918      69646765 
 2918      7400
ARM GAS  C:\Users\Aayush\AppData\Local\Temp\ccHTsoxP.s 			page 59


 2919              	.LASF67:
 2920 0109 73617665 		.ascii	"saveBtnEventHandler\000"
 2920      42746E45 
 2920      76656E74 
 2920      48616E64 
 2920      6C657200 
 2921              	.LASF25:
 2922 011d 436F6F72 		.ascii	"Coordinate\000"
 2922      64696E61 
 2922      746500
 2923              	.LASF16:
 2924 0128 5046456E 		.ascii	"PFEnBoolean\000"
 2924      426F6F6C 
 2924      65616E00 
 2925              	.LASF23:
 2926 0134 7856616C 		.ascii	"xValue\000"
 2926      756500
 2927              	.LASF30:
 2928 013b 6E616D65 		.ascii	"name\000"
 2928      00
 2929              	.LASF69:
 2930 0140 63697263 		.ascii	"circleBtnEventHandler\000"
 2930      6C654274 
 2930      6E457665 
 2930      6E744861 
 2930      6E646C65 
 2931              	.LASF65:
 2932 0156 636C6561 		.ascii	"clearscreenBtnEventHandler\000"
 2932      72736372 
 2932      65656E42 
 2932      746E4576 
 2932      656E7448 
 2933              	.LASF2:
 2934 0171 756E7369 		.ascii	"unsigned char\000"
 2934      676E6564 
 2934      20636861 
 2934      7200
 2935              	.LASF54:
 2936 017f 77696467 		.ascii	"widget6ID\000"
 2936      65743649 
 2936      4400
 2937              	.LASF20:
 2938 0189 656E4766 		.ascii	"enGfxFont_8X16\000"
 2938      78466F6E 
 2938      745F3858 
 2938      313600
 2939              	.LASF1:
 2940 0198 7369676E 		.ascii	"signed char\000"
 2940      65642063 
 2940      68617200 
 2941              	.LASF8:
 2942 01a4 6C6F6E67 		.ascii	"long long unsigned int\000"
 2942      206C6F6E 
 2942      6720756E 
 2942      7369676E 
 2942      65642069 
 2943              	.LASF40:
ARM GAS  C:\Users\Aayush\AppData\Local\Temp\ccHTsoxP.s 			page 60


 2944 01bb 6576656E 		.ascii	"eventHandler\000"
 2944      7448616E 
 2944      646C6572 
 2944      00
 2945              	.LASF71:
 2946 01c8 66726565 		.ascii	"freeHandBtnEventHandler\000"
 2946      48616E64 
 2946      42746E45 
 2946      76656E74 
 2946      48616E64 
 2947              	.LASF27:
 2948 01e0 68656967 		.ascii	"height\000"
 2948      687400
 2949              	.LASF0:
 2950 01e7 756E7369 		.ascii	"unsigned int\000"
 2950      676E6564 
 2950      20696E74 
 2950      00
 2951              	.LASF68:
 2952 01f4 72656374 		.ascii	"rectangleBtnEventHandler\000"
 2952      616E676C 
 2952      6542746E 
 2952      4576656E 
 2952      7448616E 
 2953              	.LASF72:
 2954 020d 73746172 		.ascii	"start\000"
 2954      7400
 2955              	.LASF4:
 2956 0213 73686F72 		.ascii	"short unsigned int\000"
 2956      7420756E 
 2956      7369676E 
 2956      65642069 
 2956      6E7400
 2957              	.LASF21:
 2958 0226 656E4766 		.ascii	"enGfxFont_16X24\000"
 2958      78466F6E 
 2958      745F3136 
 2958      58323400 
 2959              	.LASF53:
 2960 0236 77696467 		.ascii	"widget5ID\000"
 2960      65743549 
 2960      4400
 2961              	.LASF18:
 2962 0240 63686172 		.ascii	"char\000"
 2962      00
 2963              	.LASF73:
 2964 0245 6D61696E 		.ascii	"main\000"
 2964      00
 2965              	.LASF31:
 2966 024a 746F704C 		.ascii	"topLeft\000"
 2966      65667400 
 2967              	.LASF36:
 2968 0252 77696E64 		.ascii	"windowAttr\000"
 2968      6F774174 
 2968      747200
 2969              	.LASF17:
 2970 025d 50466361 		.ascii	"PFcallback\000"
ARM GAS  C:\Users\Aayush\AppData\Local\Temp\ccHTsoxP.s 			page 61


 2970      6C6C6261 
 2970      636B00
 2971              	.LASF44:
 2972 0268 696D6167 		.ascii	"image1\000"
 2972      653100
 2973              	.LASF32:
 2974 026f 73697A65 		.ascii	"size\000"
 2974      00
 2975              	.LASF60:
 2976 0274 63697263 		.ascii	"circleBtnWidget\000"
 2976      6C654274 
 2976      6E576964 
 2976      67657400 
 2977              	.LASF52:
 2978 0284 77696467 		.ascii	"widget4ID\000"
 2978      65743449 
 2978      4400
 2979              	.LASF75:
 2980 028e 6D61696E 		.ascii	"main.c\000"
 2980      2E6300
 2981              	.LASF6:
 2982 0295 6C6F6E67 		.ascii	"long unsigned int\000"
 2982      20756E73 
 2982      69676E65 
 2982      6420696E 
 2982      7400
 2983              	.LASF48:
 2984 02a7 63616E76 		.ascii	"canvasID\000"
 2984      61734944 
 2984      00
 2985              	.LASF57:
 2986 02b0 43616E76 		.ascii	"Canvas\000"
 2986      617300
 2987              	.LASF47:
 2988 02b7 77696E64 		.ascii	"windowID\000"
 2988      6F774944 
 2988      00
 2989              	.LASF74:
 2990 02c0 474E5520 		.ascii	"GNU C99 10.3.1 20210824 (release) -mcpu=cortex-m3 -"
 2990      43393920 
 2990      31302E33 
 2990      2E312032 
 2990      30323130 
 2991 02f3 6D746875 		.ascii	"mthumb -mfloat-abi=soft -march=armv7-m -gdwarf-2 -O"
 2991      6D62202D 
 2991      6D666C6F 
 2991      61742D61 
 2991      62693D73 
 2992 0326 30202D73 		.ascii	"0 -std=gnu99 -fomit-frame-pointer\000"
 2992      74643D67 
 2992      6E753939 
 2992      202D666F 
 2992      6D69742D 
 2993              	.LASF77:
 2994 0348 63616E76 		.ascii	"canvasEventHandler\000"
 2994      61734576 
 2994      656E7448 
ARM GAS  C:\Users\Aayush\AppData\Local\Temp\ccHTsoxP.s 			page 62


 2994      616E646C 
 2994      657200
 2995              	.LASF22:
 2996 035b 456E4766 		.ascii	"EnGfxFonts\000"
 2996      78466F6E 
 2996      747300
 2997              	.LASF51:
 2998 0366 77696467 		.ascii	"widget3ID\000"
 2998      65743349 
 2998      4400
 2999              	.LASF70:
 3000 0370 6C696E65 		.ascii	"lineBtnEventHandler\000"
 3000      42746E45 
 3000      76656E74 
 3000      48616E64 
 3000      6C657200 
 3001              	.LASF76:
 3002 0384 463A5C46 		.ascii	"F:\\Final year project\\Paint Application\\UserInte"
 3002      696E616C 
 3002      20796561 
 3002      72207072 
 3002      6F6A6563 
 3003 03b4 72666163 		.ascii	"rface\000"
 3003      6500
 3004              	.LASF46:
 3005 03ba 77696467 		.ascii	"widgetAttr\000"
 3005      65744174 
 3005      747200
 3006              	.LASF45:
 3007 03c5 57696467 		.ascii	"WidgetCfg\000"
 3007      65744366 
 3007      6700
 3008              	.LASF28:
 3009 03cf 44696D65 		.ascii	"Dimension\000"
 3009      6E73696F 
 3009      6E00
 3010              	.LASF55:
 3011 03d9 73686170 		.ascii	"shape\000"
 3011      6500
 3012              	.LASF41:
 3013 03df 64697370 		.ascii	"displayString\000"
 3013      6C617953 
 3013      7472696E 
 3013      6700
 3014              	.LASF64:
 3015 03ed 72616469 		.ascii	"radius\000"
 3015      757300
 3016              	.LASF24:
 3017 03f4 7956616C 		.ascii	"yValue\000"
 3017      756500
 3018              	.LASF56:
 3019 03fb 77696E64 		.ascii	"window1\000"
 3019      6F773100 
 3020              	.LASF49:
 3021 0403 77696467 		.ascii	"widget1ID\000"
 3021      65743149 
 3021      4400
ARM GAS  C:\Users\Aayush\AppData\Local\Temp\ccHTsoxP.s 			page 63


 3022              	.LASF29:
 3023 040d 636F6D6D 		.ascii	"commAttributes\000"
 3023      41747472 
 3023      69627574 
 3023      657300
 3024              	.LASF78:
 3025 041c 7371726F 		.ascii	"sqroot\000"
 3025      6F7400
 3026              	.LASF61:
 3027 0423 72656374 		.ascii	"rectangleBtnWidget\000"
 3027      616E676C 
 3027      6542746E 
 3027      57696467 
 3027      657400
 3028              	.LASF50:
 3029 0436 77696467 		.ascii	"widget2ID\000"
 3029      65743249 
 3029      4400
 3030              	.LASF7:
 3031 0440 6C6F6E67 		.ascii	"long long int\000"
 3031      206C6F6E 
 3031      6720696E 
 3031      7400
 3032              		.ident	"GCC: (GNU Arm Embedded Toolchain 10.3-2021.10) 10.3.1 20210824 (release)"
ARM GAS  C:\Users\Aayush\AppData\Local\Temp\ccHTsoxP.s 			page 64


DEFINED SYMBOLS
                            *ABS*:00000000 main.c
C:\Users\Aayush\AppData\Local\Temp\ccHTsoxP.s:61     .bss:00000000 windowID
C:\Users\Aayush\AppData\Local\Temp\ccHTsoxP.s:62     .bss:00000000 $d
C:\Users\Aayush\AppData\Local\Temp\ccHTsoxP.s:66     .bss:00000001 canvasID
C:\Users\Aayush\AppData\Local\Temp\ccHTsoxP.s:71     .bss:00000002 widget1ID
C:\Users\Aayush\AppData\Local\Temp\ccHTsoxP.s:76     .bss:00000003 widget2ID
C:\Users\Aayush\AppData\Local\Temp\ccHTsoxP.s:81     .bss:00000004 widget3ID
C:\Users\Aayush\AppData\Local\Temp\ccHTsoxP.s:86     .bss:00000005 widget4ID
C:\Users\Aayush\AppData\Local\Temp\ccHTsoxP.s:91     .bss:00000006 widget5ID
C:\Users\Aayush\AppData\Local\Temp\ccHTsoxP.s:96     .bss:00000007 widget6ID
C:\Users\Aayush\AppData\Local\Temp\ccHTsoxP.s:102    .bss:00000008 i
C:\Users\Aayush\AppData\Local\Temp\ccHTsoxP.s:108    .bss:0000000c j
C:\Users\Aayush\AppData\Local\Temp\ccHTsoxP.s:114    .bss:00000010 a1
C:\Users\Aayush\AppData\Local\Temp\ccHTsoxP.s:120    .bss:00000014 b1
C:\Users\Aayush\AppData\Local\Temp\ccHTsoxP.s:126    .bss:00000018 a2
C:\Users\Aayush\AppData\Local\Temp\ccHTsoxP.s:132    .bss:0000001c b2
C:\Users\Aayush\AppData\Local\Temp\ccHTsoxP.s:138    .data:00000000 shape
C:\Users\Aayush\AppData\Local\Temp\ccHTsoxP.s:145    .bss:00000020 cnt
C:\Users\Aayush\AppData\Local\Temp\ccHTsoxP.s:148    .rodata:00000000 $d
C:\Users\Aayush\AppData\Local\Temp\ccHTsoxP.s:152    .data:00000001 $d
C:\Users\Aayush\AppData\Local\Temp\ccHTsoxP.s:155    .data:00000004 window1
C:\Users\Aayush\AppData\Local\Temp\ccHTsoxP.s:187    .data:00000018 Canvas
C:\Users\Aayush\AppData\Local\Temp\ccHTsoxP.s:1001   .text:0000023c canvasEventHandler
C:\Users\Aayush\AppData\Local\Temp\ccHTsoxP.s:228    .data:00000038 freeHandBtnWidget
C:\Users\Aayush\AppData\Local\Temp\ccHTsoxP.s:719    .text:0000015c freeHandBtnEventHandler
C:\Users\Aayush\AppData\Local\Temp\ccHTsoxP.s:266    .data:00000058 lineBtnWidget
C:\Users\Aayush\AppData\Local\Temp\ccHTsoxP.s:748    .text:0000016c lineBtnEventHandler
C:\Users\Aayush\AppData\Local\Temp\ccHTsoxP.s:304    .data:00000078 circleBtnWidget
C:\Users\Aayush\AppData\Local\Temp\ccHTsoxP.s:777    .text:0000017c circleBtnEventHandler
C:\Users\Aayush\AppData\Local\Temp\ccHTsoxP.s:342    .data:00000098 rectangleBtnWidget
C:\Users\Aayush\AppData\Local\Temp\ccHTsoxP.s:806    .text:0000018c rectangleBtnEventHandler
C:\Users\Aayush\AppData\Local\Temp\ccHTsoxP.s:383    .data:000000b8 clearscreenBtnWidget
C:\Users\Aayush\AppData\Local\Temp\ccHTsoxP.s:962    .text:0000021c clearscreenBtnEventHandler
C:\Users\Aayush\AppData\Local\Temp\ccHTsoxP.s:421    .data:000000d8 saveBtnWidget
C:\Users\Aayush\AppData\Local\Temp\ccHTsoxP.s:840    .text:0000019c saveBtnEventHandler
C:\Users\Aayush\AppData\Local\Temp\ccHTsoxP.s:452    .text:00000000 $t
C:\Users\Aayush\AppData\Local\Temp\ccHTsoxP.s:458    .text:00000000 main
C:\Users\Aayush\AppData\Local\Temp\ccHTsoxP.s:890    .text:000001c4 homeScreen
C:\Users\Aayush\AppData\Local\Temp\ccHTsoxP.s:577    .text:000000ac $d
C:\Users\Aayush\AppData\Local\Temp\ccHTsoxP.s:598    .text:000000f4 $t
C:\Users\Aayush\AppData\Local\Temp\ccHTsoxP.s:604    .text:000000f4 sqroot
C:\Users\Aayush\AppData\Local\Temp\ccHTsoxP.s:738    .text:00000168 $d
C:\Users\Aayush\AppData\Local\Temp\ccHTsoxP.s:742    .text:0000016c $t
C:\Users\Aayush\AppData\Local\Temp\ccHTsoxP.s:767    .text:00000178 $d
C:\Users\Aayush\AppData\Local\Temp\ccHTsoxP.s:771    .text:0000017c $t
C:\Users\Aayush\AppData\Local\Temp\ccHTsoxP.s:796    .text:00000188 $d
C:\Users\Aayush\AppData\Local\Temp\ccHTsoxP.s:800    .text:0000018c $t
C:\Users\Aayush\AppData\Local\Temp\ccHTsoxP.s:825    .text:00000198 $d
C:\Users\Aayush\AppData\Local\Temp\ccHTsoxP.s:834    .text:0000019c $t
C:\Users\Aayush\AppData\Local\Temp\ccHTsoxP.s:875    .text:000001c0 $d
C:\Users\Aayush\AppData\Local\Temp\ccHTsoxP.s:884    .text:000001c4 $t
C:\Users\Aayush\AppData\Local\Temp\ccHTsoxP.s:951    .text:00000214 $d
C:\Users\Aayush\AppData\Local\Temp\ccHTsoxP.s:956    .text:0000021c $t
C:\Users\Aayush\AppData\Local\Temp\ccHTsoxP.s:1025   .text:00000254 $d
C:\Users\Aayush\AppData\Local\Temp\ccHTsoxP.s:1041   .text:00000294 $t
C:\Users\Aayush\AppData\Local\Temp\ccHTsoxP.s:1401   .text:0000044c $d
ARM GAS  C:\Users\Aayush\AppData\Local\Temp\ccHTsoxP.s 			page 65



UNDEFINED SYMBOLS
appInit
gameEngineInit
gfxSetColor
gfxSetPenSize
createWindow
createCanvas
createWidget
touchAvailable
windowEventHandler
gfxDrawString
setWindow
gfxDrawLine
gfxDrawCircle
gfxDrawRectangle
gfxFillArea
gfxDrawPixels
