ARM GAS  C:\Users\Aayush\AppData\Local\Temp\ccPGXf2s.s 			page 1


   1              		.cpu cortex-m3
   2              		.arch armv7-m
   3              		.fpu softvfp
   4              		.eabi_attribute 20, 1	@ Tag_ABI_FP_denormal
   5              		.eabi_attribute 21, 1	@ Tag_ABI_FP_exceptions
   6              		.eabi_attribute 23, 3	@ Tag_ABI_FP_number_model
   7              		.eabi_attribute 24, 1	@ Tag_ABI_align8_needed
   8              		.eabi_attribute 25, 1	@ Tag_ABI_align8_preserved
   9              		.eabi_attribute 26, 1	@ Tag_ABI_enum_size
  10              		.eabi_attribute 30, 6	@ Tag_ABI_optimization_goals
  11              		.eabi_attribute 34, 1	@ Tag_CPU_unaligned_access
  12              		.eabi_attribute 18, 4	@ Tag_ABI_PCS_wchar_t
  13              		.file	"appInit.c"
  14              	@ GNU C99 (GNU Arm Embedded Toolchain 10.3-2021.10) version 10.3.1 20210824 (release) (arm-none-eab
  15              	@	compiled by GNU C version 7.3-win32 20180312, GMP version 6.1.0, MPFR version 3.1.4, MPC version 
  16              	
  17              	@ GGC heuristics: --param ggc-min-expand=100 --param ggc-min-heapsize=131072
  18              	@ options passed:  -I . -I ../../Include -I ../../Include/PrimeFramework
  19              	@ -I ../../Include/AppHelper -I ../../Include/GameEngine
  20              	@ -I ../../Include/GameEngine/Graphics -I ../../Include/GameEngine/Object
  21              	@ -I ../../Include/GameEngine/Renderer -I ../../Include/GameEngine/Resource
  22              	@ -imultilib thumb/v7-m/nofp
  23              	@ -iprefix c:\program files (x86)\gnu arm embedded toolchain\10 2021.10\bin\../lib/gcc/arm-none-eab
  24              	@ -isysroot c:\program files (x86)\gnu arm embedded toolchain\10 2021.10\bin\../arm-none-eabi
  25              	@ -MD Build/Obj/Debug/appInit.d -MF .dep/appInit.o.d -MP
  26              	@ -MQ Build/Obj/Debug/appInit.o -D__USES_INITFINI__ -D MCU_CHIP_lpc1768
  27              	@ -D PRIME_DEBUG ../../Source/appInit.c -mcpu=cortex-m3 -mthumb
  28              	@ -mfloat-abi=soft -mlibarch=armv7-m -march=armv7-m
  29              	@ -auxbase-strip Build/Obj/Debug/appInit.o -gdwarf-2 -O0 -Wall -Wno-cpp
  30              	@ -std=gnu99 -fomit-frame-pointer -fverbose-asm
  31              	@ options enabled:  -faggressive-loop-optimizations -fallocation-dce
  32              	@ -fauto-inc-dec -fdelete-null-pointer-checks -fdwarf2-cfi-asm
  33              	@ -fearly-inlining -feliminate-unused-debug-symbols
  34              	@ -feliminate-unused-debug-types -ffp-int-builtin-inexact -ffunction-cse
  35              	@ -fgcse-lm -fgnu-unique -fident -finline-atomics -fipa-stack-alignment
  36              	@ -fira-hoist-pressure -fira-share-save-slots -fira-share-spill-slots
  37              	@ -fivopts -fkeep-static-consts -fleading-underscore -flifetime-dse
  38              	@ -fmath-errno -fmerge-debug-strings -fomit-frame-pointer -fpeephole -fplt
  39              	@ -fprefetch-loop-arrays -freg-struct-return
  40              	@ -fsched-critical-path-heuristic -fsched-dep-count-heuristic
  41              	@ -fsched-group-heuristic -fsched-interblock -fsched-last-insn-heuristic
  42              	@ -fsched-rank-heuristic -fsched-spec -fsched-spec-insn-heuristic
  43              	@ -fsched-stalled-insns-dep -fsemantic-interposition -fshow-column
  44              	@ -fshrink-wrap-separate -fsigned-zeros -fsplit-ivs-in-unroller
  45              	@ -fssa-backprop -fstdarg-opt -fstrict-volatile-bitfields -fsync-libcalls
  46              	@ -ftrapping-math -ftree-cselim -ftree-forwprop -ftree-loop-if-convert
  47              	@ -ftree-loop-im -ftree-loop-ivcanon -ftree-loop-optimize
  48              	@ -ftree-parallelize-loops= -ftree-phiprop -ftree-reassoc -ftree-scev-cprop
  49              	@ -funit-at-a-time -fverbose-asm -fzero-initialized-in-bss
  50              	@ -masm-syntax-unified -mbe32 -mfix-cortex-m3-ldrd -mlittle-endian
  51              	@ -mpic-data-is-text-relative -msched-prolog -mthumb -munaligned-access
  52              	@ -mvectorize-with-neon-quad
  53              	
  54              		.text
  55              	.Ltext0:
  56              		.cfi_sections	.debug_frame
  57              		.global	clkConfig
ARM GAS  C:\Users\Aayush\AppData\Local\Temp\ccPGXf2s.s 			page 2


  58              		.data
  59              		.align	2
  60              		.type	clkConfig, %object
  61              		.size	clkConfig, 12
  62              	clkConfig:
  63              	@ cpuFreqHz:
  64 0000 00E1F505 		.word	100000000
  65              	@ oscFreq:
  66 0004 001BB700 		.word	12000000
  67              	@ pllClkSrc:
  68 0008 01       		.byte	1
  69 0009 000000   		.space	3
  70              		.global	ritConfig
  71              		.align	2
  72              		.type	ritConfig, %object
  73              		.size	ritConfig, 16
  74              	ritConfig:
  75              	@ compareValue:
  76 000c A8610000 		.word	25000
  77              	@ compareMask:
  78 0010 00000000 		.word	0
  79              	@ callback:
  80 0014 00000000 		.word	pfTickUpdate
  81              	@ clkDiv:
  82 0018 00       		.byte	0
  83              	@ haltOnBreak:
  84 0019 01       		.byte	1
  85              	@ resetOnMatch:
  86 001a 01       		.byte	1
  87 001b 00       		.space	1
  88              		.global	timer0Config
  89              		.align	2
  90              		.type	timer0Config, %object
  91              		.size	timer0Config, 36
  92              	timer0Config:
  93              	@ prescaler:
  94 001c 19000000 		.word	25
  95              	@ matchValue:
  96 0020 401F0000 		.word	8000
  97 0024 00000000 		.word	0
  98 0028 00000000 		.word	0
  99 002c 00000000 		.word	0
 100              	@ matchAction:
 101 0030 03       		.byte	3
 102 0031 00       		.byte	0
 103 0032 00       		.byte	0
 104 0033 00       		.byte	0
 105              	@ exMatchAction:
 106 0034 00       		.byte	0
 107 0035 00       		.byte	0
 108 0036 00       		.byte	0
 109 0037 00       		.byte	0
 110              	@ callback:
 111 0038 00000000 		.word	lcdRenderer
 112              	@ clkDiv:
 113 003c 00       		.byte	0
 114              	@ timer0Mode:
ARM GAS  C:\Users\Aayush\AppData\Local\Temp\ccPGXf2s.s 			page 3


 115 003d 00       		.byte	0
 116              	@ interrupt:
 117 003e 01       		.byte	1
 118 003f 00       		.space	1
 119              		.global	uart0Config
 120              		.align	2
 121              		.type	uart0Config, %object
 122              		.size	uart0Config, 6
 123              	uart0Config:
 124              	@ clkDiv:
 125 0040 00       		.byte	0
 126              	@ baudrate:
 127 0041 02       		.byte	2
 128              	@ databits:
 129 0042 03       		.byte	3
 130              	@ parity:
 131 0043 00       		.byte	0
 132              	@ stopBits:
 133 0044 00       		.byte	0
 134              	@ interrupts:
 135 0045 00       		.byte	0
 136              		.global	spi0Cfg
 137 0046 0000     		.align	2
 138              		.type	spi0Cfg, %object
 139              		.size	spi0Cfg, 12
 140              	spi0Cfg:
 141              	@ clkDiv:
 142 0048 00       		.byte	0
 143              	@ masterMode:
 144 0049 01       		.byte	1
 145              	@ datasize:
 146 004a 07       		.byte	7
 147              	@ mode:
 148 004b 00       		.byte	0
 149              	@ baudrate:
 150 004c 40787D01 		.word	25000000
 151              	@ interrupt:
 152 0050 00       		.byte	0
 153 0051 000000   		.space	3
 154              		.global	eduarmMma7660GpioCfg
 155              		.align	2
 156              		.type	eduarmMma7660GpioCfg, %object
 157              		.size	eduarmMma7660GpioCfg, 24
 158              	eduarmMma7660GpioCfg:
 159              	@ port:
 160 0054 00000000 		.word	0
 161              	@ pins:
 162 0058 00000008 		.word	134217728
 163              	@ direction:
 164 005c 00       		.byte	0
 165              	@ mode:
 166 005d 00       		.byte	0
 167              	@ openDrain:
 168 005e 00       		.byte	0
 169              	@ altFuction:
 170 005f 01       		.byte	1
 171              	@ port:
ARM GAS  C:\Users\Aayush\AppData\Local\Temp\ccPGXf2s.s 			page 4


 172 0060 00000000 		.word	0
 173              	@ pins:
 174 0064 00000010 		.word	268435456
 175              	@ direction:
 176 0068 01       		.byte	1
 177              	@ mode:
 178 0069 00       		.byte	0
 179              	@ openDrain:
 180 006a 00       		.byte	0
 181              	@ altFuction:
 182 006b 01       		.byte	1
 183              		.global	i2c0Cfg
 184              		.align	2
 185              		.type	i2c0Cfg, %object
 186              		.size	i2c0Cfg, 24
 187              	i2c0Cfg:
 188              	@ baudRate:
 189 006c A0860100 		.word	100000
 190              	@ clkDiv:
 191 0070 00       		.byte	0
 192              	@ dutyCycle:
 193 0071 32       		.byte	50
 194              	@ enableAck:
 195 0072 01       		.byte	1
 196              	@ enableGenCall:
 197 0073 00       		.byte	0
 198              	@ ownAddress:
 199 0074 00000000 		.ascii	"\000\000\000\000"
 200              	@ addrMask:
 201 0078 00000000 		.ascii	"\000\000\000\000"
 202              	@ intEnable:
 203 007c 00       		.byte	0
 204 007d 00000000 		.space	7
 204      000000
 205              		.global	accelConfig
 206              		.align	2
 207              		.type	accelConfig, %object
 208              		.size	accelConfig, 16
 209              	accelConfig:
 210              	@ sampleRate:
 211 0084 04       		.byte	4
 212              	@ pI2cWrite:
 213 0085 000000   		.space	3
 214 0088 00000000 		.word	pfI2c0Write
 215              	@ pI2cRead:
 216 008c 00000000 		.word	pfI2c0Read
 217              	@ interruptStatus:
 218 0090 E0       		.byte	-32
 219 0091 000000   		.space	3
 220              		.global	eduarmBuzzerGpioCfg
 221              		.align	2
 222              		.type	eduarmBuzzerGpioCfg, %object
 223              		.size	eduarmBuzzerGpioCfg, 12
 224              	eduarmBuzzerGpioCfg:
 225              	@ port:
 226 0094 20000000 		.word	32
 227              	@ pins:
ARM GAS  C:\Users\Aayush\AppData\Local\Temp\ccPGXf2s.s 			page 5


 228 0098 00000004 		.word	67108864
 229              	@ direction:
 230 009c 01       		.byte	1
 231              	@ mode:
 232 009d 02       		.byte	2
 233              	@ openDrain:
 234 009e 00       		.byte	0
 235              	@ altFuction:
 236 009f 00       		.byte	0
 237              		.global	buzzerConfig
 238              		.align	2
 239              		.type	buzzerConfig, %object
 240              		.size	buzzerConfig, 8
 241              	buzzerConfig:
 242              	@ buzzerPin:
 243              	@ port:
 244 00a0 20000000 		.word	32
 245              	@ pin:
 246 00a4 00000004 		.word	67108864
 247              		.global	lcdDisplayConfig
 248              		.align	2
 249              		.type	lcdDisplayConfig, %object
 250              		.size	lcdDisplayConfig, 112
 251              	lcdDisplayConfig:
 252              	@ gpioData:
 253              	@ port:
 254 00a8 40000000 		.word	64
 255              	@ pin:
 256 00ac 01000000 		.word	1
 257              	@ port:
 258 00b0 40000000 		.word	64
 259              	@ pin:
 260 00b4 02000000 		.word	2
 261              	@ port:
 262 00b8 40000000 		.word	64
 263              	@ pin:
 264 00bc 04000000 		.word	4
 265              	@ port:
 266 00c0 40000000 		.word	64
 267              	@ pin:
 268 00c4 08000000 		.word	8
 269              	@ port:
 270 00c8 40000000 		.word	64
 271              	@ pin:
 272 00cc 10000000 		.word	16
 273              	@ port:
 274 00d0 40000000 		.word	64
 275              	@ pin:
 276 00d4 20000000 		.word	32
 277              	@ port:
 278 00d8 40000000 		.word	64
 279              	@ pin:
 280 00dc 40000000 		.word	64
 281              	@ port:
 282 00e0 40000000 		.word	64
 283              	@ pin:
 284 00e4 80000000 		.word	128
ARM GAS  C:\Users\Aayush\AppData\Local\Temp\ccPGXf2s.s 			page 6


 285              	@ gpioChipSelect:
 286              	@ port:
 287 00e8 20000000 		.word	32
 288              	@ pin:
 289 00ec 00000020 		.word	536870912
 290              	@ gpioRegSelect:
 291              	@ port:
 292 00f0 80000000 		.word	128
 293              	@ pin:
 294 00f4 00000020 		.word	536870912
 295              	@ gpioWrite:
 296              	@ port:
 297 00f8 00000000 		.word	0
 298              	@ pin:
 299 00fc 00004000 		.word	4194304
 300              	@ gpioRead:
 301              	@ port:
 302 0100 00000000 		.word	0
 303              	@ pin:
 304 0104 00002000 		.word	2097152
 305              	@ gpioReset:
 306              	@ port:
 307 0108 20000000 		.word	32
 308              	@ pin:
 309 010c 00000010 		.word	268435456
 310              	@ orientation:
 311 0110 00       		.byte	0
 312              	@ height:
 313 0111 00       		.space	1
 314 0112 4001     		.short	320
 315              	@ width:
 316 0114 F000     		.short	240
 317 0116 0000     		.space	2
 318              		.global	touchConfig
 319              		.align	2
 320              		.type	touchConfig, %object
 321              		.size	touchConfig, 44
 322              	touchConfig:
 323              	@ gpioTouchIntPin:
 324              	@ port:
 325 0118 40000000 		.word	64
 326              	@ pin:
 327 011c 00080000 		.word	2048
 328              	@ gpioTouchBusyPin:
 329              	@ port:
 330 0120 00000000 		.word	0
 331              	@ pin:
 332 0124 00000800 		.word	524288
 333              	@ gpioTouchCsGpio:
 334              	@ port:
 335 0128 00000000 		.word	0
 336              	@ pin:
 337 012c 00001000 		.word	1048576
 338              	@ refsel:
 339 0130 00       		.byte	0
 340              	@ precsel:
 341 0131 08       		.byte	8
ARM GAS  C:\Users\Aayush\AppData\Local\Temp\ccPGXf2s.s 			page 7


 342              	@ spiRegisterDevice:
 343 0132 0000     		.space	2
 344 0134 00000000 		.word	pfSpi0RegisterDevice
 345              	@ spiChipSelect:
 346 0138 00000000 		.word	pfSpi0ChipSelect
 347              	@ spiWrite:
 348 013c 00000000 		.word	pfSpi0Write
 349              	@ spiRead:
 350 0140 00000000 		.word	pfSpi0Read
 351              		.global	extInt1CallbackArray
 352              		.align	2
 353              		.type	extInt1CallbackArray, %object
 354              		.size	extInt1CallbackArray, 4
 355              	extInt1CallbackArray:
 356 0144 00000000 		.word	extIntTouchCallback
 357              		.global	extIntTouchConfig
 358              		.align	2
 359              		.type	extIntTouchConfig, %object
 360              		.size	extIntTouchConfig, 8
 361              	extIntTouchConfig:
 362              	@ callbackList:
 363 0148 00000000 		.word	extInt1CallbackArray
 364              	@ callbackCount:
 365 014c 01       		.byte	1
 366              	@ mode:
 367 014d 02       		.byte	2
 368 014e 0000     		.space	2
 369              		.global	keypadKeyPortPin
 370              		.align	2
 371              		.type	keypadKeyPortPin, %object
 372              		.size	keypadKeyPortPin, 40
 373              	keypadKeyPortPin:
 374              	@ port:
 375 0150 20000000 		.word	32
 376              	@ pin:
 377 0154 00400000 		.word	16384
 378              	@ port:
 379 0158 20000000 		.word	32
 380              	@ pin:
 381 015c 00800000 		.word	32768
 382              	@ port:
 383 0160 20000000 		.word	32
 384              	@ pin:
 385 0164 10000000 		.word	16
 386              	@ port:
 387 0168 20000000 		.word	32
 388              	@ pin:
 389 016c 01000000 		.word	1
 390              	@ port:
 391 0170 20000000 		.word	32
 392              	@ pin:
 393 0174 02000000 		.word	2
 394              		.global	mmcCfg
 395              		.align	2
 396              		.type	mmcCfg, %object
 397              		.size	mmcCfg, 52
 398              	mmcCfg:
ARM GAS  C:\Users\Aayush\AppData\Local\Temp\ccPGXf2s.s 			page 8


 399              	@ gpioChipSelect:
 400              	@ port:
 401 0178 00000000 		.word	0
 402              	@ pin:
 403 017c 00000100 		.word	65536
 404              	@ gpioPower:
 405              	@ port:
 406 0180 00000000 		.word	0
 407              	@ pin:
 408 0184 00000100 		.word	65536
 409              	@ gpioCardDetect:
 410              	@ port:
 411 0188 00000000 		.word	0
 412              	@ pin:
 413 018c 00000000 		.word	0
 414              	@ usePowerControl:
 415 0190 00       		.byte	0
 416              	@ useCardDetect:
 417 0191 00       		.byte	0
 418              	@ spiRegister:
 419 0192 0000     		.space	2
 420 0194 00000000 		.word	pfSpi0RegisterDevice
 421              	@ spiUnregister:
 422 0198 00000000 		.word	pfSpi0UnregisterDevice
 423              	@ spiChipSelect:
 424 019c 00000000 		.word	pfSpi0ChipSelect
 425              	@ spiExchangeByte:
 426 01a0 00000000 		.word	pfSpi0ExchangeByte
 427              	@ spiWrite:
 428 01a4 00000000 		.word	pfSpi0Write
 429              	@ spiRead:
 430 01a8 00000000 		.word	pfSpi0Read
 431              		.global	diskCfg
 432              		.align	2
 433              		.type	diskCfg, %object
 434              		.size	diskCfg, 28
 435              	diskCfg:
 436              	@ devConfig:
 437 01ac 00000000 		.word	mmcCfg
 438              	@ devOpen:
 439 01b0 00000000 		.word	mmcOpen
 440              	@ devGetStatus:
 441 01b4 00000000 		.word	mmcGetStatus
 442              	@ devRead:
 443 01b8 00000000 		.word	mmcRead
 444              	@ devWrite:
 445 01bc 00000000 		.word	mmcWrite
 446              	@ devIoCtrl:
 447 01c0 00000000 		.word	mmcIoCtrl
 448              	@ allowWrite:
 449 01c4 01       		.byte	1
 450              	@ allowIoCtrl:
 451 01c5 01       		.byte	1
 452 01c6 0000     		.space	2
 453              		.bss
 454              		.align	2
 455              	fat:
ARM GAS  C:\Users\Aayush\AppData\Local\Temp\ccPGXf2s.s 			page 9


 456 0000 00000000 		.space	564
 456      00000000 
 456      00000000 
 456      00000000 
 456      00000000 
 457              		.size	fat, 564
 458              		.section	.rodata
 459              		.align	2
 460              	.LC0:
 461 0000 0A524954 		.ascii	"\012RIT initialization failed.\000"
 461      20696E69 
 461      7469616C 
 461      697A6174 
 461      696F6E20 
 462              		.align	2
 463              	.LC1:
 464 001c 0A524954 		.ascii	"\012RIT initialized.\000"
 464      20696E69 
 464      7469616C 
 464      697A6564 
 464      2E00
 465 002e 0000     		.align	2
 466              	.LC2:
 467 0030 0A54696D 		.ascii	"\012Timer0 initialization failed.\000"
 467      65723020 
 467      696E6974 
 467      69616C69 
 467      7A617469 
 468 004f 00       		.align	2
 469              	.LC3:
 470 0050 0A54696D 		.ascii	"\012Timer0 initialized.\000"
 470      65723020 
 470      696E6974 
 470      69616C69 
 470      7A65642E 
 471 0065 000000   		.align	2
 472              	.LC4:
 473 0068 0A535049 		.ascii	"\012SPI0 initialization failed.\000"
 473      3020696E 
 473      69746961 
 473      6C697A61 
 473      74696F6E 
 474 0085 000000   		.align	2
 475              	.LC5:
 476 0088 0A535049 		.ascii	"\012SPI0 initialized.\000"
 476      3020696E 
 476      69746961 
 476      6C697A65 
 476      642E00
 477 009b 00       		.align	2
 478              	.LC6:
 479 009c 0A493243 		.ascii	"\012I2C0 initialization failed.\000"
 479      3020696E 
 479      69746961 
 479      6C697A61 
 479      74696F6E 
 480 00b9 000000   		.align	2
ARM GAS  C:\Users\Aayush\AppData\Local\Temp\ccPGXf2s.s 			page 10


 481              	.LC7:
 482 00bc 0A493243 		.ascii	"\012I2C0 initialized.\000"
 482      3020696E 
 482      69746961 
 482      6C697A65 
 482      642E00
 483 00cf 00       		.align	2
 484              	.LC8:
 485 00d0 0A42757A 		.ascii	"\012Buzzer initialization failed.\000"
 485      7A657220 
 485      696E6974 
 485      69616C69 
 485      7A617469 
 486 00ef 00       		.align	2
 487              	.LC9:
 488 00f0 0A42757A 		.ascii	"\012Buzzer initialized.\000"
 488      7A657220 
 488      696E6974 
 488      69616C69 
 488      7A65642E 
 489 0105 000000   		.align	2
 490              	.LC10:
 491 0108 0A4C4344 		.ascii	"\012LCD initialization failed.\000"
 491      20696E69 
 491      7469616C 
 491      697A6174 
 491      696F6E20 
 492              		.align	2
 493              	.LC11:
 494 0124 0A4C4344 		.ascii	"\012LCD initialized.\000"
 494      20696E69 
 494      7469616C 
 494      697A6564 
 494      2E00
 495 0136 0000     		.align	2
 496              	.LC12:
 497 0138 0A546F75 		.ascii	"\012Touch panel initialization failed.\000"
 497      63682070 
 497      616E656C 
 497      20696E69 
 497      7469616C 
 498              		.align	2
 499              	.LC13:
 500 015c 0A546F75 		.ascii	"\012Touch panel initialized.\000"
 500      63682070 
 500      616E656C 
 500      20696E69 
 500      7469616C 
 501 0176 0000     		.align	2
 502              	.LC14:
 503 0178 0A416363 		.ascii	"\012Accelerometer initialization failed.\000"
 503      656C6572 
 503      6F6D6574 
 503      65722069 
 503      6E697469 
 504 019e 0000     		.align	2
 505              	.LC15:
ARM GAS  C:\Users\Aayush\AppData\Local\Temp\ccPGXf2s.s 			page 11


 506 01a0 0A416363 		.ascii	"\012Acceleromter initialized.\000"
 506      656C6572 
 506      6F6D7465 
 506      7220696E 
 506      69746961 
 507 01bb 00       		.align	2
 508              	.LC16:
 509 01bc 0A546F75 		.ascii	"\012Touch External interrupt initialization failed."
 509      63682045 
 509      78746572 
 509      6E616C20 
 509      696E7465 
 510 01ec 00       		.ascii	"\000"
 511 01ed 000000   		.align	2
 512              	.LC17:
 513 01f0 0A546F75 		.ascii	"\012Touch External interrupt initialized.\000"
 513      63682045 
 513      78746572 
 513      6E616C20 
 513      696E7465 
 514 0217 00       		.align	2
 515              	.LC18:
 516 0218 0A4B6579 		.ascii	"\012Keypad initialization failed.\000"
 516      70616420 
 516      696E6974 
 516      69616C69 
 516      7A617469 
 517 0237 00       		.align	2
 518              	.LC19:
 519 0238 0A4B6579 		.ascii	"\012Keypad initialized.\000"
 519      70616420 
 519      696E6974 
 519      69616C69 
 519      7A65642E 
 520 024d 000000   		.align	2
 521              	.LC20:
 522 0250 0A446973 		.ascii	"\012DiskIO initialization failed.\000"
 522      6B494F20 
 522      696E6974 
 522      69616C69 
 522      7A617469 
 523 026f 00       		.align	2
 524              	.LC21:
 525 0270 0A446973 		.ascii	"\012DiskIO initialized.\000"
 525      6B494F20 
 525      696E6974 
 525      69616C69 
 525      7A65642E 
 526 0285 000000   		.align	2
 527              	.LC22:
 528 0288 0A466174 		.ascii	"\012FatFS initialization failed.\000"
 528      46532069 
 528      6E697469 
 528      616C697A 
 528      6174696F 
 529 02a6 0000     		.align	2
 530              	.LC23:
ARM GAS  C:\Users\Aayush\AppData\Local\Temp\ccPGXf2s.s 			page 12


 531 02a8 0A466174 		.ascii	"\012FatFS initialized.\000"
 531      46532069 
 531      6E697469 
 531      616C697A 
 531      65642E00 
 532              		.align	2
 533              	.LC24:
 534 02bc 0A0A5765 		.ascii	"\012\012Welcome to Phi Education.\012\000"
 534      6C636F6D 
 534      6520746F 
 534      20506869 
 534      20456475 
 535              		.text
 536              		.align	1
 537              		.global	appInit
 538              		.syntax unified
 539              		.thumb
 540              		.thumb_func
 541              		.type	appInit, %function
 542              	appInit:
 543              	.LFB60:
 544              		.file 1 "../../Source/appInit.c"
   1:../../Source/appInit.c **** /**
   2:../../Source/appInit.c ****  *  \file       appInit.c
   3:../../Source/appInit.c ****  *  \brief      Source file for Initializing the peripherals on the EduARM board.
   4:../../Source/appInit.c ****  *  This file defines the configuration structures of the peripherals with required settings.
   5:../../Source/appInit.c ****  *  Call appInit() function in your application program in the beginning to initialize the peripher
   6:../../Source/appInit.c ****  *  required in the project.
   7:../../Source/appInit.c ****  *
   8:../../Source/appInit.c ****  *  appInit() function initializes the following peripherals:
   9:../../Source/appInit.c ****  *  1.  System Clock
  10:../../Source/appInit.c ****  *  2.  UART for debugging purpose
  11:../../Source/appInit.c ****  *  3.  RIT timer and Tick module for delay generation
  12:../../Source/appInit.c ****  *  4.  Timer0 for Renderer Manager periodic callback
  13:../../Source/appInit.c ****  *  5.  SPI0 for SDcard and Touch panel
  14:../../Source/appInit.c ****  *  6.  I2C0 for Accelerometer device
  15:../../Source/appInit.c ****  *  7.  Buzzer
  16:../../Source/appInit.c ****  *  8.  LCD
  17:../../Source/appInit.c ****  *  9.  Touch panel
  18:../../Source/appInit.c ****  *  10. Accelerometer(MMA7660) device
  19:../../Source/appInit.c ****  *	11. External interrupt for Touch panel
  20:../../Source/appInit.c ****  *	12. Keypad
  21:../../Source/appInit.c ****  *	13. SDcard
  22:../../Source/appInit.c ****  *	14. Fat file system for storing files on the SDcard
  23:../../Source/appInit.c ****  */
  24:../../Source/appInit.c **** 
  25:../../Source/appInit.c **** #include "appInit.h"
  26:../../Source/appInit.c **** 
  27:../../Source/appInit.c **** #define DRIVE_NUM					0
  28:../../Source/appInit.c **** 
  29:../../Source/appInit.c **** /*
  30:../../Source/appInit.c ****  * \brief External Interrupt callback function. When there is a touch detected on the LCD screen,
  31:../../Source/appInit.c ****  * It generates an external interrupt and this function is called.
  32:../../Source/appInit.c ****  */
  33:../../Source/appInit.c **** void extIntTouchCallback(void);
  34:../../Source/appInit.c **** 
  35:../../Source/appInit.c **** /*
ARM GAS  C:\Users\Aayush\AppData\Local\Temp\ccPGXf2s.s 			page 13


  36:../../Source/appInit.c **** *  \brief This function is called periodically in Timer0 callback. This function read the commands 
  37:../../Source/appInit.c **** *  Manager and call hardware graphics library functions to display graphics on the LCD screen.
  38:../../Source/appInit.c **** */
  39:../../Source/appInit.c **** void lcdRenderer(void);
  40:../../Source/appInit.c **** 
  41:../../Source/appInit.c **** /*********************************Clock Configuration******************************************/
  42:../../Source/appInit.c **** PFCfgClk clkConfig = 
  43:../../Source/appInit.c **** {
  44:../../Source/appInit.c **** 	100000000,				// CPU clock(CCLK) set to 100Mhz
  45:../../Source/appInit.c **** 	12000000,				// Main Oscillator frequency 12Mhz
  46:../../Source/appInit.c **** 	enPllClkSrcMainOSC		// Main oscillator as the PLL0 clock source
  47:../../Source/appInit.c **** };
  48:../../Source/appInit.c **** 
  49:../../Source/appInit.c **** /*********************************RIT Configuration for Delay generation **********************/
  50:../../Source/appInit.c **** PFCfgRit ritConfig = 
  51:../../Source/appInit.c **** {
  52:../../Source/appInit.c **** 	25000,          		// Configure RIT for 1ms
  53:../../Source/appInit.c **** 	0x00,					// Compare mask
  54:../../Source/appInit.c **** 	pfTickUpdate,			// Tick module callback
  55:../../Source/appInit.c **** 	enPclkDiv_4,			// PCLK divider, PCLK_peripheral = CCLK/4
  56:../../Source/appInit.c **** 	enBooleanTrue,			// Halt on break
  57:../../Source/appInit.c **** 	enBooleanTrue			// Reset on match
  58:../../Source/appInit.c **** };
  59:../../Source/appInit.c **** 
  60:../../Source/appInit.c **** /*******************************TIMER0 Configuration*******************************************/
  61:../../Source/appInit.c **** PFCfgTimer0 timer0Config =
  62:../../Source/appInit.c **** {
  63:../../Source/appInit.c **** 	25,						// Timer clock set to 1Mhz
  64:../../Source/appInit.c **** 	{8000,0,0,0},			// Configure timer for 8ms. An interrupt will be generated after every 8ms
  65:../../Source/appInit.c **** 	{enTimer0MatchActResetInt,enTimer0MatchActNone,enTimer0MatchActNone,enTimer0MatchActNone}, //Raise
  66:../../Source/appInit.c **** 	{ enTimer0ExtMatchCtrlNone,enTimer0ExtMatchCtrlNone,enTimer0ExtMatchCtrlNone,enTimer0ExtMatchCtrlN
  67:../../Source/appInit.c **** 	lcdRenderer,			// Renderer Manager periodic callback
  68:../../Source/appInit.c **** 	enPclkDiv_4,			// PCLK divider, PCLK_peripheral = CCLK/4
  69:../../Source/appInit.c **** 	enTimer0ModeTimer, 	 	// Timer mode
  70:../../Source/appInit.c **** 	enBooleanTrue			// Interrupt enable
  71:../../Source/appInit.c **** };
  72:../../Source/appInit.c **** 
  73:../../Source/appInit.c **** /*******************************UART0 Configuration For Debug messages*************************/
  74:../../Source/appInit.c **** PFCfgUart0 uart0Config = 
  75:../../Source/appInit.c **** {
  76:../../Source/appInit.c **** 	enPclkDiv_4, 			// PCLK divider, PCLK_peripheral = CCLK/4
  77:../../Source/appInit.c **** 	enUart0Baudrate_9600, 	// 9600 baudrate
  78:../../Source/appInit.c **** 	enUart0Databits_8, 		// 8 data bits
  79:../../Source/appInit.c **** 	enUart0ParityNone, 		// No parity
  80:../../Source/appInit.c **** 	enUart0StopBits_1,		// 1 stop bit
  81:../../Source/appInit.c **** 	enUart0IntNone			// No interrupt
  82:../../Source/appInit.c **** };
  83:../../Source/appInit.c **** 
  84:../../Source/appInit.c **** /*******************************SPI Configuration for SDcard and Touch panel*********************/
  85:../../Source/appInit.c **** PFCfgSpi0 spi0Cfg =
  86:../../Source/appInit.c **** {
  87:../../Source/appInit.c **** 	enPclkDiv_4,			// Peripheral clock divider for SPI0 module, PCLK_peripheral = CCLK/4
  88:../../Source/appInit.c **** 	enBooleanTrue,			// SPI enable in master mode
  89:../../Source/appInit.c **** 	enSpi0Databits_8,		// 8 data bits for SPI0 packet
  90:../../Source/appInit.c **** 	enSpi0Mode_0,			// SPI0 mode 0: Phase 0, Polarity 0
  91:../../Source/appInit.c **** 	25000000,				// 25Mhz baudrate in bits/second
  92:../../Source/appInit.c **** 	enSpi0IntNone			// No interrupt
ARM GAS  C:\Users\Aayush\AppData\Local\Temp\ccPGXf2s.s 			page 14


  93:../../Source/appInit.c **** };
  94:../../Source/appInit.c **** 
  95:../../Source/appInit.c **** /******************************I2C Configuration for Accelerometer device *********************/
  96:../../Source/appInit.c **** #define 	EDUARM_MMA_I2C_0_SDA_PORT		GPIO_PORT_0
  97:../../Source/appInit.c **** #define 	EDUARM_MMA_I2C_0_SDA_PIN		GPIO_PIN_27
  98:../../Source/appInit.c **** 
  99:../../Source/appInit.c **** #define 	EDUARM_MMA_I2C_0_SCL_PORT		GPIO_PORT_0
 100:../../Source/appInit.c **** #define 	EDUARM_MMA_I2C_0_SCL_PIN		GPIO_PIN_28
 101:../../Source/appInit.c **** 
 102:../../Source/appInit.c **** // GPIO configuration
 103:../../Source/appInit.c **** PFCfgGpio eduarmMma7660GpioCfg[2] =
 104:../../Source/appInit.c **** {
 105:../../Source/appInit.c **** 	//SDA
 106:../../Source/appInit.c **** 	{EDUARM_MMA_I2C_0_SDA_PORT,EDUARM_MMA_I2C_0_SDA_PIN,enGpioDirInput, enGpioPinModePullUp, enGpioOpe
 107:../../Source/appInit.c **** 	//SCL
 108:../../Source/appInit.c **** 	{EDUARM_MMA_I2C_0_SCL_PORT,EDUARM_MMA_I2C_0_SCL_PIN,enGpioDirOutput, enGpioPinModePullUp, enGpioOp
 109:../../Source/appInit.c **** };
 110:../../Source/appInit.c **** 
 111:../../Source/appInit.c **** PFCfgI2c0 i2c0Cfg =
 112:../../Source/appInit.c **** {
 113:../../Source/appInit.c **** 		100000,				// set 100Khz baudrate
 114:../../Source/appInit.c **** 		enPclkDiv_4,		// PCLK divider, PCLK_peripheral = CCLK/4
 115:../../Source/appInit.c **** 		50,					// 50% duty cycle for bus clock
 116:../../Source/appInit.c **** 		enBooleanTrue,		// Enable acknowledgement
 117:../../Source/appInit.c **** 		enBooleanFalse,		// Disable general call
 118:../../Source/appInit.c **** 		{0, 0, 0, 0},		// Own addresses
 119:../../Source/appInit.c **** 		{0, 0, 0, 0},		// Address masks
 120:../../Source/appInit.c **** 		enBooleanFalse		// Disable interrupt
 121:../../Source/appInit.c **** };
 122:../../Source/appInit.c **** 
 123:../../Source/appInit.c **** CfgMma7660 accelConfig =
 124:../../Source/appInit.c **** {
 125:../../Source/appInit.c **** 	en8SamplesPerSecond,	// Active mode sample rate set to 8 samples per second
 126:../../Source/appInit.c **** 	pfI2c0Write,			// I2c0Write function pointer
 127:../../Source/appInit.c **** 	pfI2c0Read,				// I2c0Read function pointer
 128:../../Source/appInit.c **** 	SH_X_INTERRUPT | SH_Y_INTERRUPT | SH_Z_INTERRUPT	//Set shake status on X,Y and Z axis in Tilt regi
 129:../../Source/appInit.c **** };
 130:../../Source/appInit.c **** 
 131:../../Source/appInit.c **** /*****************************BUZZER Configuration*****************************************/
 132:../../Source/appInit.c **** #define EDUARM_BUZZER_PORT		GPIO_PORT_1
 133:../../Source/appInit.c **** #define EDUARM_BUZZER_PIN		GPIO_PIN_26
 134:../../Source/appInit.c **** 
 135:../../Source/appInit.c **** //GPIO configuration
 136:../../Source/appInit.c **** PFCfgGpio eduarmBuzzerGpioCfg =
 137:../../Source/appInit.c **** {
 138:../../Source/appInit.c **** 	EDUARM_BUZZER_PORT, EDUARM_BUZZER_PIN, enGpioDirOutput,enGpioPinModeNoPullUpDown, enGpioOpenDrainD
 139:../../Source/appInit.c **** };
 140:../../Source/appInit.c **** 
 141:../../Source/appInit.c **** BuzzerCfg buzzerConfig =
 142:../../Source/appInit.c **** {
 143:../../Source/appInit.c **** 	{EDUARM_BUZZER_PORT, EDUARM_BUZZER_PIN}			// Buzzer GPIO pin
 144:../../Source/appInit.c **** };
 145:../../Source/appInit.c **** 
 146:../../Source/appInit.c **** /*****************************LCD Configuration********************************************/
 147:../../Source/appInit.c **** CfgGfx lcdDisplayConfig  = 
 148:../../Source/appInit.c **** {  
 149:../../Source/appInit.c **** 	{
ARM GAS  C:\Users\Aayush\AppData\Local\Temp\ccPGXf2s.s 			page 15


 150:../../Source/appInit.c **** 		{EDUARM_LCD_DATA_PORT,EDUARM_LCD_DATA_0},	// Data pin0
 151:../../Source/appInit.c **** 		{EDUARM_LCD_DATA_PORT,EDUARM_LCD_DATA_1},	// Data pin1
 152:../../Source/appInit.c **** 		{EDUARM_LCD_DATA_PORT,EDUARM_LCD_DATA_2},	// Data pin2
 153:../../Source/appInit.c **** 		{EDUARM_LCD_DATA_PORT,EDUARM_LCD_DATA_3},	// Data pin3
 154:../../Source/appInit.c **** 		{EDUARM_LCD_DATA_PORT,EDUARM_LCD_DATA_4},	// Data pin4
 155:../../Source/appInit.c **** 		{EDUARM_LCD_DATA_PORT,EDUARM_LCD_DATA_5},	// Data pin5
 156:../../Source/appInit.c **** 		{EDUARM_LCD_DATA_PORT,EDUARM_LCD_DATA_6},	// Data pin6
 157:../../Source/appInit.c **** 		{EDUARM_LCD_DATA_PORT,EDUARM_LCD_DATA_7}   	// Data pin7
 158:../../Source/appInit.c **** 	},
 159:../../Source/appInit.c **** 	{EDUARM_LCD_CS_PORT,EDUARM_LCD_CS_PIN},         // CS pin
 160:../../Source/appInit.c **** 	{EDUARM_LCD_RS_PORT,EDUARM_LCD_RS_PIN},         // RS pin
 161:../../Source/appInit.c **** 	{EDUARM_LCD_WR_PORT,EDUARM_LCD_WR_PIN},         // WR pin
 162:../../Source/appInit.c **** 	{EDUARM_LCD_RD_PORT,EDUARM_LCD_RD_PIN},         // RD pin
 163:../../Source/appInit.c **** 	{EDUARM_LCD_RST_PORT,EDUARM_LCD_RST_PIN},       // Reset pin
 164:../../Source/appInit.c **** 	enGfxOrientation_0,								// Screen orientation
 165:../../Source/appInit.c **** 	320,											// LCD height
 166:../../Source/appInit.c **** 	240												// LCD width
 167:../../Source/appInit.c **** };
 168:../../Source/appInit.c **** 
 169:../../Source/appInit.c **** /*****************************TOUCH Configuration******************************************/
 170:../../Source/appInit.c **** CfgTouch touchConfig = 
 171:../../Source/appInit.c **** {
 172:../../Source/appInit.c **** 	{EDUARM_TOUCH_SSP_0_INT_PORT, EDUARM_TOUCH_SSP_0_INT_PIN},		// Touch interrupt pin
 173:../../Source/appInit.c **** 	{EDUARM_TOUCH_SSP_0_BUSY_PORT, EDUARM_TOUCH_SSP_0_BUSY_PIN},	// Touch busy pin
 174:../../Source/appInit.c **** 	{EDUARM_TOUCH_SSP_0_SSEL_PORT, EDUARM_TOUCH_SSP_0_SSEL_PIN},	// Touch chip select pin
 175:../../Source/appInit.c **** 	enTouchReferenceSelect_Differential,							// Differential reference select
 176:../../Source/appInit.c **** 	enTouchPrecision_12bit,											// 12 bit precision
 177:../../Source/appInit.c **** 	pfSpi0RegisterDevice,				// Function pointer for SPI register device
 178:../../Source/appInit.c **** 	pfSpi0ChipSelect,					// Function pointer for SPI chip select
 179:../../Source/appInit.c **** 	pfSpi0Write,						// Function pointer for SPI write
 180:../../Source/appInit.c **** 	pfSpi0Read							// Function pointer for SPI read
 181:../../Source/appInit.c **** };
 182:../../Source/appInit.c **** 
 183:../../Source/appInit.c **** /******************************EINT1(Touch) Configuration**********************************/
 184:../../Source/appInit.c **** PFcallback extInt1CallbackArray[1] = {extIntTouchCallback};
 185:../../Source/appInit.c **** PFCfgEint1 extIntTouchConfig =
 186:../../Source/appInit.c **** {
 187:../../Source/appInit.c **** 	extInt1CallbackArray,				// Array of callbacks
 188:../../Source/appInit.c **** 	1,									// 1 callback in callback array list
 189:../../Source/appInit.c **** 	enEint1ModeFallingEdge				// Falling edge triggered interrupt
 190:../../Source/appInit.c **** };
 191:../../Source/appInit.c **** 
 192:../../Source/appInit.c **** /*****************************KEYPAD Configuration*****************************************/
 193:../../Source/appInit.c **** PFGpioPortPin keypadKeyPortPin[5] = 
 194:../../Source/appInit.c **** {
 195:../../Source/appInit.c **** 	{EDUARM_PUSHBUTTON_PB1_PORT, EDUARM_PUSHBUTTON_PB1_PIN},	// Pushbutton1 GPIO pin
 196:../../Source/appInit.c **** 	{EDUARM_PUSHBUTTON_PB2_PORT, EDUARM_PUSHBUTTON_PB2_PIN},	// Pushbutton2 GPIO pin
 197:../../Source/appInit.c **** 	{EDUARM_PUSHBUTTON_PB3_PORT, EDUARM_PUSHBUTTON_PB3_PIN},	// Pushbutton3 GPIO pin
 198:../../Source/appInit.c **** 	{EDUARM_PUSHBUTTON_PB4_PORT, EDUARM_PUSHBUTTON_PB4_PIN},	// Pushbutton4 GPIO pin
 199:../../Source/appInit.c **** 	{EDUARM_PUSHBUTTON_PB5_PORT, EDUARM_PUSHBUTTON_PB5_PIN}		// Pushbutton5 GPIO pin
 200:../../Source/appInit.c **** };
 201:../../Source/appInit.c **** 
 202:../../Source/appInit.c **** /****************************SD CARD Configuration****************************************/
 203:../../Source/appInit.c **** CfgMmc mmcCfg =
 204:../../Source/appInit.c **** {
 205:../../Source/appInit.c **** 	{EDUARM_SDCARD_SSP_0_SSEL_PORT, EDUARM_SDCARD_SSP_0_SSEL_PIN},		// GPIO pin used for SPI chip sele
 206:../../Source/appInit.c **** 	{EDUARM_SDCARD_SSP_0_SSEL_PORT, EDUARM_SDCARD_SSP_0_SSEL_PIN},		// GPIO pin used for power control
ARM GAS  C:\Users\Aayush\AppData\Local\Temp\ccPGXf2s.s 			page 16


 207:../../Source/appInit.c **** 	 {0,0},			                    								// GPIO pin used for device detection
 208:../../Source/appInit.c **** 	enBooleanFalse,					    // Power control option for MMC card
 209:../../Source/appInit.c **** 	enBooleanFalse,						// Card detect option for MMC card
 210:../../Source/appInit.c **** 	pfSpi0RegisterDevice,				// Function pointer to SPI register device
 211:../../Source/appInit.c **** 	pfSpi0UnregisterDevice,				// Function pointer to SPI unregister device
 212:../../Source/appInit.c **** 	pfSpi0ChipSelect,					// Function pointer to SPI chip select
 213:../../Source/appInit.c **** 	pfSpi0ExchangeByte,					// Function pointer to SPI exchange byte
 214:../../Source/appInit.c **** 	pfSpi0Write,						// Function pointer to SPI read
 215:../../Source/appInit.c **** 	pfSpi0Read							// Function pointer to SPI write
 216:../../Source/appInit.c **** };
 217:../../Source/appInit.c **** 
 218:../../Source/appInit.c **** /****************************DISKIO  Configuration****************************************/
 219:../../Source/appInit.c **** CfgDisk diskCfg =
 220:../../Source/appInit.c **** {
 221:../../Source/appInit.c ****  (pCfgMmc)&mmcCfg,						// Device configuration structure
 222:../../Source/appInit.c **** 	mmcOpen,							// Pointer to device open function
 223:../../Source/appInit.c **** 	mmcGetStatus,						// Pointer to device get status function
 224:../../Source/appInit.c **** 	mmcRead,							// Pointer to device read function
 225:../../Source/appInit.c **** 	mmcWrite,							// Pointer to device write function
 226:../../Source/appInit.c **** 	mmcIoCtrl,							// Pointer to device control function
 227:../../Source/appInit.c **** 	enBooleanTrue,						// Set device write permission
 228:../../Source/appInit.c **** 	enBooleanTrue						// Set device IO control permission
 229:../../Source/appInit.c **** };
 230:../../Source/appInit.c **** 
 231:../../Source/appInit.c **** /** File system object structure */
 232:../../Source/appInit.c **** static FatFs fat;
 233:../../Source/appInit.c **** 
 234:../../Source/appInit.c **** void appInit(void)
 235:../../Source/appInit.c **** {
 545              		.loc 1 235 1
 546              		.cfi_startproc
 547              		@ args = 0, pretend = 0, frame = 16
 548              		@ frame_needed = 0, uses_anonymous_args = 0
 549 0000 00B5     		push	{lr}	@
 550              	.LCFI0:
 551              		.cfi_def_cfa_offset 4
 552              		.cfi_offset 14, -4
 553 0002 85B0     		sub	sp, sp, #20	@,,
 554              	.LCFI1:
 555              		.cfi_def_cfa_offset 24
 556              	@ ../../Source/appInit.c:240: 	pfSysSetCpuClock(&clkConfig);
 236:../../Source/appInit.c **** 	PFEnStatus status;
 237:../../Source/appInit.c **** 	PFbyte diskId;
 238:../../Source/appInit.c **** 	
 239:../../Source/appInit.c **** 	//CPU clock initialization
 240:../../Source/appInit.c **** 	pfSysSetCpuClock(&clkConfig);
 557              		.loc 1 240 2
 558 0004 A248     		ldr	r0, .L32	@,
 559 0006 FFF7FEFF 		bl	pfSysSetCpuClock		@
 560              	@ ../../Source/appInit.c:243: 	status = pfGpioInit(eduarmUart0GpioCfg, 2);		    // For UART0
 241:../../Source/appInit.c **** 	
 242:../../Source/appInit.c **** 	//GPIO pins initialization
 243:../../Source/appInit.c **** 	status = pfGpioInit(eduarmUart0GpioCfg, 2);		    // For UART0
 561              		.loc 1 243 11
 562 000a 0221     		movs	r1, #2	@,
 563 000c A148     		ldr	r0, .L32+4	@,
 564 000e FFF7FEFF 		bl	pfGpioInit		@
ARM GAS  C:\Users\Aayush\AppData\Local\Temp\ccPGXf2s.s 			page 17


 565 0012 0346     		mov	r3, r0	@ tmp124,
 566 0014 8DF80F30 		strb	r3, [sp, #15]	@ tmp125, status
 567              	@ ../../Source/appInit.c:244: 	status = pfGpioInit(eduarmLcdGpioCfg,6);			// For LCD
 244:../../Source/appInit.c **** 	status = pfGpioInit(eduarmLcdGpioCfg,6);			// For LCD
 568              		.loc 1 244 11
 569 0018 0621     		movs	r1, #6	@,
 570 001a 9F48     		ldr	r0, .L32+8	@,
 571 001c FFF7FEFF 		bl	pfGpioInit		@
 572 0020 0346     		mov	r3, r0	@ tmp126,
 573 0022 8DF80F30 		strb	r3, [sp, #15]	@ tmp127, status
 574              	@ ../../Source/appInit.c:245: 	status = pfGpioInit(eduarmTouchGpioCfg,6);			// For Touch
 245:../../Source/appInit.c **** 	status = pfGpioInit(eduarmTouchGpioCfg,6);			// For Touch
 575              		.loc 1 245 11
 576 0026 0621     		movs	r1, #6	@,
 577 0028 9C48     		ldr	r0, .L32+12	@,
 578 002a FFF7FEFF 		bl	pfGpioInit		@
 579 002e 0346     		mov	r3, r0	@ tmp128,
 580 0030 8DF80F30 		strb	r3, [sp, #15]	@ tmp129, status
 581              	@ ../../Source/appInit.c:246: 	status = pfGpioInit(&eduarmTouchIntGpioCfg,1);		// For Touch Interru
 246:../../Source/appInit.c **** 	status = pfGpioInit(&eduarmTouchIntGpioCfg,1);		// For Touch Interrupt
 582              		.loc 1 246 11
 583 0034 0121     		movs	r1, #1	@,
 584 0036 9A48     		ldr	r0, .L32+16	@,
 585 0038 FFF7FEFF 		bl	pfGpioInit		@
 586 003c 0346     		mov	r3, r0	@ tmp130,
 587 003e 8DF80F30 		strb	r3, [sp, #15]	@ tmp131, status
 588              	@ ../../Source/appInit.c:247: 	status = pfGpioInit(eduarmSdcardGpioCfg,4);			// For SDcard
 247:../../Source/appInit.c **** 	status = pfGpioInit(eduarmSdcardGpioCfg,4);			// For SDcard
 589              		.loc 1 247 11
 590 0042 0421     		movs	r1, #4	@,
 591 0044 9748     		ldr	r0, .L32+20	@,
 592 0046 FFF7FEFF 		bl	pfGpioInit		@
 593 004a 0346     		mov	r3, r0	@ tmp132,
 594 004c 8DF80F30 		strb	r3, [sp, #15]	@ tmp133, status
 595              	@ ../../Source/appInit.c:248: 	status = pfGpioInit(eduarmPushButtonGpioCfg,5);	    // For Keypad
 248:../../Source/appInit.c **** 	status = pfGpioInit(eduarmPushButtonGpioCfg,5);	    // For Keypad
 596              		.loc 1 248 11
 597 0050 0521     		movs	r1, #5	@,
 598 0052 9548     		ldr	r0, .L32+24	@,
 599 0054 FFF7FEFF 		bl	pfGpioInit		@
 600 0058 0346     		mov	r3, r0	@ tmp134,
 601 005a 8DF80F30 		strb	r3, [sp, #15]	@ tmp135, status
 602              	@ ../../Source/appInit.c:249: 	status = pfGpioInit(eduarmMma7660GpioCfg,2);		// For Accelerometer
 249:../../Source/appInit.c **** 	status = pfGpioInit(eduarmMma7660GpioCfg,2);		// For Accelerometer
 603              		.loc 1 249 11
 604 005e 0221     		movs	r1, #2	@,
 605 0060 9248     		ldr	r0, .L32+28	@,
 606 0062 FFF7FEFF 		bl	pfGpioInit		@
 607 0066 0346     		mov	r3, r0	@ tmp136,
 608 0068 8DF80F30 		strb	r3, [sp, #15]	@ tmp137, status
 609              	@ ../../Source/appInit.c:250: 	status = pfGpioInit(&eduarmBuzzerGpioCfg,1);		// For Buzzer
 250:../../Source/appInit.c **** 	status = pfGpioInit(&eduarmBuzzerGpioCfg,1);		// For Buzzer
 610              		.loc 1 250 11
 611 006c 0121     		movs	r1, #1	@,
 612 006e 9048     		ldr	r0, .L32+32	@,
 613 0070 FFF7FEFF 		bl	pfGpioInit		@
 614 0074 0346     		mov	r3, r0	@ tmp138,
ARM GAS  C:\Users\Aayush\AppData\Local\Temp\ccPGXf2s.s 			page 18


 615 0076 8DF80F30 		strb	r3, [sp, #15]	@ tmp139, status
 616              	@ ../../Source/appInit.c:253: 	status = pfUart0Open(&uart0Config);
 251:../../Source/appInit.c **** 
 252:../../Source/appInit.c **** 	// UART0 Peripheral initialization
 253:../../Source/appInit.c **** 	status = pfUart0Open(&uart0Config);
 617              		.loc 1 253 11
 618 007a 8E48     		ldr	r0, .L32+36	@,
 619 007c FFF7FEFF 		bl	pfUart0Open		@
 620 0080 0346     		mov	r3, r0	@ tmp140,
 621 0082 8DF80F30 		strb	r3, [sp, #15]	@ tmp141, status
 622              	@ ../../Source/appInit.c:254: 	if(status != enStatusSuccess)
 254:../../Source/appInit.c **** 	if(status != enStatusSuccess)
 623              		.loc 1 254 4
 624 0086 9DF80F30 		ldrb	r3, [sp, #15]	@ zero_extendqisi2	@ tmp142, status
 625 008a 002B     		cmp	r3, #0	@ tmp142,
 626 008c 00D0     		beq	.L2		@,
 627              	.L3:
 628              	@ ../../Source/appInit.c:256: 		while(1);
 255:../../Source/appInit.c **** 	{
 256:../../Source/appInit.c **** 		while(1);
 629              		.loc 1 256 8 discriminator 1
 630 008e FEE7     		b	.L3		@
 631              	.L2:
 632              	@ ../../Source/appInit.c:260: 	status = pfRitOpen(&ritConfig);
 257:../../Source/appInit.c **** 	}
 258:../../Source/appInit.c **** 
 259:../../Source/appInit.c **** 	//RIT Peripheral initialization
 260:../../Source/appInit.c **** 	status = pfRitOpen(&ritConfig);
 633              		.loc 1 260 11
 634 0090 8948     		ldr	r0, .L32+40	@,
 635 0092 FFF7FEFF 		bl	pfRitOpen		@
 636 0096 0346     		mov	r3, r0	@ tmp143,
 637 0098 8DF80F30 		strb	r3, [sp, #15]	@ tmp144, status
 638              	@ ../../Source/appInit.c:261: 	if(status != enStatusSuccess)
 261:../../Source/appInit.c **** 	if(status != enStatusSuccess)
 639              		.loc 1 261 4
 640 009c 9DF80F30 		ldrb	r3, [sp, #15]	@ zero_extendqisi2	@ tmp145, status
 641 00a0 002B     		cmp	r3, #0	@ tmp145,
 642 00a2 03D0     		beq	.L4		@,
 643              	@ ../../Source/appInit.c:263: 		DEBUG_WRITE("\nRIT initialization failed.");
 262:../../Source/appInit.c **** 	{
 263:../../Source/appInit.c **** 		DEBUG_WRITE("\nRIT initialization failed.");
 644              		.loc 1 263 3
 645 00a4 8548     		ldr	r0, .L32+44	@,
 646 00a6 FFF7FEFF 		bl	pfUart0WriteString		@
 647              	.L5:
 648              	@ ../../Source/appInit.c:264: 		while(1);
 264:../../Source/appInit.c **** 		while(1);
 649              		.loc 1 264 8 discriminator 2
 650 00aa FEE7     		b	.L5		@
 651              	.L4:
 652              	@ ../../Source/appInit.c:268: 		DEBUG_WRITE("\nRIT initialized.");
 265:../../Source/appInit.c **** 	}
 266:../../Source/appInit.c **** 	else
 267:../../Source/appInit.c **** 	{
 268:../../Source/appInit.c **** 		DEBUG_WRITE("\nRIT initialized.");
 653              		.loc 1 268 3
ARM GAS  C:\Users\Aayush\AppData\Local\Temp\ccPGXf2s.s 			page 19


 654 00ac 8448     		ldr	r0, .L32+48	@,
 655 00ae FFF7FEFF 		bl	pfUart0WriteString		@
 656              	@ ../../Source/appInit.c:270:     pfRitStart();								//Starting RIT timer
 269:../../Source/appInit.c **** 	}		
 270:../../Source/appInit.c ****     pfRitStart();								//Starting RIT timer
 657              		.loc 1 270 5
 658 00b2 FFF7FEFF 		bl	pfRitStart		@
 659              	@ ../../Source/appInit.c:274:     pfTickSetTimerPeriod(1);					//Set tick timer period to 1ms
 271:../../Source/appInit.c **** 
 272:../../Source/appInit.c ****     //Initializing tick module. It is used for generating delay in the program.
 273:../../Source/appInit.c ****     //Use pfTickDelayMs(delayMs) function to generate delay in the program. Pass delayMs value in m
 274:../../Source/appInit.c ****     pfTickSetTimerPeriod(1);					//Set tick timer period to 1ms
 660              		.loc 1 274 5
 661 00b6 0120     		movs	r0, #1	@,
 662 00b8 FFF7FEFF 		bl	pfTickSetTimerPeriod		@
 663              	@ ../../Source/appInit.c:277:     status = pfTimer0Open(&timer0Config);
 275:../../Source/appInit.c **** 	
 276:../../Source/appInit.c **** 	//Timer Peripheral initialization
 277:../../Source/appInit.c ****     status = pfTimer0Open(&timer0Config);
 664              		.loc 1 277 14
 665 00bc 8148     		ldr	r0, .L32+52	@,
 666 00be FFF7FEFF 		bl	pfTimer0Open		@
 667 00c2 0346     		mov	r3, r0	@ tmp146,
 668 00c4 8DF80F30 		strb	r3, [sp, #15]	@ tmp147, status
 669              	@ ../../Source/appInit.c:278: 	if(status != enStatusSuccess)
 278:../../Source/appInit.c **** 	if(status != enStatusSuccess)
 670              		.loc 1 278 4
 671 00c8 9DF80F30 		ldrb	r3, [sp, #15]	@ zero_extendqisi2	@ tmp148, status
 672 00cc 002B     		cmp	r3, #0	@ tmp148,
 673 00ce 03D0     		beq	.L6		@,
 674              	@ ../../Source/appInit.c:280: 		DEBUG_WRITE("\nTimer0 initialization failed.");
 279:../../Source/appInit.c **** 	{
 280:../../Source/appInit.c **** 		DEBUG_WRITE("\nTimer0 initialization failed.");
 675              		.loc 1 280 3
 676 00d0 7D48     		ldr	r0, .L32+56	@,
 677 00d2 FFF7FEFF 		bl	pfUart0WriteString		@
 678              	.L7:
 679              	@ ../../Source/appInit.c:281: 		while(1);
 281:../../Source/appInit.c **** 		while(1);
 680              		.loc 1 281 8 discriminator 3
 681 00d6 FEE7     		b	.L7		@
 682              	.L6:
 683              	@ ../../Source/appInit.c:285: 		DEBUG_WRITE("\nTimer0 initialized.");
 282:../../Source/appInit.c **** 	}
 283:../../Source/appInit.c **** 	else
 284:../../Source/appInit.c **** 	{
 285:../../Source/appInit.c **** 		DEBUG_WRITE("\nTimer0 initialized.");
 684              		.loc 1 285 3
 685 00d8 7C48     		ldr	r0, .L32+60	@,
 686 00da FFF7FEFF 		bl	pfUart0WriteString		@
 687              	@ ../../Source/appInit.c:287: 	pfTimer0Start();							//Starting Timer0
 286:../../Source/appInit.c **** 	}
 287:../../Source/appInit.c **** 	pfTimer0Start();							//Starting Timer0
 688              		.loc 1 287 2
 689 00de FFF7FEFF 		bl	pfTimer0Start		@
 690              	@ ../../Source/appInit.c:290: 	status = pfSpi0Open((PFpCfgSpi0)&spi0Cfg);
 288:../../Source/appInit.c **** 
ARM GAS  C:\Users\Aayush\AppData\Local\Temp\ccPGXf2s.s 			page 20


 289:../../Source/appInit.c **** 	//SPI0 initialization
 290:../../Source/appInit.c **** 	status = pfSpi0Open((PFpCfgSpi0)&spi0Cfg);
 691              		.loc 1 290 11
 692 00e2 7B48     		ldr	r0, .L32+64	@,
 693 00e4 FFF7FEFF 		bl	pfSpi0Open		@
 694 00e8 0346     		mov	r3, r0	@ tmp149,
 695 00ea 8DF80F30 		strb	r3, [sp, #15]	@ tmp150, status
 696              	@ ../../Source/appInit.c:291: 	if(status != enStatusSuccess)
 291:../../Source/appInit.c **** 	if(status != enStatusSuccess)
 697              		.loc 1 291 4
 698 00ee 9DF80F30 		ldrb	r3, [sp, #15]	@ zero_extendqisi2	@ tmp151, status
 699 00f2 002B     		cmp	r3, #0	@ tmp151,
 700 00f4 03D0     		beq	.L8		@,
 701              	@ ../../Source/appInit.c:293: 		DEBUG_WRITE("\nSPI0 initialization failed.");
 292:../../Source/appInit.c **** 	{
 293:../../Source/appInit.c **** 		DEBUG_WRITE("\nSPI0 initialization failed.");
 702              		.loc 1 293 3
 703 00f6 7748     		ldr	r0, .L32+68	@,
 704 00f8 FFF7FEFF 		bl	pfUart0WriteString		@
 705              	.L9:
 706              	@ ../../Source/appInit.c:294: 		while(1);
 294:../../Source/appInit.c **** 		while(1);
 707              		.loc 1 294 8 discriminator 4
 708 00fc FEE7     		b	.L9		@
 709              	.L8:
 710              	@ ../../Source/appInit.c:298: 		DEBUG_WRITE("\nSPI0 initialized.");
 295:../../Source/appInit.c **** 	}
 296:../../Source/appInit.c **** 	else
 297:../../Source/appInit.c **** 	{
 298:../../Source/appInit.c **** 		DEBUG_WRITE("\nSPI0 initialized.");
 711              		.loc 1 298 3
 712 00fe 7648     		ldr	r0, .L32+72	@,
 713 0100 FFF7FEFF 		bl	pfUart0WriteString		@
 714              	@ ../../Source/appInit.c:302: 	status = pfI2c0Open((PFpCfgI2c0)&i2c0Cfg);
 299:../../Source/appInit.c **** 	}
 300:../../Source/appInit.c **** 
 301:../../Source/appInit.c **** 	//I2C0 initialization
 302:../../Source/appInit.c **** 	status = pfI2c0Open((PFpCfgI2c0)&i2c0Cfg);
 715              		.loc 1 302 11
 716 0104 7548     		ldr	r0, .L32+76	@,
 717 0106 FFF7FEFF 		bl	pfI2c0Open		@
 718 010a 0346     		mov	r3, r0	@ tmp152,
 719 010c 8DF80F30 		strb	r3, [sp, #15]	@ tmp153, status
 720              	@ ../../Source/appInit.c:303: 	if(status != enStatusSuccess)
 303:../../Source/appInit.c **** 	if(status != enStatusSuccess)
 721              		.loc 1 303 4
 722 0110 9DF80F30 		ldrb	r3, [sp, #15]	@ zero_extendqisi2	@ tmp154, status
 723 0114 002B     		cmp	r3, #0	@ tmp154,
 724 0116 03D0     		beq	.L10		@,
 725              	@ ../../Source/appInit.c:305: 		DEBUG_WRITE("\nI2C0 initialization failed.");
 304:../../Source/appInit.c **** 	{
 305:../../Source/appInit.c **** 		DEBUG_WRITE("\nI2C0 initialization failed.");
 726              		.loc 1 305 3
 727 0118 7148     		ldr	r0, .L32+80	@,
 728 011a FFF7FEFF 		bl	pfUart0WriteString		@
 729              	.L11:
 730              	@ ../../Source/appInit.c:306: 		while(1);
ARM GAS  C:\Users\Aayush\AppData\Local\Temp\ccPGXf2s.s 			page 21


 306:../../Source/appInit.c **** 		while(1);
 731              		.loc 1 306 8 discriminator 5
 732 011e FEE7     		b	.L11		@
 733              	.L10:
 734              	@ ../../Source/appInit.c:310: 		DEBUG_WRITE("\nI2C0 initialized.");
 307:../../Source/appInit.c **** 	}
 308:../../Source/appInit.c **** 	else
 309:../../Source/appInit.c **** 	{
 310:../../Source/appInit.c **** 		DEBUG_WRITE("\nI2C0 initialized.");
 735              		.loc 1 310 3
 736 0120 7048     		ldr	r0, .L32+84	@,
 737 0122 FFF7FEFF 		bl	pfUart0WriteString		@
 738              	@ ../../Source/appInit.c:314: 	status = buzzerOpen(&buzzerConfig);
 311:../../Source/appInit.c **** 	}
 312:../../Source/appInit.c **** 
 313:../../Source/appInit.c **** 	//Buzzer initialization
 314:../../Source/appInit.c **** 	status = buzzerOpen(&buzzerConfig);
 739              		.loc 1 314 11
 740 0126 7048     		ldr	r0, .L32+88	@,
 741 0128 FFF7FEFF 		bl	buzzerOpen		@
 742 012c 0346     		mov	r3, r0	@ tmp155,
 743 012e 8DF80F30 		strb	r3, [sp, #15]	@ tmp156, status
 744              	@ ../../Source/appInit.c:315: 	if(status != enStatusSuccess)
 315:../../Source/appInit.c **** 	if(status != enStatusSuccess)
 745              		.loc 1 315 4
 746 0132 9DF80F30 		ldrb	r3, [sp, #15]	@ zero_extendqisi2	@ tmp157, status
 747 0136 002B     		cmp	r3, #0	@ tmp157,
 748 0138 03D0     		beq	.L12		@,
 749              	@ ../../Source/appInit.c:317: 		DEBUG_WRITE("\nBuzzer initialization failed.");
 316:../../Source/appInit.c **** 	{
 317:../../Source/appInit.c **** 		DEBUG_WRITE("\nBuzzer initialization failed.");
 750              		.loc 1 317 3
 751 013a 6C48     		ldr	r0, .L32+92	@,
 752 013c FFF7FEFF 		bl	pfUart0WriteString		@
 753              	.L13:
 754              	@ ../../Source/appInit.c:318: 		while(1);
 318:../../Source/appInit.c **** 		while(1);
 755              		.loc 1 318 8 discriminator 6
 756 0140 FEE7     		b	.L13		@
 757              	.L12:
 758              	@ ../../Source/appInit.c:322: 		DEBUG_WRITE("\nBuzzer initialized.");
 319:../../Source/appInit.c **** 	}
 320:../../Source/appInit.c **** 	else
 321:../../Source/appInit.c **** 	{
 322:../../Source/appInit.c **** 		DEBUG_WRITE("\nBuzzer initialized.");
 759              		.loc 1 322 3
 760 0142 6B48     		ldr	r0, .L32+96	@,
 761 0144 FFF7FEFF 		bl	pfUart0WriteString		@
 762              	@ ../../Source/appInit.c:326: 	status  = gfxOpen(&lcdDisplayConfig);
 323:../../Source/appInit.c **** 	}
 324:../../Source/appInit.c **** 
 325:../../Source/appInit.c **** 	//LCD initialization
 326:../../Source/appInit.c **** 	status  = gfxOpen(&lcdDisplayConfig);
 763              		.loc 1 326 12
 764 0148 6A48     		ldr	r0, .L32+100	@,
 765 014a FFF7FEFF 		bl	gfxOpen		@
 766 014e 0346     		mov	r3, r0	@ tmp158,
ARM GAS  C:\Users\Aayush\AppData\Local\Temp\ccPGXf2s.s 			page 22


 767 0150 8DF80F30 		strb	r3, [sp, #15]	@ tmp159, status
 768              	@ ../../Source/appInit.c:327: 	if(status != enStatusSuccess)
 327:../../Source/appInit.c **** 	if(status != enStatusSuccess)
 769              		.loc 1 327 4
 770 0154 9DF80F30 		ldrb	r3, [sp, #15]	@ zero_extendqisi2	@ tmp160, status
 771 0158 002B     		cmp	r3, #0	@ tmp160,
 772 015a 03D0     		beq	.L14		@,
 773              	@ ../../Source/appInit.c:329: 		DEBUG_WRITE("\nLCD initialization failed.");
 328:../../Source/appInit.c **** 	{
 329:../../Source/appInit.c **** 		DEBUG_WRITE("\nLCD initialization failed.");
 774              		.loc 1 329 3
 775 015c 6648     		ldr	r0, .L32+104	@,
 776 015e FFF7FEFF 		bl	pfUart0WriteString		@
 777              	.L15:
 778              	@ ../../Source/appInit.c:330: 		while(1);
 330:../../Source/appInit.c **** 		while(1);
 779              		.loc 1 330 8 discriminator 7
 780 0162 FEE7     		b	.L15		@
 781              	.L14:
 782              	@ ../../Source/appInit.c:334: 		DEBUG_WRITE("\nLCD initialized.");
 331:../../Source/appInit.c **** 	}
 332:../../Source/appInit.c **** 	else
 333:../../Source/appInit.c **** 	{
 334:../../Source/appInit.c **** 		DEBUG_WRITE("\nLCD initialized.");
 783              		.loc 1 334 3
 784 0164 6548     		ldr	r0, .L32+108	@,
 785 0166 FFF7FEFF 		bl	pfUart0WriteString		@
 786              	@ ../../Source/appInit.c:338: 	status = touchOpen(&touchConfig);
 335:../../Source/appInit.c **** 	}
 336:../../Source/appInit.c **** 		
 337:../../Source/appInit.c **** 	//Touch panel initialization
 338:../../Source/appInit.c **** 	status = touchOpen(&touchConfig);
 787              		.loc 1 338 11
 788 016a 6548     		ldr	r0, .L32+112	@,
 789 016c FFF7FEFF 		bl	touchOpen		@
 790 0170 0346     		mov	r3, r0	@ tmp161,
 791 0172 8DF80F30 		strb	r3, [sp, #15]	@ tmp162, status
 792              	@ ../../Source/appInit.c:339: 	if(status != enStatusSuccess)
 339:../../Source/appInit.c **** 	if(status != enStatusSuccess)
 793              		.loc 1 339 4
 794 0176 9DF80F30 		ldrb	r3, [sp, #15]	@ zero_extendqisi2	@ tmp163, status
 795 017a 002B     		cmp	r3, #0	@ tmp163,
 796 017c 03D0     		beq	.L16		@,
 797              	@ ../../Source/appInit.c:341: 		DEBUG_WRITE("\nTouch panel initialization failed.");
 340:../../Source/appInit.c **** 	{
 341:../../Source/appInit.c **** 		DEBUG_WRITE("\nTouch panel initialization failed.");
 798              		.loc 1 341 3
 799 017e 6148     		ldr	r0, .L32+116	@,
 800 0180 FFF7FEFF 		bl	pfUart0WriteString		@
 801              	.L17:
 802              	@ ../../Source/appInit.c:342: 		while(1);
 342:../../Source/appInit.c **** 		while(1);
 803              		.loc 1 342 8 discriminator 8
 804 0184 FEE7     		b	.L17		@
 805              	.L16:
 806              	@ ../../Source/appInit.c:346: 		DEBUG_WRITE("\nTouch panel initialized.");
 343:../../Source/appInit.c **** 	}
ARM GAS  C:\Users\Aayush\AppData\Local\Temp\ccPGXf2s.s 			page 23


 344:../../Source/appInit.c **** 	else
 345:../../Source/appInit.c **** 	{
 346:../../Source/appInit.c **** 		DEBUG_WRITE("\nTouch panel initialized.");
 807              		.loc 1 346 3
 808 0186 6048     		ldr	r0, .L32+120	@,
 809 0188 FFF7FEFF 		bl	pfUart0WriteString		@
 810              	@ ../../Source/appInit.c:350: 	status = mma7660Open(&accelConfig);
 347:../../Source/appInit.c **** 	}
 348:../../Source/appInit.c **** 
 349:../../Source/appInit.c **** 	//Accelerometer initialization
 350:../../Source/appInit.c **** 	status = mma7660Open(&accelConfig);
 811              		.loc 1 350 11
 812 018c 5F48     		ldr	r0, .L32+124	@,
 813 018e FFF7FEFF 		bl	mma7660Open		@
 814 0192 0346     		mov	r3, r0	@ tmp164,
 815 0194 8DF80F30 		strb	r3, [sp, #15]	@ tmp165, status
 816              	@ ../../Source/appInit.c:351: 	if(status != enStatusSuccess)
 351:../../Source/appInit.c **** 	if(status != enStatusSuccess)
 817              		.loc 1 351 4
 818 0198 9DF80F30 		ldrb	r3, [sp, #15]	@ zero_extendqisi2	@ tmp166, status
 819 019c 002B     		cmp	r3, #0	@ tmp166,
 820 019e 03D0     		beq	.L18		@,
 821              	@ ../../Source/appInit.c:353: 		DEBUG_WRITE("\nAccelerometer initialization failed.");
 352:../../Source/appInit.c **** 	{
 353:../../Source/appInit.c **** 		DEBUG_WRITE("\nAccelerometer initialization failed.");
 822              		.loc 1 353 3
 823 01a0 5B48     		ldr	r0, .L32+128	@,
 824 01a2 FFF7FEFF 		bl	pfUart0WriteString		@
 825              	.L19:
 826              	@ ../../Source/appInit.c:354: 		while(1);
 354:../../Source/appInit.c **** 		while(1);
 827              		.loc 1 354 8 discriminator 9
 828 01a6 FEE7     		b	.L19		@
 829              	.L18:
 830              	@ ../../Source/appInit.c:358: 		DEBUG_WRITE("\nAcceleromter initialized.");
 355:../../Source/appInit.c **** 	}
 356:../../Source/appInit.c **** 	else
 357:../../Source/appInit.c **** 	{
 358:../../Source/appInit.c **** 		DEBUG_WRITE("\nAcceleromter initialized.");
 831              		.loc 1 358 3
 832 01a8 5A48     		ldr	r0, .L32+132	@,
 833 01aa FFF7FEFF 		bl	pfUart0WriteString		@
 834              	@ ../../Source/appInit.c:366:     status = pfEint1Open(&extIntTouchConfig);
 359:../../Source/appInit.c **** 	}
 360:../../Source/appInit.c **** 
 361:../../Source/appInit.c **** 	//External Interrupt initialization
 362:../../Source/appInit.c **** 	//External interrupt is initialized but the interrupt is disabled right now.
 363:../../Source/appInit.c **** 	//Use pfEint1Enable() function to enable the interrupt. After enabling this interrupt whenever
 364:../../Source/appInit.c **** 	//a touch is detected on the touch panel, extIntTouchCallback() function gets called.
 365:../../Source/appInit.c **** 	//Call touchAvailable() function in the callback to get touch coordinates.
 366:../../Source/appInit.c ****     status = pfEint1Open(&extIntTouchConfig);
 835              		.loc 1 366 14
 836 01ae 5A48     		ldr	r0, .L32+136	@,
 837 01b0 FFF7FEFF 		bl	pfEint1Open		@
 838 01b4 0346     		mov	r3, r0	@ tmp167,
 839 01b6 8DF80F30 		strb	r3, [sp, #15]	@ tmp168, status
 840              	@ ../../Source/appInit.c:367: 	if(status != enStatusSuccess)
ARM GAS  C:\Users\Aayush\AppData\Local\Temp\ccPGXf2s.s 			page 24


 367:../../Source/appInit.c **** 	if(status != enStatusSuccess)
 841              		.loc 1 367 4
 842 01ba 9DF80F30 		ldrb	r3, [sp, #15]	@ zero_extendqisi2	@ tmp169, status
 843 01be 002B     		cmp	r3, #0	@ tmp169,
 844 01c0 03D0     		beq	.L20		@,
 845              	@ ../../Source/appInit.c:369: 		DEBUG_WRITE("\nTouch External interrupt initialization failed.");
 368:../../Source/appInit.c **** 	{
 369:../../Source/appInit.c **** 		DEBUG_WRITE("\nTouch External interrupt initialization failed.");
 846              		.loc 1 369 3
 847 01c2 5648     		ldr	r0, .L32+140	@,
 848 01c4 FFF7FEFF 		bl	pfUart0WriteString		@
 849              	.L21:
 850              	@ ../../Source/appInit.c:370: 		while(1);
 370:../../Source/appInit.c **** 		while(1);
 851              		.loc 1 370 8 discriminator 10
 852 01c8 FEE7     		b	.L21		@
 853              	.L20:
 854              	@ ../../Source/appInit.c:374: 		DEBUG_WRITE("\nTouch External interrupt initialized.");
 371:../../Source/appInit.c **** 	}
 372:../../Source/appInit.c **** 	else
 373:../../Source/appInit.c **** 	{
 374:../../Source/appInit.c **** 		DEBUG_WRITE("\nTouch External interrupt initialized.");
 855              		.loc 1 374 3
 856 01ca 5548     		ldr	r0, .L32+144	@,
 857 01cc FFF7FEFF 		bl	pfUart0WriteString		@
 858 01d0 1323     		movs	r3, #19	@ tmp170,
 859 01d2 8DF80E30 		strb	r3, [sp, #14]	@ tmp171, IRQn
 860 01d6 0123     		movs	r3, #1	@ tmp172,
 861 01d8 0293     		str	r3, [sp, #8]	@ tmp172, priority
 862              	.LBB4:
 863              	.LBB5:
 864              	@ ../../Include/PrimeFramework/prime_cm3.h:617:   if(IRQn < 0) {
 865              		.file 2 "../../Include/PrimeFramework/prime_cm3.h"
   1:../../Include/PrimeFramework/prime_cm3.h **** /**
   2:../../Include/PrimeFramework/prime_cm3.h ****  * \file     	prime_cm3.h															
   3:../../Include/PrimeFramework/prime_cm3.h ****  * \brief    	Cortex-M3 Core Peripheral Access Layer Header File
   4:../../Include/PrimeFramework/prime_cm3.h ****  * \copyright	Copyright (c) 2014 <br> PhiRobotics Research Pvt Ltd
   5:../../Include/PrimeFramework/prime_cm3.h ****  * 
   6:../../Include/PrimeFramework/prime_cm3.h ****  * \par
   7:../../Include/PrimeFramework/prime_cm3.h ****  * For licensing information, see the file 'LICENSE' in the root folder of
   8:../../Include/PrimeFramework/prime_cm3.h ****  * this software module.
   9:../../Include/PrimeFramework/prime_cm3.h ****  * 
  10:../../Include/PrimeFramework/prime_cm3.h ****  * Review status: NO
  11:../../Include/PrimeFramework/prime_cm3.h ****  */
  12:../../Include/PrimeFramework/prime_cm3.h **** 
  13:../../Include/PrimeFramework/prime_cm3.h **** #ifdef __cplusplus
  14:../../Include/PrimeFramework/prime_cm3.h ****  extern "C" {
  15:../../Include/PrimeFramework/prime_cm3.h **** #endif
  16:../../Include/PrimeFramework/prime_cm3.h **** 
  17:../../Include/PrimeFramework/prime_cm3.h **** #ifndef PF_CORE_CORTEX_M3_H_GENERIC
  18:../../Include/PrimeFramework/prime_cm3.h **** #define PF_CORE_CORTEX_M3_H_GENERIC
  19:../../Include/PrimeFramework/prime_cm3.h **** 
  20:../../Include/PrimeFramework/prime_cm3.h **** #define PF_CORTEX_M3                (0x03)   /*!< Cortex core                    */
  21:../../Include/PrimeFramework/prime_cm3.h **** 
  22:../../Include/PrimeFramework/prime_cm3.h **** #include "prime_compiler.h"
  23:../../Include/PrimeFramework/prime_cm3.h **** #include "prime_types.h"                /*!< standard types definitions                      */
  24:../../Include/PrimeFramework/prime_cm3.h **** #include "prime_cmInstr.h"              /*!< Core Instruction Access                         */
ARM GAS  C:\Users\Aayush\AppData\Local\Temp\ccPGXf2s.s 			page 25


  25:../../Include/PrimeFramework/prime_cm3.h **** #include "prime_cmFunc.h"               /*!< Core Function Access                            */
  26:../../Include/PrimeFramework/prime_cm3.h **** 
  27:../../Include/PrimeFramework/prime_cm3.h **** #endif /* PF_CORE_CORTEX_M3_H_GENERIC */
  28:../../Include/PrimeFramework/prime_cm3.h **** 
  29:../../Include/PrimeFramework/prime_cm3.h **** 
  30:../../Include/PrimeFramework/prime_cm3.h **** #ifndef PF_CORTEX_M3_GENERIC
  31:../../Include/PrimeFramework/prime_cm3.h **** 
  32:../../Include/PrimeFramework/prime_cm3.h **** #ifndef PF_CORE_CORTEX_M3_H_DEP
  33:../../Include/PrimeFramework/prime_cm3.h **** #define PF_CORE_CORTEX_M3_H_DEP
  34:../../Include/PrimeFramework/prime_cm3.h **** 
  35:../../Include/PrimeFramework/prime_cm3.h **** /* SCB CPUID Register Definitions */
  36:../../Include/PrimeFramework/prime_cm3.h **** #define SCB_CPUID_IMPLEMENTER_Pos          24                                             /*!< SCB 
  37:../../Include/PrimeFramework/prime_cm3.h **** #define SCB_CPUID_IMPLEMENTER_Msk          (0xFFUL << SCB_CPUID_IMPLEMENTER_Pos)          /*!< SCB 
  38:../../Include/PrimeFramework/prime_cm3.h **** 
  39:../../Include/PrimeFramework/prime_cm3.h **** #define SCB_CPUID_VARIANT_Pos              20                                             /*!< SCB 
  40:../../Include/PrimeFramework/prime_cm3.h **** #define SCB_CPUID_VARIANT_Msk              (0xFUL << SCB_CPUID_VARIANT_Pos)               /*!< SCB 
  41:../../Include/PrimeFramework/prime_cm3.h **** 
  42:../../Include/PrimeFramework/prime_cm3.h **** #define SCB_CPUID_PARTNO_Pos                4                                             /*!< SCB 
  43:../../Include/PrimeFramework/prime_cm3.h **** #define SCB_CPUID_PARTNO_Msk               (0xFFFUL << SCB_CPUID_PARTNO_Pos)              /*!< SCB 
  44:../../Include/PrimeFramework/prime_cm3.h **** 
  45:../../Include/PrimeFramework/prime_cm3.h **** #define SCB_CPUID_REVISION_Pos              0                                             /*!< SCB 
  46:../../Include/PrimeFramework/prime_cm3.h **** #define SCB_CPUID_REVISION_Msk             (0xFUL << SCB_CPUID_REVISION_Pos)              /*!< SCB 
  47:../../Include/PrimeFramework/prime_cm3.h **** 
  48:../../Include/PrimeFramework/prime_cm3.h **** /* SCB Interrupt Control State Register Definitions */
  49:../../Include/PrimeFramework/prime_cm3.h **** #define SCB_ICSR_NMIPENDSET_Pos            31                                             /*!< SCB 
  50:../../Include/PrimeFramework/prime_cm3.h **** #define SCB_ICSR_NMIPENDSET_Msk            (1UL << SCB_ICSR_NMIPENDSET_Pos)               /*!< SCB 
  51:../../Include/PrimeFramework/prime_cm3.h **** 
  52:../../Include/PrimeFramework/prime_cm3.h **** #define SCB_ICSR_PENDSVSET_Pos             28                                             /*!< SCB 
  53:../../Include/PrimeFramework/prime_cm3.h **** #define SCB_ICSR_PENDSVSET_Msk             (1UL << SCB_ICSR_PENDSVSET_Pos)                /*!< SCB 
  54:../../Include/PrimeFramework/prime_cm3.h **** 
  55:../../Include/PrimeFramework/prime_cm3.h **** #define SCB_ICSR_PENDSVCLR_Pos             27                                             /*!< SCB 
  56:../../Include/PrimeFramework/prime_cm3.h **** #define SCB_ICSR_PENDSVCLR_Msk             (1UL << SCB_ICSR_PENDSVCLR_Pos)                /*!< SCB 
  57:../../Include/PrimeFramework/prime_cm3.h **** 
  58:../../Include/PrimeFramework/prime_cm3.h **** #define SCB_ICSR_PENDSTSET_Pos             26                                             /*!< SCB 
  59:../../Include/PrimeFramework/prime_cm3.h **** #define SCB_ICSR_PENDSTSET_Msk             (1UL << SCB_ICSR_PENDSTSET_Pos)                /*!< SCB 
  60:../../Include/PrimeFramework/prime_cm3.h **** 
  61:../../Include/PrimeFramework/prime_cm3.h **** #define SCB_ICSR_PENDSTCLR_Pos             25                                             /*!< SCB 
  62:../../Include/PrimeFramework/prime_cm3.h **** #define SCB_ICSR_PENDSTCLR_Msk             (1UL << SCB_ICSR_PENDSTCLR_Pos)                /*!< SCB 
  63:../../Include/PrimeFramework/prime_cm3.h **** 
  64:../../Include/PrimeFramework/prime_cm3.h **** #define SCB_ICSR_ISRPREEMPT_Pos            23                                             /*!< SCB 
  65:../../Include/PrimeFramework/prime_cm3.h **** #define SCB_ICSR_ISRPREEMPT_Msk            (1UL << SCB_ICSR_ISRPREEMPT_Pos)               /*!< SCB 
  66:../../Include/PrimeFramework/prime_cm3.h **** 
  67:../../Include/PrimeFramework/prime_cm3.h **** #define SCB_ICSR_ISRPENDING_Pos            22                                             /*!< SCB 
  68:../../Include/PrimeFramework/prime_cm3.h **** #define SCB_ICSR_ISRPENDING_Msk            (1UL << SCB_ICSR_ISRPENDING_Pos)               /*!< SCB 
  69:../../Include/PrimeFramework/prime_cm3.h **** 
  70:../../Include/PrimeFramework/prime_cm3.h **** #define SCB_ICSR_VECTPENDING_Pos           12                                             /*!< SCB 
  71:../../Include/PrimeFramework/prime_cm3.h **** #define SCB_ICSR_VECTPENDING_Msk           (0x1FFUL << SCB_ICSR_VECTPENDING_Pos)          /*!< SCB 
  72:../../Include/PrimeFramework/prime_cm3.h **** 
  73:../../Include/PrimeFramework/prime_cm3.h **** #define SCB_ICSR_RETTOBASE_Pos             11                                             /*!< SCB 
  74:../../Include/PrimeFramework/prime_cm3.h **** #define SCB_ICSR_RETTOBASE_Msk             (1UL << SCB_ICSR_RETTOBASE_Pos)                /*!< SCB 
  75:../../Include/PrimeFramework/prime_cm3.h **** 
  76:../../Include/PrimeFramework/prime_cm3.h **** #define SCB_ICSR_VECTACTIVE_Pos             0                                             /*!< SCB 
  77:../../Include/PrimeFramework/prime_cm3.h **** #define SCB_ICSR_VECTACTIVE_Msk            (0x1FFUL << SCB_ICSR_VECTACTIVE_Pos)           /*!< SCB 
  78:../../Include/PrimeFramework/prime_cm3.h **** 
  79:../../Include/PrimeFramework/prime_cm3.h **** /* SCB Interrupt Control State Register Definitions */
  80:../../Include/PrimeFramework/prime_cm3.h **** #define SCB_VTOR_TBLBASE_Pos               29                                             /*!< SCB 
  81:../../Include/PrimeFramework/prime_cm3.h **** #define SCB_VTOR_TBLBASE_Msk               (1UL << SCB_VTOR_TBLBASE_Pos)                  /*!< SCB 
ARM GAS  C:\Users\Aayush\AppData\Local\Temp\ccPGXf2s.s 			page 26


  82:../../Include/PrimeFramework/prime_cm3.h **** 
  83:../../Include/PrimeFramework/prime_cm3.h **** #define SCB_VTOR_TBLOFF_Pos                 7                                             /*!< SCB 
  84:../../Include/PrimeFramework/prime_cm3.h **** #define SCB_VTOR_TBLOFF_Msk                (0x3FFFFFUL << SCB_VTOR_TBLOFF_Pos)            /*!< SCB 
  85:../../Include/PrimeFramework/prime_cm3.h **** 
  86:../../Include/PrimeFramework/prime_cm3.h **** /* SCB Application Interrupt and Reset Control Register Definitions */
  87:../../Include/PrimeFramework/prime_cm3.h **** #define SCB_AIRCR_VECTKEY_Pos              16                                             /*!< SCB 
  88:../../Include/PrimeFramework/prime_cm3.h **** #define SCB_AIRCR_VECTKEY_Msk              (0xFFFFUL << SCB_AIRCR_VECTKEY_Pos)            /*!< SCB 
  89:../../Include/PrimeFramework/prime_cm3.h **** 
  90:../../Include/PrimeFramework/prime_cm3.h **** #define SCB_AIRCR_VECTKEYSTAT_Pos          16                                             /*!< SCB 
  91:../../Include/PrimeFramework/prime_cm3.h **** #define SCB_AIRCR_VECTKEYSTAT_Msk          (0xFFFFUL << SCB_AIRCR_VECTKEYSTAT_Pos)        /*!< SCB 
  92:../../Include/PrimeFramework/prime_cm3.h **** 
  93:../../Include/PrimeFramework/prime_cm3.h **** #define SCB_AIRCR_ENDIANESS_Pos            15                                             /*!< SCB 
  94:../../Include/PrimeFramework/prime_cm3.h **** #define SCB_AIRCR_ENDIANESS_Msk            (1UL << SCB_AIRCR_ENDIANESS_Pos)               /*!< SCB 
  95:../../Include/PrimeFramework/prime_cm3.h **** 
  96:../../Include/PrimeFramework/prime_cm3.h **** #define SCB_AIRCR_PRIGROUP_Pos              8                                             /*!< SCB 
  97:../../Include/PrimeFramework/prime_cm3.h **** #define SCB_AIRCR_PRIGROUP_Msk             (7UL << SCB_AIRCR_PRIGROUP_Pos)                /*!< SCB 
  98:../../Include/PrimeFramework/prime_cm3.h **** 
  99:../../Include/PrimeFramework/prime_cm3.h **** #define SCB_AIRCR_SYSRESETREQ_Pos           2                                             /*!< SCB 
 100:../../Include/PrimeFramework/prime_cm3.h **** #define SCB_AIRCR_SYSRESETREQ_Msk          (1UL << SCB_AIRCR_SYSRESETREQ_Pos)             /*!< SCB 
 101:../../Include/PrimeFramework/prime_cm3.h **** 
 102:../../Include/PrimeFramework/prime_cm3.h **** #define SCB_AIRCR_VECTCLRACTIVE_Pos         1                                             /*!< SCB 
 103:../../Include/PrimeFramework/prime_cm3.h **** #define SCB_AIRCR_VECTCLRACTIVE_Msk        (1UL << SCB_AIRCR_VECTCLRACTIVE_Pos)           /*!< SCB 
 104:../../Include/PrimeFramework/prime_cm3.h **** 
 105:../../Include/PrimeFramework/prime_cm3.h **** #define SCB_AIRCR_VECTRESET_Pos             0                                             /*!< SCB 
 106:../../Include/PrimeFramework/prime_cm3.h **** #define SCB_AIRCR_VECTRESET_Msk            (1UL << SCB_AIRCR_VECTRESET_Pos)               /*!< SCB 
 107:../../Include/PrimeFramework/prime_cm3.h **** 
 108:../../Include/PrimeFramework/prime_cm3.h **** /* SCB System Control Register Definitions */
 109:../../Include/PrimeFramework/prime_cm3.h **** #define SCB_SCR_SEVONPEND_Pos               4                                             /*!< SCB 
 110:../../Include/PrimeFramework/prime_cm3.h **** #define SCB_SCR_SEVONPEND_Msk              (1UL << SCB_SCR_SEVONPEND_Pos)                 /*!< SCB 
 111:../../Include/PrimeFramework/prime_cm3.h **** 
 112:../../Include/PrimeFramework/prime_cm3.h **** #define SCB_SCR_SLEEPDEEP_Pos               2                                             /*!< SCB 
 113:../../Include/PrimeFramework/prime_cm3.h **** #define SCB_SCR_SLEEPDEEP_Msk              (1UL << SCB_SCR_SLEEPDEEP_Pos)                 /*!< SCB 
 114:../../Include/PrimeFramework/prime_cm3.h **** 
 115:../../Include/PrimeFramework/prime_cm3.h **** #define SCB_SCR_SLEEPONEXIT_Pos             1                                             /*!< SCB 
 116:../../Include/PrimeFramework/prime_cm3.h **** #define SCB_SCR_SLEEPONEXIT_Msk            (1UL << SCB_SCR_SLEEPONEXIT_Pos)               /*!< SCB 
 117:../../Include/PrimeFramework/prime_cm3.h **** 
 118:../../Include/PrimeFramework/prime_cm3.h **** /* SCB Configuration Control Register Definitions */
 119:../../Include/PrimeFramework/prime_cm3.h **** #define SCB_CCR_STKALIGN_Pos                9                                             /*!< SCB 
 120:../../Include/PrimeFramework/prime_cm3.h **** #define SCB_CCR_STKALIGN_Msk               (1UL << SCB_CCR_STKALIGN_Pos)                  /*!< SCB 
 121:../../Include/PrimeFramework/prime_cm3.h **** 
 122:../../Include/PrimeFramework/prime_cm3.h **** #define SCB_CCR_BFHFNMIGN_Pos               8                                             /*!< SCB 
 123:../../Include/PrimeFramework/prime_cm3.h **** #define SCB_CCR_BFHFNMIGN_Msk              (1UL << SCB_CCR_BFHFNMIGN_Pos)                 /*!< SCB 
 124:../../Include/PrimeFramework/prime_cm3.h **** 
 125:../../Include/PrimeFramework/prime_cm3.h **** #define SCB_CCR_DIV_0_TRP_Pos               4                                             /*!< SCB 
 126:../../Include/PrimeFramework/prime_cm3.h **** #define SCB_CCR_DIV_0_TRP_Msk              (1UL << SCB_CCR_DIV_0_TRP_Pos)                 /*!< SCB 
 127:../../Include/PrimeFramework/prime_cm3.h **** 
 128:../../Include/PrimeFramework/prime_cm3.h **** #define SCB_CCR_UNALIGN_TRP_Pos             3                                             /*!< SCB 
 129:../../Include/PrimeFramework/prime_cm3.h **** #define SCB_CCR_UNALIGN_TRP_Msk            (1UL << SCB_CCR_UNALIGN_TRP_Pos)               /*!< SCB 
 130:../../Include/PrimeFramework/prime_cm3.h **** 
 131:../../Include/PrimeFramework/prime_cm3.h **** #define SCB_CCR_USERSETMPEND_Pos            1                                             /*!< SCB 
 132:../../Include/PrimeFramework/prime_cm3.h **** #define SCB_CCR_USERSETMPEND_Msk           (1UL << SCB_CCR_USERSETMPEND_Pos)              /*!< SCB 
 133:../../Include/PrimeFramework/prime_cm3.h **** 
 134:../../Include/PrimeFramework/prime_cm3.h **** #define SCB_CCR_NONBASETHRDENA_Pos          0                                             /*!< SCB 
 135:../../Include/PrimeFramework/prime_cm3.h **** #define SCB_CCR_NONBASETHRDENA_Msk         (1UL << SCB_CCR_NONBASETHRDENA_Pos)            /*!< SCB 
 136:../../Include/PrimeFramework/prime_cm3.h **** 
 137:../../Include/PrimeFramework/prime_cm3.h **** /* SCB System Handler Control and State Register Definitions */
 138:../../Include/PrimeFramework/prime_cm3.h **** #define SCB_SHCSR_USGFAULTENA_Pos          18                                             /*!< SCB 
ARM GAS  C:\Users\Aayush\AppData\Local\Temp\ccPGXf2s.s 			page 27


 139:../../Include/PrimeFramework/prime_cm3.h **** #define SCB_SHCSR_USGFAULTENA_Msk          (1UL << SCB_SHCSR_USGFAULTENA_Pos)             /*!< SCB 
 140:../../Include/PrimeFramework/prime_cm3.h **** 
 141:../../Include/PrimeFramework/prime_cm3.h **** #define SCB_SHCSR_BUSFAULTENA_Pos          17                                             /*!< SCB 
 142:../../Include/PrimeFramework/prime_cm3.h **** #define SCB_SHCSR_BUSFAULTENA_Msk          (1UL << SCB_SHCSR_BUSFAULTENA_Pos)             /*!< SCB 
 143:../../Include/PrimeFramework/prime_cm3.h **** 
 144:../../Include/PrimeFramework/prime_cm3.h **** #define SCB_SHCSR_MEMFAULTENA_Pos          16                                             /*!< SCB 
 145:../../Include/PrimeFramework/prime_cm3.h **** #define SCB_SHCSR_MEMFAULTENA_Msk          (1UL << SCB_SHCSR_MEMFAULTENA_Pos)             /*!< SCB 
 146:../../Include/PrimeFramework/prime_cm3.h **** 
 147:../../Include/PrimeFramework/prime_cm3.h **** #define SCB_SHCSR_SVCALLPENDED_Pos         15                                             /*!< SCB 
 148:../../Include/PrimeFramework/prime_cm3.h **** #define SCB_SHCSR_SVCALLPENDED_Msk         (1UL << SCB_SHCSR_SVCALLPENDED_Pos)            /*!< SCB 
 149:../../Include/PrimeFramework/prime_cm3.h **** 
 150:../../Include/PrimeFramework/prime_cm3.h **** #define SCB_SHCSR_BUSFAULTPENDED_Pos       14                                             /*!< SCB 
 151:../../Include/PrimeFramework/prime_cm3.h **** #define SCB_SHCSR_BUSFAULTPENDED_Msk       (1UL << SCB_SHCSR_BUSFAULTPENDED_Pos)          /*!< SCB 
 152:../../Include/PrimeFramework/prime_cm3.h **** 
 153:../../Include/PrimeFramework/prime_cm3.h **** #define SCB_SHCSR_MEMFAULTPENDED_Pos       13                                             /*!< SCB 
 154:../../Include/PrimeFramework/prime_cm3.h **** #define SCB_SHCSR_MEMFAULTPENDED_Msk       (1UL << SCB_SHCSR_MEMFAULTPENDED_Pos)          /*!< SCB 
 155:../../Include/PrimeFramework/prime_cm3.h **** 
 156:../../Include/PrimeFramework/prime_cm3.h **** #define SCB_SHCSR_USGFAULTPENDED_Pos       12                                             /*!< SCB 
 157:../../Include/PrimeFramework/prime_cm3.h **** #define SCB_SHCSR_USGFAULTPENDED_Msk       (1UL << SCB_SHCSR_USGFAULTPENDED_Pos)          /*!< SCB 
 158:../../Include/PrimeFramework/prime_cm3.h **** 
 159:../../Include/PrimeFramework/prime_cm3.h **** #define SCB_SHCSR_SYSTICKACT_Pos           11                                             /*!< SCB 
 160:../../Include/PrimeFramework/prime_cm3.h **** #define SCB_SHCSR_SYSTICKACT_Msk           (1UL << SCB_SHCSR_SYSTICKACT_Pos)              /*!< SCB 
 161:../../Include/PrimeFramework/prime_cm3.h **** 
 162:../../Include/PrimeFramework/prime_cm3.h **** #define SCB_SHCSR_PENDSVACT_Pos            10                                             /*!< SCB 
 163:../../Include/PrimeFramework/prime_cm3.h **** #define SCB_SHCSR_PENDSVACT_Msk            (1UL << SCB_SHCSR_PENDSVACT_Pos)               /*!< SCB 
 164:../../Include/PrimeFramework/prime_cm3.h **** 
 165:../../Include/PrimeFramework/prime_cm3.h **** #define SCB_SHCSR_MONITORACT_Pos            8                                             /*!< SCB 
 166:../../Include/PrimeFramework/prime_cm3.h **** #define SCB_SHCSR_MONITORACT_Msk           (1UL << SCB_SHCSR_MONITORACT_Pos)              /*!< SCB 
 167:../../Include/PrimeFramework/prime_cm3.h **** 
 168:../../Include/PrimeFramework/prime_cm3.h **** #define SCB_SHCSR_SVCALLACT_Pos             7                                             /*!< SCB 
 169:../../Include/PrimeFramework/prime_cm3.h **** #define SCB_SHCSR_SVCALLACT_Msk            (1UL << SCB_SHCSR_SVCALLACT_Pos)               /*!< SCB 
 170:../../Include/PrimeFramework/prime_cm3.h **** 
 171:../../Include/PrimeFramework/prime_cm3.h **** #define SCB_SHCSR_USGFAULTACT_Pos           3                                             /*!< SCB 
 172:../../Include/PrimeFramework/prime_cm3.h **** #define SCB_SHCSR_USGFAULTACT_Msk          (1UL << SCB_SHCSR_USGFAULTACT_Pos)             /*!< SCB 
 173:../../Include/PrimeFramework/prime_cm3.h **** 
 174:../../Include/PrimeFramework/prime_cm3.h **** #define SCB_SHCSR_BUSFAULTACT_Pos           1                                             /*!< SCB 
 175:../../Include/PrimeFramework/prime_cm3.h **** #define SCB_SHCSR_BUSFAULTACT_Msk          (1UL << SCB_SHCSR_BUSFAULTACT_Pos)             /*!< SCB 
 176:../../Include/PrimeFramework/prime_cm3.h **** 
 177:../../Include/PrimeFramework/prime_cm3.h **** #define SCB_SHCSR_MEMFAULTACT_Pos           0                                             /*!< SCB 
 178:../../Include/PrimeFramework/prime_cm3.h **** #define SCB_SHCSR_MEMFAULTACT_Msk          (1UL << SCB_SHCSR_MEMFAULTACT_Pos)             /*!< SCB 
 179:../../Include/PrimeFramework/prime_cm3.h **** 
 180:../../Include/PrimeFramework/prime_cm3.h **** /* SCB Configurable Fault Status Registers Definitions */
 181:../../Include/PrimeFramework/prime_cm3.h **** #define SCB_CFSR_USGFAULTSR_Pos            16                                             /*!< SCB 
 182:../../Include/PrimeFramework/prime_cm3.h **** #define SCB_CFSR_USGFAULTSR_Msk            (0xFFFFUL << SCB_CFSR_USGFAULTSR_Pos)          /*!< SCB 
 183:../../Include/PrimeFramework/prime_cm3.h **** 
 184:../../Include/PrimeFramework/prime_cm3.h **** #define SCB_CFSR_BUSFAULTSR_Pos             8                                             /*!< SCB 
 185:../../Include/PrimeFramework/prime_cm3.h **** #define SCB_CFSR_BUSFAULTSR_Msk            (0xFFUL << SCB_CFSR_BUSFAULTSR_Pos)            /*!< SCB 
 186:../../Include/PrimeFramework/prime_cm3.h **** 
 187:../../Include/PrimeFramework/prime_cm3.h **** #define SCB_CFSR_MEMFAULTSR_Pos             0                                             /*!< SCB 
 188:../../Include/PrimeFramework/prime_cm3.h **** #define SCB_CFSR_MEMFAULTSR_Msk            (0xFFUL << SCB_CFSR_MEMFAULTSR_Pos)            /*!< SCB 
 189:../../Include/PrimeFramework/prime_cm3.h **** 
 190:../../Include/PrimeFramework/prime_cm3.h **** /* SCB Hard Fault Status Registers Definitions */
 191:../../Include/PrimeFramework/prime_cm3.h **** #define SCB_HFSR_DEBUGEVT_Pos              31                                             /*!< SCB 
 192:../../Include/PrimeFramework/prime_cm3.h **** #define SCB_HFSR_DEBUGEVT_Msk              (1UL << SCB_HFSR_DEBUGEVT_Pos)                 /*!< SCB 
 193:../../Include/PrimeFramework/prime_cm3.h **** 
 194:../../Include/PrimeFramework/prime_cm3.h **** #define SCB_HFSR_FORCED_Pos                30                                             /*!< SCB 
 195:../../Include/PrimeFramework/prime_cm3.h **** #define SCB_HFSR_FORCED_Msk                (1UL << SCB_HFSR_FORCED_Pos)                   /*!< SCB 
ARM GAS  C:\Users\Aayush\AppData\Local\Temp\ccPGXf2s.s 			page 28


 196:../../Include/PrimeFramework/prime_cm3.h **** 
 197:../../Include/PrimeFramework/prime_cm3.h **** #define SCB_HFSR_VECTTBL_Pos                1                                             /*!< SCB 
 198:../../Include/PrimeFramework/prime_cm3.h **** #define SCB_HFSR_VECTTBL_Msk               (1UL << SCB_HFSR_VECTTBL_Pos)                  /*!< SCB 
 199:../../Include/PrimeFramework/prime_cm3.h **** 
 200:../../Include/PrimeFramework/prime_cm3.h **** /* SCB Debug Fault Status Register Definitions */
 201:../../Include/PrimeFramework/prime_cm3.h **** #define SCB_DFSR_EXTERNAL_Pos               4                                             /*!< SCB 
 202:../../Include/PrimeFramework/prime_cm3.h **** #define SCB_DFSR_EXTERNAL_Msk              (1UL << SCB_DFSR_EXTERNAL_Pos)                 /*!< SCB 
 203:../../Include/PrimeFramework/prime_cm3.h **** 
 204:../../Include/PrimeFramework/prime_cm3.h **** #define SCB_DFSR_VCATCH_Pos                 3                                             /*!< SCB 
 205:../../Include/PrimeFramework/prime_cm3.h **** #define SCB_DFSR_VCATCH_Msk                (1UL << SCB_DFSR_VCATCH_Pos)                   /*!< SCB 
 206:../../Include/PrimeFramework/prime_cm3.h **** 
 207:../../Include/PrimeFramework/prime_cm3.h **** #define SCB_DFSR_DWTTRAP_Pos                2                                             /*!< SCB 
 208:../../Include/PrimeFramework/prime_cm3.h **** #define SCB_DFSR_DWTTRAP_Msk               (1UL << SCB_DFSR_DWTTRAP_Pos)                  /*!< SCB 
 209:../../Include/PrimeFramework/prime_cm3.h **** 
 210:../../Include/PrimeFramework/prime_cm3.h **** #define SCB_DFSR_BKPT_Pos                   1                                             /*!< SCB 
 211:../../Include/PrimeFramework/prime_cm3.h **** #define SCB_DFSR_BKPT_Msk                  (1UL << SCB_DFSR_BKPT_Pos)                     /*!< SCB 
 212:../../Include/PrimeFramework/prime_cm3.h **** 
 213:../../Include/PrimeFramework/prime_cm3.h **** #define SCB_DFSR_HALTED_Pos                 0                                             /*!< SCB 
 214:../../Include/PrimeFramework/prime_cm3.h **** #define SCB_DFSR_HALTED_Msk                (1UL << SCB_DFSR_HALTED_Pos)                   /*!< SCB 
 215:../../Include/PrimeFramework/prime_cm3.h **** 
 216:../../Include/PrimeFramework/prime_cm3.h **** /* SysTick Control / Status Register Definitions Macro */
 217:../../Include/PrimeFramework/prime_cm3.h **** #define SysTick_CTRL_COUNTFLAG_Pos         16                                             /*!< SysT
 218:../../Include/PrimeFramework/prime_cm3.h **** #define SysTick_CTRL_COUNTFLAG_Msk         (1UL << SysTick_CTRL_COUNTFLAG_Pos)            /*!< SysT
 219:../../Include/PrimeFramework/prime_cm3.h **** 
 220:../../Include/PrimeFramework/prime_cm3.h **** #define SysTick_CTRL_CLKSOURCE_Pos          2                                             /*!< SysT
 221:../../Include/PrimeFramework/prime_cm3.h **** #define SysTick_CTRL_CLKSOURCE_Msk         (1UL << SysTick_CTRL_CLKSOURCE_Pos)            /*!< SysT
 222:../../Include/PrimeFramework/prime_cm3.h **** 
 223:../../Include/PrimeFramework/prime_cm3.h **** #define SysTick_CTRL_TICKINT_Pos            1                                             /*!< SysT
 224:../../Include/PrimeFramework/prime_cm3.h **** #define SysTick_CTRL_TICKINT_Msk           (1UL << SysTick_CTRL_TICKINT_Pos)              /*!< SysT
 225:../../Include/PrimeFramework/prime_cm3.h **** 
 226:../../Include/PrimeFramework/prime_cm3.h **** #define SysTick_CTRL_ENABLE_Pos             0                                             /*!< SysT
 227:../../Include/PrimeFramework/prime_cm3.h **** #define SysTick_CTRL_ENABLE_Msk            (1UL << SysTick_CTRL_ENABLE_Pos)               /*!< SysT
 228:../../Include/PrimeFramework/prime_cm3.h **** 
 229:../../Include/PrimeFramework/prime_cm3.h **** /* SysTick Reload Register Definitions */
 230:../../Include/PrimeFramework/prime_cm3.h **** #define SysTick_LOAD_RELOAD_Pos             0                                             /*!< SysT
 231:../../Include/PrimeFramework/prime_cm3.h **** #define SysTick_LOAD_RELOAD_Msk            (0xFFFFFFUL << SysTick_LOAD_RELOAD_Pos)        /*!< SysT
 232:../../Include/PrimeFramework/prime_cm3.h **** 
 233:../../Include/PrimeFramework/prime_cm3.h **** /* SysTick Current Register Definitions */
 234:../../Include/PrimeFramework/prime_cm3.h **** #define SysTick_VAL_CURRENT_Pos             0                                             /*!< SysT
 235:../../Include/PrimeFramework/prime_cm3.h **** #define SysTick_VAL_CURRENT_Msk            (0xFFFFFFUL << SysTick_VAL_CURRENT_Pos)        /*!< SysT
 236:../../Include/PrimeFramework/prime_cm3.h **** 
 237:../../Include/PrimeFramework/prime_cm3.h **** /* SysTick Calibration Register Definitions */
 238:../../Include/PrimeFramework/prime_cm3.h **** #define SysTick_CALIB_NOREF_Pos            31                                             /*!< SysT
 239:../../Include/PrimeFramework/prime_cm3.h **** #define SysTick_CALIB_NOREF_Msk            (1UL << SysTick_CALIB_NOREF_Pos)               /*!< SysT
 240:../../Include/PrimeFramework/prime_cm3.h **** 
 241:../../Include/PrimeFramework/prime_cm3.h **** #define SysTick_CALIB_SKEW_Pos             30                                             /*!< SysT
 242:../../Include/PrimeFramework/prime_cm3.h **** #define SysTick_CALIB_SKEW_Msk             (1UL << SysTick_CALIB_SKEW_Pos)                /*!< SysT
 243:../../Include/PrimeFramework/prime_cm3.h **** 
 244:../../Include/PrimeFramework/prime_cm3.h **** #define SysTick_CALIB_TENMS_Pos             0                                             /*!< SysT
 245:../../Include/PrimeFramework/prime_cm3.h **** #define SysTick_CALIB_TENMS_Msk            (0xFFFFFFUL << SysTick_VAL_CURRENT_Pos)        /*!< SysT
 246:../../Include/PrimeFramework/prime_cm3.h **** 
 247:../../Include/PrimeFramework/prime_cm3.h **** /* ITM Trace Privilege Register Definitions  Macro */
 248:../../Include/PrimeFramework/prime_cm3.h **** #define ITM_TPR_PRIVMASK_Pos                0                                             /*!< ITM 
 249:../../Include/PrimeFramework/prime_cm3.h **** #define ITM_TPR_PRIVMASK_Msk               (0xFUL << ITM_TPR_PRIVMASK_Pos)                /*!< ITM 
 250:../../Include/PrimeFramework/prime_cm3.h **** 
 251:../../Include/PrimeFramework/prime_cm3.h **** /* ITM Trace Control Register Definitions */
 252:../../Include/PrimeFramework/prime_cm3.h **** #define ITM_TCR_BUSY_Pos                   23                                             /*!< ITM 
ARM GAS  C:\Users\Aayush\AppData\Local\Temp\ccPGXf2s.s 			page 29


 253:../../Include/PrimeFramework/prime_cm3.h **** #define ITM_TCR_BUSY_Msk                   (1UL << ITM_TCR_BUSY_Pos)                      /*!< ITM 
 254:../../Include/PrimeFramework/prime_cm3.h **** 
 255:../../Include/PrimeFramework/prime_cm3.h **** #define ITM_TCR_ATBID_Pos                  16                                             /*!< ITM 
 256:../../Include/PrimeFramework/prime_cm3.h **** #define ITM_TCR_ATBID_Msk                  (0x7FUL << ITM_TCR_ATBID_Pos)                  /*!< ITM 
 257:../../Include/PrimeFramework/prime_cm3.h **** 
 258:../../Include/PrimeFramework/prime_cm3.h **** #define ITM_TCR_TSPrescale_Pos              8                                             /*!< ITM 
 259:../../Include/PrimeFramework/prime_cm3.h **** #define ITM_TCR_TSPrescale_Msk             (3UL << ITM_TCR_TSPrescale_Pos)                /*!< ITM 
 260:../../Include/PrimeFramework/prime_cm3.h **** 
 261:../../Include/PrimeFramework/prime_cm3.h **** #define ITM_TCR_SWOENA_Pos                  4                                             /*!< ITM 
 262:../../Include/PrimeFramework/prime_cm3.h **** #define ITM_TCR_SWOENA_Msk                 (1UL << ITM_TCR_SWOENA_Pos)                    /*!< ITM 
 263:../../Include/PrimeFramework/prime_cm3.h **** 
 264:../../Include/PrimeFramework/prime_cm3.h **** #define ITM_TCR_DWTENA_Pos                  3                                             /*!< ITM 
 265:../../Include/PrimeFramework/prime_cm3.h **** #define ITM_TCR_DWTENA_Msk                 (1UL << ITM_TCR_DWTENA_Pos)                    /*!< ITM 
 266:../../Include/PrimeFramework/prime_cm3.h **** 
 267:../../Include/PrimeFramework/prime_cm3.h **** #define ITM_TCR_SYNCENA_Pos                 2                                             /*!< ITM 
 268:../../Include/PrimeFramework/prime_cm3.h **** #define ITM_TCR_SYNCENA_Msk                (1UL << ITM_TCR_SYNCENA_Pos)                   /*!< ITM 
 269:../../Include/PrimeFramework/prime_cm3.h **** 
 270:../../Include/PrimeFramework/prime_cm3.h **** #define ITM_TCR_TSENA_Pos                   1                                             /*!< ITM 
 271:../../Include/PrimeFramework/prime_cm3.h **** #define ITM_TCR_TSENA_Msk                  (1UL << ITM_TCR_TSENA_Pos)                     /*!< ITM 
 272:../../Include/PrimeFramework/prime_cm3.h **** 
 273:../../Include/PrimeFramework/prime_cm3.h **** #define ITM_TCR_ITMENA_Pos                  0                                             /*!< ITM 
 274:../../Include/PrimeFramework/prime_cm3.h **** #define ITM_TCR_ITMENA_Msk                 (1UL << ITM_TCR_ITMENA_Pos)                    /*!< ITM 
 275:../../Include/PrimeFramework/prime_cm3.h **** 
 276:../../Include/PrimeFramework/prime_cm3.h **** /* ITM Integration Write Register Definitions */
 277:../../Include/PrimeFramework/prime_cm3.h **** #define ITM_IWR_ATVALIDM_Pos                0                                             /*!< ITM 
 278:../../Include/PrimeFramework/prime_cm3.h **** #define ITM_IWR_ATVALIDM_Msk               (1UL << ITM_IWR_ATVALIDM_Pos)                  /*!< ITM 
 279:../../Include/PrimeFramework/prime_cm3.h **** 
 280:../../Include/PrimeFramework/prime_cm3.h **** /* ITM Integration Read Register Definitions */
 281:../../Include/PrimeFramework/prime_cm3.h **** #define ITM_IRR_ATREADYM_Pos                0                                             /*!< ITM 
 282:../../Include/PrimeFramework/prime_cm3.h **** #define ITM_IRR_ATREADYM_Msk               (1UL << ITM_IRR_ATREADYM_Pos)                  /*!< ITM 
 283:../../Include/PrimeFramework/prime_cm3.h **** 
 284:../../Include/PrimeFramework/prime_cm3.h **** /* ITM Integration Mode Control Register Definitions */
 285:../../Include/PrimeFramework/prime_cm3.h **** #define ITM_IMCR_INTEGRATION_Pos            0                                             /*!< ITM 
 286:../../Include/PrimeFramework/prime_cm3.h **** #define ITM_IMCR_INTEGRATION_Msk           (1UL << ITM_IMCR_INTEGRATION_Pos)              /*!< ITM 
 287:../../Include/PrimeFramework/prime_cm3.h **** 
 288:../../Include/PrimeFramework/prime_cm3.h **** /* ITM Lock Status Register Definitions */
 289:../../Include/PrimeFramework/prime_cm3.h **** #define ITM_LSR_ByteAcc_Pos                 2                                             /*!< ITM 
 290:../../Include/PrimeFramework/prime_cm3.h **** #define ITM_LSR_ByteAcc_Msk                (1UL << ITM_LSR_ByteAcc_Pos)                   /*!< ITM 
 291:../../Include/PrimeFramework/prime_cm3.h **** 
 292:../../Include/PrimeFramework/prime_cm3.h **** #define ITM_LSR_Access_Pos                  1                                             /*!< ITM 
 293:../../Include/PrimeFramework/prime_cm3.h **** #define ITM_LSR_Access_Msk                 (1UL << ITM_LSR_Access_Pos)                    /*!< ITM 
 294:../../Include/PrimeFramework/prime_cm3.h **** 
 295:../../Include/PrimeFramework/prime_cm3.h **** #define ITM_LSR_Present_Pos                 0                                             /*!< ITM 
 296:../../Include/PrimeFramework/prime_cm3.h **** #define ITM_LSR_Present_Msk                (1UL << ITM_LSR_Present_Pos)                   /*!< ITM 
 297:../../Include/PrimeFramework/prime_cm3.h **** 
 298:../../Include/PrimeFramework/prime_cm3.h **** /* Interrupt Controller Type Register Definitions */
 299:../../Include/PrimeFramework/prime_cm3.h **** #define IntType_ICTR_INTLINESNUM_Pos  0                                                   /*!< Inte
 300:../../Include/PrimeFramework/prime_cm3.h **** #define IntType_ICTR_INTLINESNUM_Msk (0x1FUL << IntType_ICTR_INTLINESNUM_Pos)             /*!< Inte
 301:../../Include/PrimeFramework/prime_cm3.h **** 
 302:../../Include/PrimeFramework/prime_cm3.h **** /* Auxiliary Control Register Definitions */
 303:../../Include/PrimeFramework/prime_cm3.h **** #define IntType_ACTLR_DISFOLD_Pos     2                                                   /*!< Inte
 304:../../Include/PrimeFramework/prime_cm3.h **** #define IntType_ACTLR_DISFOLD_Msk    (1UL << IntType_ACTLR_DISFOLD_Pos)                   /*!< Inte
 305:../../Include/PrimeFramework/prime_cm3.h **** 
 306:../../Include/PrimeFramework/prime_cm3.h **** #define IntType_ACTLR_DISDEFWBUF_Pos  1                                                   /*!< Inte
 307:../../Include/PrimeFramework/prime_cm3.h **** #define IntType_ACTLR_DISDEFWBUF_Msk (1UL << IntType_ACTLR_DISDEFWBUF_Pos)                /*!< Inte
 308:../../Include/PrimeFramework/prime_cm3.h **** 
 309:../../Include/PrimeFramework/prime_cm3.h **** #define IntType_ACTLR_DISMCYCINT_Pos  0                                                   /*!< Inte
ARM GAS  C:\Users\Aayush\AppData\Local\Temp\ccPGXf2s.s 			page 30


 310:../../Include/PrimeFramework/prime_cm3.h **** #define IntType_ACTLR_DISMCYCINT_Msk (1UL << IntType_ACTLR_DISMCYCINT_Pos)                /*!< Inte
 311:../../Include/PrimeFramework/prime_cm3.h **** 
 312:../../Include/PrimeFramework/prime_cm3.h **** #if (PF_MPU_PRESENT == 1)
 313:../../Include/PrimeFramework/prime_cm3.h **** 	
 314:../../Include/PrimeFramework/prime_cm3.h **** /* MPU Type Register */
 315:../../Include/PrimeFramework/prime_cm3.h **** #define MPU_TYPE_IREGION_Pos               16                                             /*!< MPU 
 316:../../Include/PrimeFramework/prime_cm3.h **** #define MPU_TYPE_IREGION_Msk               (0xFFUL << MPU_TYPE_IREGION_Pos)               /*!< MPU 
 317:../../Include/PrimeFramework/prime_cm3.h **** 
 318:../../Include/PrimeFramework/prime_cm3.h **** #define MPU_TYPE_DREGION_Pos                8                                             /*!< MPU 
 319:../../Include/PrimeFramework/prime_cm3.h **** #define MPU_TYPE_DREGION_Msk               (0xFFUL << MPU_TYPE_DREGION_Pos)               /*!< MPU 
 320:../../Include/PrimeFramework/prime_cm3.h **** 
 321:../../Include/PrimeFramework/prime_cm3.h **** #define MPU_TYPE_SEPARATE_Pos               0                                             /*!< MPU 
 322:../../Include/PrimeFramework/prime_cm3.h **** #define MPU_TYPE_SEPARATE_Msk              (1UL << MPU_TYPE_SEPARATE_Pos)                 /*!< MPU 
 323:../../Include/PrimeFramework/prime_cm3.h **** 
 324:../../Include/PrimeFramework/prime_cm3.h **** /* MPU Control Register */
 325:../../Include/PrimeFramework/prime_cm3.h **** #define MPU_CTRL_PRIVDEFENA_Pos             2                                             /*!< MPU 
 326:../../Include/PrimeFramework/prime_cm3.h **** #define MPU_CTRL_PRIVDEFENA_Msk            (1UL << MPU_CTRL_PRIVDEFENA_Pos)               /*!< MPU 
 327:../../Include/PrimeFramework/prime_cm3.h **** 
 328:../../Include/PrimeFramework/prime_cm3.h **** #define MPU_CTRL_HFNMIENA_Pos               1                                             /*!< MPU 
 329:../../Include/PrimeFramework/prime_cm3.h **** #define MPU_CTRL_HFNMIENA_Msk              (1UL << MPU_CTRL_HFNMIENA_Pos)                 /*!< MPU 
 330:../../Include/PrimeFramework/prime_cm3.h **** 
 331:../../Include/PrimeFramework/prime_cm3.h **** #define MPU_CTRL_ENABLE_Pos                 0                                             /*!< MPU 
 332:../../Include/PrimeFramework/prime_cm3.h **** #define MPU_CTRL_ENABLE_Msk                (1UL << MPU_CTRL_ENABLE_Pos)                   /*!< MPU 
 333:../../Include/PrimeFramework/prime_cm3.h **** 
 334:../../Include/PrimeFramework/prime_cm3.h **** /* MPU Region Number Register */
 335:../../Include/PrimeFramework/prime_cm3.h **** #define MPU_RNR_REGION_Pos                  0                                             /*!< MPU 
 336:../../Include/PrimeFramework/prime_cm3.h **** #define MPU_RNR_REGION_Msk                 (0xFFUL << MPU_RNR_REGION_Pos)                 /*!< MPU 
 337:../../Include/PrimeFramework/prime_cm3.h **** 
 338:../../Include/PrimeFramework/prime_cm3.h **** /* MPU Region Base Address Register */
 339:../../Include/PrimeFramework/prime_cm3.h **** #define MPU_RBAR_ADDR_Pos                   5                                             /*!< MPU 
 340:../../Include/PrimeFramework/prime_cm3.h **** #define MPU_RBAR_ADDR_Msk                  (0x7FFFFFFUL << MPU_RBAR_ADDR_Pos)             /*!< MPU 
 341:../../Include/PrimeFramework/prime_cm3.h **** 
 342:../../Include/PrimeFramework/prime_cm3.h **** #define MPU_RBAR_VALID_Pos                  4                                             /*!< MPU 
 343:../../Include/PrimeFramework/prime_cm3.h **** #define MPU_RBAR_VALID_Msk                 (1UL << MPU_RBAR_VALID_Pos)                    /*!< MPU 
 344:../../Include/PrimeFramework/prime_cm3.h **** 
 345:../../Include/PrimeFramework/prime_cm3.h **** #define MPU_RBAR_REGION_Pos                 0                                             /*!< MPU 
 346:../../Include/PrimeFramework/prime_cm3.h **** #define MPU_RBAR_REGION_Msk                (0xFUL << MPU_RBAR_REGION_Pos)                 /*!< MPU 
 347:../../Include/PrimeFramework/prime_cm3.h **** 
 348:../../Include/PrimeFramework/prime_cm3.h **** /* MPU Region Attribute and Size Register */
 349:../../Include/PrimeFramework/prime_cm3.h **** #define MPU_RASR_XN_Pos                    28                                             /*!< MPU 
 350:../../Include/PrimeFramework/prime_cm3.h **** #define MPU_RASR_XN_Msk                    (1UL << MPU_RASR_XN_Pos)                       /*!< MPU 
 351:../../Include/PrimeFramework/prime_cm3.h **** 
 352:../../Include/PrimeFramework/prime_cm3.h **** #define MPU_RASR_AP_Pos                    24                                             /*!< MPU 
 353:../../Include/PrimeFramework/prime_cm3.h **** #define MPU_RASR_AP_Msk                    (7UL << MPU_RASR_AP_Pos)                       /*!< MPU 
 354:../../Include/PrimeFramework/prime_cm3.h **** 
 355:../../Include/PrimeFramework/prime_cm3.h **** #define MPU_RASR_TEX_Pos                   19                                             /*!< MPU 
 356:../../Include/PrimeFramework/prime_cm3.h **** #define MPU_RASR_TEX_Msk                   (7UL << MPU_RASR_TEX_Pos)                      /*!< MPU 
 357:../../Include/PrimeFramework/prime_cm3.h **** 
 358:../../Include/PrimeFramework/prime_cm3.h **** #define MPU_RASR_S_Pos                     18                                             /*!< MPU 
 359:../../Include/PrimeFramework/prime_cm3.h **** #define MPU_RASR_S_Msk                     (1UL << MPU_RASR_S_Pos)                        /*!< MPU 
 360:../../Include/PrimeFramework/prime_cm3.h **** 
 361:../../Include/PrimeFramework/prime_cm3.h **** #define MPU_RASR_C_Pos                     17                                             /*!< MPU 
 362:../../Include/PrimeFramework/prime_cm3.h **** #define MPU_RASR_C_Msk                     (1UL << MPU_RASR_C_Pos)                        /*!< MPU 
 363:../../Include/PrimeFramework/prime_cm3.h **** 
 364:../../Include/PrimeFramework/prime_cm3.h **** #define MPU_RASR_B_Pos                     16                                             /*!< MPU 
 365:../../Include/PrimeFramework/prime_cm3.h **** #define MPU_RASR_B_Msk                     (1UL << MPU_RASR_B_Pos)                        /*!< MPU 
 366:../../Include/PrimeFramework/prime_cm3.h **** 
ARM GAS  C:\Users\Aayush\AppData\Local\Temp\ccPGXf2s.s 			page 31


 367:../../Include/PrimeFramework/prime_cm3.h **** #define MPU_RASR_SRD_Pos                    8                                             /*!< MPU 
 368:../../Include/PrimeFramework/prime_cm3.h **** #define MPU_RASR_SRD_Msk                   (0xFFUL << MPU_RASR_SRD_Pos)                   /*!< MPU 
 369:../../Include/PrimeFramework/prime_cm3.h **** 
 370:../../Include/PrimeFramework/prime_cm3.h **** #define MPU_RASR_SIZE_Pos                   1                                             /*!< MPU 
 371:../../Include/PrimeFramework/prime_cm3.h **** #define MPU_RASR_SIZE_Msk                  (0x1FUL << MPU_RASR_SIZE_Pos)                  /*!< MPU 
 372:../../Include/PrimeFramework/prime_cm3.h **** 
 373:../../Include/PrimeFramework/prime_cm3.h **** #define MPU_RASR_ENA_Pos                     0                                            /*!< MPU 
 374:../../Include/PrimeFramework/prime_cm3.h **** #define MPU_RASR_ENA_Msk                    (0x1UL << MPU_RASR_ENA_Pos)                   /*!< MPU 
 375:../../Include/PrimeFramework/prime_cm3.h **** 
 376:../../Include/PrimeFramework/prime_cm3.h **** /* @}*/ /* end of group CM3_MPU */
 377:../../Include/PrimeFramework/prime_cm3.h **** #endif
 378:../../Include/PrimeFramework/prime_cm3.h **** 
 379:../../Include/PrimeFramework/prime_cm3.h **** /* Debug Halting Control and Status Register */
 380:../../Include/PrimeFramework/prime_cm3.h **** #define CoreDebug_DHCSR_DBGKEY_Pos         16                                             /*!< Core
 381:../../Include/PrimeFramework/prime_cm3.h **** #define CoreDebug_DHCSR_DBGKEY_Msk         (0xFFFFUL << CoreDebug_DHCSR_DBGKEY_Pos)       /*!< Core
 382:../../Include/PrimeFramework/prime_cm3.h **** 
 383:../../Include/PrimeFramework/prime_cm3.h **** #define CoreDebug_DHCSR_S_RESET_ST_Pos     25                                             /*!< Core
 384:../../Include/PrimeFramework/prime_cm3.h **** #define CoreDebug_DHCSR_S_RESET_ST_Msk     (1UL << CoreDebug_DHCSR_S_RESET_ST_Pos)        /*!< Core
 385:../../Include/PrimeFramework/prime_cm3.h **** 
 386:../../Include/PrimeFramework/prime_cm3.h **** #define CoreDebug_DHCSR_S_RETIRE_ST_Pos    24                                             /*!< Core
 387:../../Include/PrimeFramework/prime_cm3.h **** #define CoreDebug_DHCSR_S_RETIRE_ST_Msk    (1UL << CoreDebug_DHCSR_S_RETIRE_ST_Pos)       /*!< Core
 388:../../Include/PrimeFramework/prime_cm3.h **** 
 389:../../Include/PrimeFramework/prime_cm3.h **** #define CoreDebug_DHCSR_S_LOCKUP_Pos       19                                             /*!< Core
 390:../../Include/PrimeFramework/prime_cm3.h **** #define CoreDebug_DHCSR_S_LOCKUP_Msk       (1UL << CoreDebug_DHCSR_S_LOCKUP_Pos)          /*!< Core
 391:../../Include/PrimeFramework/prime_cm3.h **** 
 392:../../Include/PrimeFramework/prime_cm3.h **** #define CoreDebug_DHCSR_S_SLEEP_Pos        18                                             /*!< Core
 393:../../Include/PrimeFramework/prime_cm3.h **** #define CoreDebug_DHCSR_S_SLEEP_Msk        (1UL << CoreDebug_DHCSR_S_SLEEP_Pos)           /*!< Core
 394:../../Include/PrimeFramework/prime_cm3.h **** 
 395:../../Include/PrimeFramework/prime_cm3.h **** #define CoreDebug_DHCSR_S_HALT_Pos         17                                             /*!< Core
 396:../../Include/PrimeFramework/prime_cm3.h **** #define CoreDebug_DHCSR_S_HALT_Msk         (1UL << CoreDebug_DHCSR_S_HALT_Pos)            /*!< Core
 397:../../Include/PrimeFramework/prime_cm3.h **** 
 398:../../Include/PrimeFramework/prime_cm3.h **** #define CoreDebug_DHCSR_S_REGRDY_Pos       16                                             /*!< Core
 399:../../Include/PrimeFramework/prime_cm3.h **** #define CoreDebug_DHCSR_S_REGRDY_Msk       (1UL << CoreDebug_DHCSR_S_REGRDY_Pos)          /*!< Core
 400:../../Include/PrimeFramework/prime_cm3.h **** 
 401:../../Include/PrimeFramework/prime_cm3.h **** #define CoreDebug_DHCSR_C_SNAPSTALL_Pos     5                                             /*!< Core
 402:../../Include/PrimeFramework/prime_cm3.h **** #define CoreDebug_DHCSR_C_SNAPSTALL_Msk    (1UL << CoreDebug_DHCSR_C_SNAPSTALL_Pos)       /*!< Core
 403:../../Include/PrimeFramework/prime_cm3.h **** 
 404:../../Include/PrimeFramework/prime_cm3.h **** #define CoreDebug_DHCSR_C_MASKINTS_Pos      3                                             /*!< Core
 405:../../Include/PrimeFramework/prime_cm3.h **** #define CoreDebug_DHCSR_C_MASKINTS_Msk     (1UL << CoreDebug_DHCSR_C_MASKINTS_Pos)        /*!< Core
 406:../../Include/PrimeFramework/prime_cm3.h **** 
 407:../../Include/PrimeFramework/prime_cm3.h **** #define CoreDebug_DHCSR_C_STEP_Pos          2                                             /*!< Core
 408:../../Include/PrimeFramework/prime_cm3.h **** #define CoreDebug_DHCSR_C_STEP_Msk         (1UL << CoreDebug_DHCSR_C_STEP_Pos)            /*!< Core
 409:../../Include/PrimeFramework/prime_cm3.h **** 
 410:../../Include/PrimeFramework/prime_cm3.h **** #define CoreDebug_DHCSR_C_HALT_Pos          1                                             /*!< Core
 411:../../Include/PrimeFramework/prime_cm3.h **** #define CoreDebug_DHCSR_C_HALT_Msk         (1UL << CoreDebug_DHCSR_C_HALT_Pos)            /*!< Core
 412:../../Include/PrimeFramework/prime_cm3.h **** 
 413:../../Include/PrimeFramework/prime_cm3.h **** #define CoreDebug_DHCSR_C_DEBUGEN_Pos       0                                             /*!< Core
 414:../../Include/PrimeFramework/prime_cm3.h **** #define CoreDebug_DHCSR_C_DEBUGEN_Msk      (1UL << CoreDebug_DHCSR_C_DEBUGEN_Pos)         /*!< Core
 415:../../Include/PrimeFramework/prime_cm3.h **** 
 416:../../Include/PrimeFramework/prime_cm3.h **** /* Debug Core Register Selector Register */
 417:../../Include/PrimeFramework/prime_cm3.h **** #define CoreDebug_DCRSR_REGWnR_Pos         16                                             /*!< Core
 418:../../Include/PrimeFramework/prime_cm3.h **** #define CoreDebug_DCRSR_REGWnR_Msk         (1UL << CoreDebug_DCRSR_REGWnR_Pos)            /*!< Core
 419:../../Include/PrimeFramework/prime_cm3.h **** 
 420:../../Include/PrimeFramework/prime_cm3.h **** #define CoreDebug_DCRSR_REGSEL_Pos          0                                             /*!< Core
 421:../../Include/PrimeFramework/prime_cm3.h **** #define CoreDebug_DCRSR_REGSEL_Msk         (0x1FUL << CoreDebug_DCRSR_REGSEL_Pos)         /*!< Core
 422:../../Include/PrimeFramework/prime_cm3.h **** 
 423:../../Include/PrimeFramework/prime_cm3.h **** /* Debug Exception and Monitor Control Register */
ARM GAS  C:\Users\Aayush\AppData\Local\Temp\ccPGXf2s.s 			page 32


 424:../../Include/PrimeFramework/prime_cm3.h **** #define CoreDebug_DEMCR_TRCENA_Pos         24                                             /*!< Core
 425:../../Include/PrimeFramework/prime_cm3.h **** #define CoreDebug_DEMCR_TRCENA_Msk         (1UL << CoreDebug_DEMCR_TRCENA_Pos)            /*!< Core
 426:../../Include/PrimeFramework/prime_cm3.h **** 
 427:../../Include/PrimeFramework/prime_cm3.h **** #define CoreDebug_DEMCR_MON_REQ_Pos        19                                             /*!< Core
 428:../../Include/PrimeFramework/prime_cm3.h **** #define CoreDebug_DEMCR_MON_REQ_Msk        (1UL << CoreDebug_DEMCR_MON_REQ_Pos)           /*!< Core
 429:../../Include/PrimeFramework/prime_cm3.h **** 
 430:../../Include/PrimeFramework/prime_cm3.h **** #define CoreDebug_DEMCR_MON_STEP_Pos       18                                             /*!< Core
 431:../../Include/PrimeFramework/prime_cm3.h **** #define CoreDebug_DEMCR_MON_STEP_Msk       (1UL << CoreDebug_DEMCR_MON_STEP_Pos)          /*!< Core
 432:../../Include/PrimeFramework/prime_cm3.h **** 
 433:../../Include/PrimeFramework/prime_cm3.h **** #define CoreDebug_DEMCR_MON_PEND_Pos       17                                             /*!< Core
 434:../../Include/PrimeFramework/prime_cm3.h **** #define CoreDebug_DEMCR_MON_PEND_Msk       (1UL << CoreDebug_DEMCR_MON_PEND_Pos)          /*!< Core
 435:../../Include/PrimeFramework/prime_cm3.h **** 
 436:../../Include/PrimeFramework/prime_cm3.h **** #define CoreDebug_DEMCR_MON_EN_Pos         16                                             /*!< Core
 437:../../Include/PrimeFramework/prime_cm3.h **** #define CoreDebug_DEMCR_MON_EN_Msk         (1UL << CoreDebug_DEMCR_MON_EN_Pos)            /*!< Core
 438:../../Include/PrimeFramework/prime_cm3.h **** 
 439:../../Include/PrimeFramework/prime_cm3.h **** #define CoreDebug_DEMCR_VC_HARDERR_Pos     10                                             /*!< Core
 440:../../Include/PrimeFramework/prime_cm3.h **** #define CoreDebug_DEMCR_VC_HARDERR_Msk     (1UL << CoreDebug_DEMCR_VC_HARDERR_Pos)        /*!< Core
 441:../../Include/PrimeFramework/prime_cm3.h **** 
 442:../../Include/PrimeFramework/prime_cm3.h **** #define CoreDebug_DEMCR_VC_INTERR_Pos       9                                             /*!< Core
 443:../../Include/PrimeFramework/prime_cm3.h **** #define CoreDebug_DEMCR_VC_INTERR_Msk      (1UL << CoreDebug_DEMCR_VC_INTERR_Pos)         /*!< Core
 444:../../Include/PrimeFramework/prime_cm3.h **** 
 445:../../Include/PrimeFramework/prime_cm3.h **** #define CoreDebug_DEMCR_VC_BUSERR_Pos       8                                             /*!< Core
 446:../../Include/PrimeFramework/prime_cm3.h **** #define CoreDebug_DEMCR_VC_BUSERR_Msk      (1UL << CoreDebug_DEMCR_VC_BUSERR_Pos)         /*!< Core
 447:../../Include/PrimeFramework/prime_cm3.h **** 
 448:../../Include/PrimeFramework/prime_cm3.h **** #define CoreDebug_DEMCR_VC_STATERR_Pos      7                                             /*!< Core
 449:../../Include/PrimeFramework/prime_cm3.h **** #define CoreDebug_DEMCR_VC_STATERR_Msk     (1UL << CoreDebug_DEMCR_VC_STATERR_Pos)        /*!< Core
 450:../../Include/PrimeFramework/prime_cm3.h **** 
 451:../../Include/PrimeFramework/prime_cm3.h **** #define CoreDebug_DEMCR_VC_CHKERR_Pos       6                                             /*!< Core
 452:../../Include/PrimeFramework/prime_cm3.h **** #define CoreDebug_DEMCR_VC_CHKERR_Msk      (1UL << CoreDebug_DEMCR_VC_CHKERR_Pos)         /*!< Core
 453:../../Include/PrimeFramework/prime_cm3.h **** 
 454:../../Include/PrimeFramework/prime_cm3.h **** #define CoreDebug_DEMCR_VC_NOCPERR_Pos      5                                             /*!< Core
 455:../../Include/PrimeFramework/prime_cm3.h **** #define CoreDebug_DEMCR_VC_NOCPERR_Msk     (1UL << CoreDebug_DEMCR_VC_NOCPERR_Pos)        /*!< Core
 456:../../Include/PrimeFramework/prime_cm3.h **** 
 457:../../Include/PrimeFramework/prime_cm3.h **** #define CoreDebug_DEMCR_VC_MMERR_Pos        4                                             /*!< Core
 458:../../Include/PrimeFramework/prime_cm3.h **** #define CoreDebug_DEMCR_VC_MMERR_Msk       (1UL << CoreDebug_DEMCR_VC_MMERR_Pos)          /*!< Core
 459:../../Include/PrimeFramework/prime_cm3.h **** 
 460:../../Include/PrimeFramework/prime_cm3.h **** #define CoreDebug_DEMCR_VC_CORERESET_Pos    0                                             /*!< Core
 461:../../Include/PrimeFramework/prime_cm3.h **** #define CoreDebug_DEMCR_VC_CORERESET_Msk   (1UL << CoreDebug_DEMCR_VC_CORERESET_Pos)      /*!< Core
 462:../../Include/PrimeFramework/prime_cm3.h **** 
 463:../../Include/PrimeFramework/prime_cm3.h **** /* \brief CM3 Core Register Macro */
 464:../../Include/PrimeFramework/prime_cm3.h **** /* Memory mapping of Cortex-M3 Hardware */
 465:../../Include/PrimeFramework/prime_cm3.h **** #define SCS_BASE            (0xE000E000UL)                            /*!< System Control Space Bas
 466:../../Include/PrimeFramework/prime_cm3.h **** #define ITM_BASE            (0xE0000000UL)                            /*!< ITM Base Address        
 467:../../Include/PrimeFramework/prime_cm3.h **** #define CoreDebug_BASE      (0xE000EDF0UL)                            /*!< Core Debug Base Address 
 468:../../Include/PrimeFramework/prime_cm3.h **** #define SysTick_BASE        (SCS_BASE +  0x0010UL)                    /*!< SysTick Base Address    
 469:../../Include/PrimeFramework/prime_cm3.h **** #define NVIC_BASE           (SCS_BASE +  0x0100UL)                    /*!< NVIC Base Address       
 470:../../Include/PrimeFramework/prime_cm3.h **** #define SCB_BASE            (SCS_BASE +  0x0D00UL)                    /*!< System Control Block Bas
 471:../../Include/PrimeFramework/prime_cm3.h **** 
 472:../../Include/PrimeFramework/prime_cm3.h **** #define InterruptType       ((InterruptType_Type *) SCS_BASE)         /*!< Interrupt Type Register 
 473:../../Include/PrimeFramework/prime_cm3.h **** #define SCB                 ((SCB_Type *)           SCB_BASE)         /*!< SCB configuration struct
 474:../../Include/PrimeFramework/prime_cm3.h **** #define SysTick             ((SysTick_Type *)       SysTick_BASE)     /*!< SysTick configuration st
 475:../../Include/PrimeFramework/prime_cm3.h **** #define NVIC                ((NVIC_Type *)          NVIC_BASE)        /*!< NVIC configuration struc
 476:../../Include/PrimeFramework/prime_cm3.h **** #define ITM                 ((ITM_Type *)           ITM_BASE)         /*!< ITM configuration struct
 477:../../Include/PrimeFramework/prime_cm3.h **** #define CoreDebug           ((CoreDebug_Type *)     CoreDebug_BASE)   /*!< Core Debug configuration
 478:../../Include/PrimeFramework/prime_cm3.h **** 
 479:../../Include/PrimeFramework/prime_cm3.h **** #if (PF_MPU_PRESENT == 1)
 480:../../Include/PrimeFramework/prime_cm3.h ****   #define MPU_BASE          (SCS_BASE +  0x0D90UL)                    /*!< Memory Protection Unit  
ARM GAS  C:\Users\Aayush\AppData\Local\Temp\ccPGXf2s.s 			page 33


 481:../../Include/PrimeFramework/prime_cm3.h ****   #define MPU               ((MPU_Type*)            MPU_BASE)         /*!< Memory Protection Unit  
 482:../../Include/PrimeFramework/prime_cm3.h **** #endif
 483:../../Include/PrimeFramework/prime_cm3.h **** 
 484:../../Include/PrimeFramework/prime_cm3.h **** /**
 485:../../Include/PrimeFramework/prime_cm3.h ****  * \brief  		Set Priority Grouping
 486:../../Include/PrimeFramework/prime_cm3.h ****  * 
 487:../../Include/PrimeFramework/prime_cm3.h ****  * \details		
 488:../../Include/PrimeFramework/prime_cm3.h ****  *  This function sets the priority grouping field using the required unlock sequence.
 489:../../Include/PrimeFramework/prime_cm3.h ****  *  The parameter PriorityGroup is assigned to the field SCB->AIRCR [10:8] PRIGROUP field.
 490:../../Include/PrimeFramework/prime_cm3.h ****  * 	Only values from 0..7 are used.
 491:../../Include/PrimeFramework/prime_cm3.h ****  * 	In case of a conflict between priority grouping and available
 492:../../Include/PrimeFramework/prime_cm3.h ****  *  priority bits (PF_NVIC_PRIO_BITS) the smallest possible priority group is set.
 493:../../Include/PrimeFramework/prime_cm3.h ****  * 
 494:../../Include/PrimeFramework/prime_cm3.h ****  * \param [in]      PriorityGroup  Priority grouping field
 495:../../Include/PrimeFramework/prime_cm3.h ****  */
 496:../../Include/PrimeFramework/prime_cm3.h **** PF_C_STATIC_INLINE void NVIC_SetPriorityGrouping(PFdword PriorityGroup)
 497:../../Include/PrimeFramework/prime_cm3.h **** {
 498:../../Include/PrimeFramework/prime_cm3.h ****   PFdword reg_value;
 499:../../Include/PrimeFramework/prime_cm3.h ****   PFdword PriorityGroupTmp = (PriorityGroup & 0x07);                         /* only values 0..7 ar
 500:../../Include/PrimeFramework/prime_cm3.h **** 
 501:../../Include/PrimeFramework/prime_cm3.h ****   reg_value  =  SCB->AIRCR;                                                  /* read old register c
 502:../../Include/PrimeFramework/prime_cm3.h ****   reg_value &= ~(SCB_AIRCR_VECTKEY_Msk | SCB_AIRCR_PRIGROUP_Msk);            /* clear bits to chang
 503:../../Include/PrimeFramework/prime_cm3.h ****   reg_value  =  (reg_value                       |
 504:../../Include/PrimeFramework/prime_cm3.h ****                 (0x5FA << SCB_AIRCR_VECTKEY_Pos) |
 505:../../Include/PrimeFramework/prime_cm3.h ****                 (PriorityGroupTmp << 8));                                    /* Insert write key an
 506:../../Include/PrimeFramework/prime_cm3.h ****   SCB->AIRCR =  reg_value;
 507:../../Include/PrimeFramework/prime_cm3.h **** }
 508:../../Include/PrimeFramework/prime_cm3.h **** 
 509:../../Include/PrimeFramework/prime_cm3.h **** /**
 510:../../Include/PrimeFramework/prime_cm3.h ****  * \brief		Get Priority Grouping
 511:../../Include/PrimeFramework/prime_cm3.h ****  * \details		
 512:../../Include/PrimeFramework/prime_cm3.h ****  * This function gets the priority grouping from NVIC Interrupt Controller.
 513:../../Include/PrimeFramework/prime_cm3.h ****  * Priority grouping is SCB->AIRCR [10:8] PRIGROUP field.
 514:../../Include/PrimeFramework/prime_cm3.h ****  * 
 515:../../Include/PrimeFramework/prime_cm3.h ****  * \return                Priority grouping field
 516:../../Include/PrimeFramework/prime_cm3.h ****  */
 517:../../Include/PrimeFramework/prime_cm3.h **** PF_C_STATIC_INLINE PFdword NVIC_GetPriorityGrouping(void)
 518:../../Include/PrimeFramework/prime_cm3.h **** {
 519:../../Include/PrimeFramework/prime_cm3.h ****   return ((SCB->AIRCR & SCB_AIRCR_PRIGROUP_Msk) >> SCB_AIRCR_PRIGROUP_Pos);   /* read priority grou
 520:../../Include/PrimeFramework/prime_cm3.h **** }
 521:../../Include/PrimeFramework/prime_cm3.h **** 
 522:../../Include/PrimeFramework/prime_cm3.h **** /**
 523:../../Include/PrimeFramework/prime_cm3.h ****  * \brief  Enable External Interrupt
 524:../../Include/PrimeFramework/prime_cm3.h ****  * \details
 525:../../Include/PrimeFramework/prime_cm3.h ****  * This function enables a device specific interupt in the NVIC interrupt controller.
 526:../../Include/PrimeFramework/prime_cm3.h ****  * The interrupt number cannot be a negative value.
 527:../../Include/PrimeFramework/prime_cm3.h ****  * 
 528:../../Include/PrimeFramework/prime_cm3.h ****  * \param [in]      IRQn  Number of the external interrupt to enable
 529:../../Include/PrimeFramework/prime_cm3.h ****  */
 530:../../Include/PrimeFramework/prime_cm3.h **** PF_C_STATIC_INLINE void NVIC_EnableIRQ(IRQn_Type IRQn)
 531:../../Include/PrimeFramework/prime_cm3.h **** {
 532:../../Include/PrimeFramework/prime_cm3.h ****   NVIC->ISER[((PFdword)(IRQn) >> 5)] = (1 << ((PFdword)(IRQn) & 0x1F)); /* enable interrupt */
 533:../../Include/PrimeFramework/prime_cm3.h **** }
 534:../../Include/PrimeFramework/prime_cm3.h **** 
 535:../../Include/PrimeFramework/prime_cm3.h **** /**
 536:../../Include/PrimeFramework/prime_cm3.h ****  * \brief  Disable External Interrupt
 537:../../Include/PrimeFramework/prime_cm3.h ****  * \details
ARM GAS  C:\Users\Aayush\AppData\Local\Temp\ccPGXf2s.s 			page 34


 538:../../Include/PrimeFramework/prime_cm3.h ****  * This function disables a device specific interupt in the NVIC interrupt controller.
 539:../../Include/PrimeFramework/prime_cm3.h ****  * The interrupt number cannot be a negative value.
 540:../../Include/PrimeFramework/prime_cm3.h ****  * 
 541:../../Include/PrimeFramework/prime_cm3.h ****  * \param [in]      IRQn  Number of the external interrupt to disable
 542:../../Include/PrimeFramework/prime_cm3.h ****  */
 543:../../Include/PrimeFramework/prime_cm3.h **** PF_C_STATIC_INLINE void NVIC_DisableIRQ(IRQn_Type IRQn)
 544:../../Include/PrimeFramework/prime_cm3.h **** {
 545:../../Include/PrimeFramework/prime_cm3.h ****   NVIC->ICER[((PFdword)(IRQn) >> 5)] = (1 << ((PFdword)(IRQn) & 0x1F)); /* disable interrupt */
 546:../../Include/PrimeFramework/prime_cm3.h **** }
 547:../../Include/PrimeFramework/prime_cm3.h **** 
 548:../../Include/PrimeFramework/prime_cm3.h **** /**
 549:../../Include/PrimeFramework/prime_cm3.h ****  * \brief  Get Pending Interrupt
 550:../../Include/PrimeFramework/prime_cm3.h ****  * \details
 551:../../Include/PrimeFramework/prime_cm3.h ****  * This function reads the pending register in the NVIC and returns the pending bit
 552:../../Include/PrimeFramework/prime_cm3.h ****  * for the specified interrupt.
 553:../../Include/PrimeFramework/prime_cm3.h ****  * 
 554:../../Include/PrimeFramework/prime_cm3.h ****  * \param [in]      IRQn  Number of the interrupt for get pending
 555:../../Include/PrimeFramework/prime_cm3.h ****  * \return             0  Interrupt status is not pending
 556:../../Include/PrimeFramework/prime_cm3.h ****  * \return             1  Interrupt status is pending
 557:../../Include/PrimeFramework/prime_cm3.h ****  */
 558:../../Include/PrimeFramework/prime_cm3.h **** PF_C_STATIC_INLINE PFdword NVIC_GetPendingIRQ(IRQn_Type IRQn)
 559:../../Include/PrimeFramework/prime_cm3.h **** {
 560:../../Include/PrimeFramework/prime_cm3.h ****   return((PFdword) ((NVIC->ISPR[(PFdword)(IRQn) >> 5] & (1 << ((PFdword)(IRQn) & 0x1F)))?1:0)); /* 
 561:../../Include/PrimeFramework/prime_cm3.h **** }
 562:../../Include/PrimeFramework/prime_cm3.h **** 
 563:../../Include/PrimeFramework/prime_cm3.h **** /**
 564:../../Include/PrimeFramework/prime_cm3.h ****  * \brief  Set Pending Interrupt
 565:../../Include/PrimeFramework/prime_cm3.h ****  * \details
 566:../../Include/PrimeFramework/prime_cm3.h ****  * This function sets the pending bit for the specified interrupt.
 567:../../Include/PrimeFramework/prime_cm3.h ****  * The interrupt number cannot be a negative value.
 568:../../Include/PrimeFramework/prime_cm3.h ****  * 
 569:../../Include/PrimeFramework/prime_cm3.h ****  * \param [in]      IRQn  Number of the interrupt for set pending
 570:../../Include/PrimeFramework/prime_cm3.h ****  */
 571:../../Include/PrimeFramework/prime_cm3.h **** PF_C_STATIC_INLINE void NVIC_SetPendingIRQ(IRQn_Type IRQn)
 572:../../Include/PrimeFramework/prime_cm3.h **** {
 573:../../Include/PrimeFramework/prime_cm3.h ****   NVIC->ISPR[((PFdword)(IRQn) >> 5)] = (1 << ((PFdword)(IRQn) & 0x1F)); /* set interrupt pending */
 574:../../Include/PrimeFramework/prime_cm3.h **** }
 575:../../Include/PrimeFramework/prime_cm3.h **** 
 576:../../Include/PrimeFramework/prime_cm3.h **** /**
 577:../../Include/PrimeFramework/prime_cm3.h ****  * \brief  Clear Pending Interrupt
 578:../../Include/PrimeFramework/prime_cm3.h ****  * \details
 579:../../Include/PrimeFramework/prime_cm3.h ****  * This function clears the pending bit for the specified interrupt.
 580:../../Include/PrimeFramework/prime_cm3.h ****  * The interrupt number cannot be a negative value.
 581:../../Include/PrimeFramework/prime_cm3.h ****  * 
 582:../../Include/PrimeFramework/prime_cm3.h ****  * \param [in]      IRQn  Number of the interrupt for clear pending
 583:../../Include/PrimeFramework/prime_cm3.h ****  */
 584:../../Include/PrimeFramework/prime_cm3.h **** PF_C_STATIC_INLINE void NVIC_ClearPendingIRQ(IRQn_Type IRQn)
 585:../../Include/PrimeFramework/prime_cm3.h **** {
 586:../../Include/PrimeFramework/prime_cm3.h ****   NVIC->ICPR[((PFdword)(IRQn) >> 5)] = (1 << ((PFdword)(IRQn) & 0x1F)); /* Clear pending interrupt 
 587:../../Include/PrimeFramework/prime_cm3.h **** }
 588:../../Include/PrimeFramework/prime_cm3.h **** 
 589:../../Include/PrimeFramework/prime_cm3.h **** /**
 590:../../Include/PrimeFramework/prime_cm3.h ****  * \brief  Get Active Interrupt
 591:../../Include/PrimeFramework/prime_cm3.h ****  * \details
 592:../../Include/PrimeFramework/prime_cm3.h ****  * This function reads the active register in NVIC and returns the active bit.
 593:../../Include/PrimeFramework/prime_cm3.h ****  * 
 594:../../Include/PrimeFramework/prime_cm3.h ****  * \param [in]      IRQn  Number of the interrupt for get active
ARM GAS  C:\Users\Aayush\AppData\Local\Temp\ccPGXf2s.s 			page 35


 595:../../Include/PrimeFramework/prime_cm3.h ****  * \return             0  Interrupt status is not active
 596:../../Include/PrimeFramework/prime_cm3.h ****  * \return             1  Interrupt status is active
 597:../../Include/PrimeFramework/prime_cm3.h ****  */
 598:../../Include/PrimeFramework/prime_cm3.h **** PF_C_STATIC_INLINE PFdword NVIC_GetActive(IRQn_Type IRQn)
 599:../../Include/PrimeFramework/prime_cm3.h **** {
 600:../../Include/PrimeFramework/prime_cm3.h ****   return((PFdword)((NVIC->IABR[(PFdword)(IRQn) >> 5] & (1 << ((PFdword)(IRQn) & 0x1F)))?1:0)); /* R
 601:../../Include/PrimeFramework/prime_cm3.h **** }
 602:../../Include/PrimeFramework/prime_cm3.h **** 
 603:../../Include/PrimeFramework/prime_cm3.h **** /**
 604:../../Include/PrimeFramework/prime_cm3.h ****  * \brief  Set Interrupt Priority
 605:../../Include/PrimeFramework/prime_cm3.h ****  * \details
 606:../../Include/PrimeFramework/prime_cm3.h ****  * This function sets the priority for the specified interrupt. The interrupt
 607:../../Include/PrimeFramework/prime_cm3.h ****  * number can be positive to specify an external (device specific)
 608:../../Include/PrimeFramework/prime_cm3.h ****  * interrupt, or negative to specify an internal (core) interrupt.
 609:../../Include/PrimeFramework/prime_cm3.h ****  * 
 610:../../Include/PrimeFramework/prime_cm3.h ****  * \param [in]      IRQn  Number of the interrupt for set priority
 611:../../Include/PrimeFramework/prime_cm3.h ****  * \param [in]  priority  Priority to set
 612:../../Include/PrimeFramework/prime_cm3.h ****  * 
 613:../../Include/PrimeFramework/prime_cm3.h ****  * \note The priority cannot be set for every core interrupt.
 614:../../Include/PrimeFramework/prime_cm3.h ****  */
 615:../../Include/PrimeFramework/prime_cm3.h **** PF_C_STATIC_INLINE void NVIC_SetPriority(IRQn_Type IRQn, PFdword priority)
 616:../../Include/PrimeFramework/prime_cm3.h **** {
 617:../../Include/PrimeFramework/prime_cm3.h ****   if(IRQn < 0) {
 866              		.loc 2 617 5
 867 01da 9DF90E30 		ldrsb	r3, [sp, #14]	@ tmp175, IRQn
 868 01de 002B     		cmp	r3, #0	@ tmp175,
 869 01e0 0CDA     		bge	.L22		@,
 870              	@ ../../Include/PrimeFramework/prime_cm3.h:618:     SCB->SHP[((PFdword)(IRQn) & 0xF)-4] = ((priorit
 618:../../Include/PrimeFramework/prime_cm3.h ****     SCB->SHP[((PFdword)(IRQn) & 0xF)-4] = ((priority << (8 - PF_NVIC_PRIO_BITS)) & 0xff); } /* set 
 871              		.loc 2 618 54
 872 01e2 029B     		ldr	r3, [sp, #8]	@ tmp176, priority
 873 01e4 DAB2     		uxtb	r2, r3	@ _76, tmp176
 874              	@ ../../Include/PrimeFramework/prime_cm3.h:618:     SCB->SHP[((PFdword)(IRQn) & 0xF)-4] = ((priorit
 875              		.loc 2 618 8
 876 01e6 4F49     		ldr	r1, .L32+148	@ _77,
 877              	@ ../../Include/PrimeFramework/prime_cm3.h:618:     SCB->SHP[((PFdword)(IRQn) & 0xF)-4] = ((priorit
 878              		.loc 2 618 31
 879 01e8 9DF80E30 		ldrb	r3, [sp, #14]	@ zero_extendqisi2	@ IRQn.0_78, IRQn
 880 01ec 03F00F03 		and	r3, r3, #15	@ _80, _79,
 881              	@ ../../Include/PrimeFramework/prime_cm3.h:618:     SCB->SHP[((PFdword)(IRQn) & 0xF)-4] = ((priorit
 882              		.loc 2 618 37
 883 01f0 043B     		subs	r3, r3, #4	@ _81, _80,
 884              	@ ../../Include/PrimeFramework/prime_cm3.h:618:     SCB->SHP[((PFdword)(IRQn) & 0xF)-4] = ((priorit
 885              		.loc 2 618 54
 886 01f2 D200     		lsls	r2, r2, #3	@ tmp177, _76,
 887 01f4 D2B2     		uxtb	r2, r2	@ _82, tmp177
 888              	@ ../../Include/PrimeFramework/prime_cm3.h:618:     SCB->SHP[((PFdword)(IRQn) & 0xF)-4] = ((priorit
 889              		.loc 2 618 41
 890 01f6 0B44     		add	r3, r3, r1	@ tmp178, _77
 891 01f8 1A76     		strb	r2, [r3, #24]	@ tmp179, _77->SHP[_81]
 892              	@ ../../Include/PrimeFramework/prime_cm3.h:621: }
 619:../../Include/PrimeFramework/prime_cm3.h ****   else {
 620:../../Include/PrimeFramework/prime_cm3.h ****     NVIC->IP[(PFdword)(IRQn)] = ((priority << (8 - PF_NVIC_PRIO_BITS)) & 0xff);    }        /* set 
 621:../../Include/PrimeFramework/prime_cm3.h **** }
 893              		.loc 2 621 1
 894 01fa 09E0     		b	.L31		@
 895              	.L22:
ARM GAS  C:\Users\Aayush\AppData\Local\Temp\ccPGXf2s.s 			page 36


 896              	@ ../../Include/PrimeFramework/prime_cm3.h:620:     NVIC->IP[(PFdword)(IRQn)] = ((priority << (8 - 
 620:../../Include/PrimeFramework/prime_cm3.h **** }
 897              		.loc 2 620 44
 898 01fc 029B     		ldr	r3, [sp, #8]	@ tmp180, priority
 899 01fe DAB2     		uxtb	r2, r3	@ _83, tmp180
 900              	@ ../../Include/PrimeFramework/prime_cm3.h:620:     NVIC->IP[(PFdword)(IRQn)] = ((priority << (8 - 
 620:../../Include/PrimeFramework/prime_cm3.h **** }
 901              		.loc 2 620 9
 902 0200 4949     		ldr	r1, .L32+152	@ _84,
 903              	@ ../../Include/PrimeFramework/prime_cm3.h:620:     NVIC->IP[(PFdword)(IRQn)] = ((priority << (8 - 
 620:../../Include/PrimeFramework/prime_cm3.h **** }
 904              		.loc 2 620 14
 905 0202 9DF90E30 		ldrsb	r3, [sp, #14]	@ _85, IRQn
 906              	@ ../../Include/PrimeFramework/prime_cm3.h:620:     NVIC->IP[(PFdword)(IRQn)] = ((priority << (8 - 
 620:../../Include/PrimeFramework/prime_cm3.h **** }
 907              		.loc 2 620 44
 908 0206 D200     		lsls	r2, r2, #3	@ tmp181, _83,
 909 0208 D2B2     		uxtb	r2, r2	@ _86, tmp181
 910              	@ ../../Include/PrimeFramework/prime_cm3.h:620:     NVIC->IP[(PFdword)(IRQn)] = ((priority << (8 - 
 620:../../Include/PrimeFramework/prime_cm3.h **** }
 911              		.loc 2 620 31
 912 020a 0B44     		add	r3, r3, r1	@ tmp182, _84
 913 020c 83F80023 		strb	r2, [r3, #768]	@ tmp183, _84->IP[_85]
 914              	.L31:
 915              	@ ../../Include/PrimeFramework/prime_cm3.h:621: }
 916              		.loc 2 621 1
 917 0210 00BF     		nop	
 918              	.LBE5:
 919              	.LBE4:
 920              	@ ../../Source/appInit.c:379:     status = keypadKeyOpen(keypadKeyPortPin, 5);
 375:../../Source/appInit.c **** 	}
 376:../../Source/appInit.c **** 	NVIC_SetPriority (EINT1_IRQn, 1);
 377:../../Source/appInit.c **** 
 378:../../Source/appInit.c **** 	//Keypad initialization
 379:../../Source/appInit.c ****     status = keypadKeyOpen(keypadKeyPortPin, 5);
 921              		.loc 1 379 14
 922 0212 0521     		movs	r1, #5	@,
 923 0214 4548     		ldr	r0, .L32+156	@,
 924 0216 FFF7FEFF 		bl	keypadKeyOpen		@
 925 021a 0346     		mov	r3, r0	@ tmp184,
 926 021c 8DF80F30 		strb	r3, [sp, #15]	@ tmp185, status
 927              	@ ../../Source/appInit.c:380: 	if(status != enStatusSuccess)
 380:../../Source/appInit.c **** 	if(status != enStatusSuccess)
 928              		.loc 1 380 4
 929 0220 9DF80F30 		ldrb	r3, [sp, #15]	@ zero_extendqisi2	@ tmp186, status
 930 0224 002B     		cmp	r3, #0	@ tmp186,
 931 0226 03D0     		beq	.L24		@,
 932              	@ ../../Source/appInit.c:382: 		DEBUG_WRITE("\nKeypad initialization failed.");
 381:../../Source/appInit.c **** 	{
 382:../../Source/appInit.c **** 		DEBUG_WRITE("\nKeypad initialization failed.");
 933              		.loc 1 382 3
 934 0228 4148     		ldr	r0, .L32+160	@,
 935 022a FFF7FEFF 		bl	pfUart0WriteString		@
 936              	.L25:
 937              	@ ../../Source/appInit.c:383: 		while(1);
 383:../../Source/appInit.c **** 		while(1);
 938              		.loc 1 383 8 discriminator 11
ARM GAS  C:\Users\Aayush\AppData\Local\Temp\ccPGXf2s.s 			page 37


 939 022e FEE7     		b	.L25		@
 940              	.L24:
 941              	@ ../../Source/appInit.c:387: 		DEBUG_WRITE("\nKeypad initialized.");
 384:../../Source/appInit.c **** 	}
 385:../../Source/appInit.c **** 	else
 386:../../Source/appInit.c **** 	{
 387:../../Source/appInit.c **** 		DEBUG_WRITE("\nKeypad initialized.");
 942              		.loc 1 387 3
 943 0230 4048     		ldr	r0, .L32+164	@,
 944 0232 FFF7FEFF 		bl	pfUart0WriteString		@
 945              	@ ../../Source/appInit.c:391: 	status = diskOpen(&diskId, (pCfgDisk)&diskCfg);
 388:../../Source/appInit.c **** 	}
 389:../../Source/appInit.c **** 
 390:../../Source/appInit.c **** 	//SDcard initialization
 391:../../Source/appInit.c **** 	status = diskOpen(&diskId, (pCfgDisk)&diskCfg);
 946              		.loc 1 391 11
 947 0236 0DF10703 		add	r3, sp, #7	@ tmp187,,
 948 023a 3F49     		ldr	r1, .L32+168	@,
 949 023c 1846     		mov	r0, r3	@, tmp187
 950 023e FFF7FEFF 		bl	diskOpen		@
 951 0242 0346     		mov	r3, r0	@ tmp188,
 952 0244 8DF80F30 		strb	r3, [sp, #15]	@ tmp189, status
 953              	@ ../../Source/appInit.c:392: 	if(status != enStatusSuccess)
 392:../../Source/appInit.c **** 	if(status != enStatusSuccess)
 954              		.loc 1 392 4
 955 0248 9DF80F30 		ldrb	r3, [sp, #15]	@ zero_extendqisi2	@ tmp190, status
 956 024c 002B     		cmp	r3, #0	@ tmp190,
 957 024e 03D0     		beq	.L26		@,
 958              	@ ../../Source/appInit.c:394: 		DEBUG_WRITE("\nDiskIO initialization failed.");
 393:../../Source/appInit.c **** 	{
 394:../../Source/appInit.c **** 		DEBUG_WRITE("\nDiskIO initialization failed.");
 959              		.loc 1 394 3
 960 0250 3A48     		ldr	r0, .L32+172	@,
 961 0252 FFF7FEFF 		bl	pfUart0WriteString		@
 962              	.L27:
 963              	@ ../../Source/appInit.c:395: 		while(1);
 395:../../Source/appInit.c **** 		while(1);
 964              		.loc 1 395 8 discriminator 12
 965 0256 FEE7     		b	.L27		@
 966              	.L26:
 967              	@ ../../Source/appInit.c:399: 		DEBUG_WRITE("\nDiskIO initialized.");
 396:../../Source/appInit.c **** 	}
 397:../../Source/appInit.c **** 	else
 398:../../Source/appInit.c **** 	{
 399:../../Source/appInit.c **** 		DEBUG_WRITE("\nDiskIO initialized.");
 968              		.loc 1 399 3
 969 0258 3948     		ldr	r0, .L32+176	@,
 970 025a FFF7FEFF 		bl	pfUart0WriteString		@
 971              	@ ../../Source/appInit.c:403: 	status = fsMount(DRIVE_NUM, &fat);
 400:../../Source/appInit.c **** 	}
 401:../../Source/appInit.c **** 
 402:../../Source/appInit.c **** 	//FAT file system initialization
 403:../../Source/appInit.c **** 	status = fsMount(DRIVE_NUM, &fat);
 972              		.loc 1 403 11
 973 025e 3949     		ldr	r1, .L32+180	@,
 974 0260 0020     		movs	r0, #0	@,
 975 0262 FFF7FEFF 		bl	fsMount		@
ARM GAS  C:\Users\Aayush\AppData\Local\Temp\ccPGXf2s.s 			page 38


 976 0266 0346     		mov	r3, r0	@ tmp191,
 977 0268 8DF80F30 		strb	r3, [sp, #15]	@ tmp192, status
 978              	@ ../../Source/appInit.c:404: 	if(status!= enStatusSuccess)
 404:../../Source/appInit.c **** 	if(status!= enStatusSuccess)
 979              		.loc 1 404 4
 980 026c 9DF80F30 		ldrb	r3, [sp, #15]	@ zero_extendqisi2	@ tmp193, status
 981 0270 002B     		cmp	r3, #0	@ tmp193,
 982 0272 03D0     		beq	.L28		@,
 983              	@ ../../Source/appInit.c:406: 		DEBUG_WRITE("\nFatFS initialization failed.");
 405:../../Source/appInit.c **** 	{
 406:../../Source/appInit.c **** 		DEBUG_WRITE("\nFatFS initialization failed.");
 984              		.loc 1 406 3
 985 0274 3448     		ldr	r0, .L32+184	@,
 986 0276 FFF7FEFF 		bl	pfUart0WriteString		@
 987              	.L29:
 988              	@ ../../Source/appInit.c:407: 		while(1);
 407:../../Source/appInit.c **** 		while(1);
 989              		.loc 1 407 8 discriminator 13
 990 027a FEE7     		b	.L29		@
 991              	.L28:
 992              	@ ../../Source/appInit.c:411: 		DEBUG_WRITE("\nFatFS initialized.");
 408:../../Source/appInit.c **** 	}
 409:../../Source/appInit.c **** 	else
 410:../../Source/appInit.c **** 	{
 411:../../Source/appInit.c **** 		DEBUG_WRITE("\nFatFS initialized.");
 993              		.loc 1 411 3
 994 027c 3348     		ldr	r0, .L32+188	@,
 995 027e FFF7FEFF 		bl	pfUart0WriteString		@
 996              	@ ../../Source/appInit.c:414: 	DEBUG_WRITE("\n\nWelcome to Phi Education.\n");
 412:../../Source/appInit.c **** 	}
 413:../../Source/appInit.c ****     
 414:../../Source/appInit.c **** 	DEBUG_WRITE("\n\nWelcome to Phi Education.\n");
 997              		.loc 1 414 2
 998 0282 3348     		ldr	r0, .L32+192	@,
 999 0284 FFF7FEFF 		bl	pfUart0WriteString		@
 1000              	@ ../../Source/appInit.c:415: }
 415:../../Source/appInit.c **** }
 1001              		.loc 1 415 1
 1002 0288 00BF     		nop	
 1003 028a 05B0     		add	sp, sp, #20	@,,
 1004              	.LCFI2:
 1005              		.cfi_def_cfa_offset 4
 1006              		@ sp needed	@
 1007 028c 5DF804FB 		ldr	pc, [sp], #4	@
 1008              	.L33:
 1009              		.align	2
 1010              	.L32:
 1011 0290 00000000 		.word	clkConfig
 1012 0294 00000000 		.word	eduarmUart0GpioCfg
 1013 0298 00000000 		.word	eduarmLcdGpioCfg
 1014 029c 00000000 		.word	eduarmTouchGpioCfg
 1015 02a0 00000000 		.word	eduarmTouchIntGpioCfg
 1016 02a4 00000000 		.word	eduarmSdcardGpioCfg
 1017 02a8 00000000 		.word	eduarmPushButtonGpioCfg
 1018 02ac 00000000 		.word	eduarmMma7660GpioCfg
 1019 02b0 00000000 		.word	eduarmBuzzerGpioCfg
 1020 02b4 00000000 		.word	uart0Config
ARM GAS  C:\Users\Aayush\AppData\Local\Temp\ccPGXf2s.s 			page 39


 1021 02b8 00000000 		.word	ritConfig
 1022 02bc 00000000 		.word	.LC0
 1023 02c0 1C000000 		.word	.LC1
 1024 02c4 00000000 		.word	timer0Config
 1025 02c8 30000000 		.word	.LC2
 1026 02cc 50000000 		.word	.LC3
 1027 02d0 00000000 		.word	spi0Cfg
 1028 02d4 68000000 		.word	.LC4
 1029 02d8 88000000 		.word	.LC5
 1030 02dc 00000000 		.word	i2c0Cfg
 1031 02e0 9C000000 		.word	.LC6
 1032 02e4 BC000000 		.word	.LC7
 1033 02e8 00000000 		.word	buzzerConfig
 1034 02ec D0000000 		.word	.LC8
 1035 02f0 F0000000 		.word	.LC9
 1036 02f4 00000000 		.word	lcdDisplayConfig
 1037 02f8 08010000 		.word	.LC10
 1038 02fc 24010000 		.word	.LC11
 1039 0300 00000000 		.word	touchConfig
 1040 0304 38010000 		.word	.LC12
 1041 0308 5C010000 		.word	.LC13
 1042 030c 00000000 		.word	accelConfig
 1043 0310 78010000 		.word	.LC14
 1044 0314 A0010000 		.word	.LC15
 1045 0318 00000000 		.word	extIntTouchConfig
 1046 031c BC010000 		.word	.LC16
 1047 0320 F0010000 		.word	.LC17
 1048 0324 00ED00E0 		.word	-536810240
 1049 0328 00E100E0 		.word	-536813312
 1050 032c 00000000 		.word	keypadKeyPortPin
 1051 0330 18020000 		.word	.LC18
 1052 0334 38020000 		.word	.LC19
 1053 0338 00000000 		.word	diskCfg
 1054 033c 50020000 		.word	.LC20
 1055 0340 70020000 		.word	.LC21
 1056 0344 00000000 		.word	fat
 1057 0348 88020000 		.word	.LC22
 1058 034c A8020000 		.word	.LC23
 1059 0350 BC020000 		.word	.LC24
 1060              		.cfi_endproc
 1061              	.LFE60:
 1062              		.size	appInit, .-appInit
 1063              		.align	1
 1064              		.global	extIntTouchCallback
 1065              		.syntax unified
 1066              		.thumb
 1067              		.thumb_func
 1068              		.type	extIntTouchCallback, %function
 1069              	extIntTouchCallback:
 1070              	.LFB61:
 416:../../Source/appInit.c **** 
 417:../../Source/appInit.c **** //This function gets called when there is a touch detected on the LCD screen and the
 418:../../Source/appInit.c **** //external interrupt is enabled.
 419:../../Source/appInit.c **** void extIntTouchCallback(void)
 420:../../Source/appInit.c **** {
 1071              		.loc 1 420 1
 1072              		.cfi_startproc
ARM GAS  C:\Users\Aayush\AppData\Local\Temp\ccPGXf2s.s 			page 40


 1073              		@ args = 0, pretend = 0, frame = 0
 1074              		@ frame_needed = 0, uses_anonymous_args = 0
 1075              		@ link register save eliminated.
 1076              	@ ../../Source/appInit.c:422: }
 421:../../Source/appInit.c **** 	//DEBUG_WRITE("\nExtTouchInt");
 422:../../Source/appInit.c **** }
 1077              		.loc 1 422 1
 1078 0354 00BF     		nop	
 1079 0356 7047     		bx	lr	@
 1080              		.cfi_endproc
 1081              	.LFE61:
 1082              		.size	extIntTouchCallback, .-extIntTouchCallback
 1083              	.Letext0:
 1084              		.file 3 "../../Include/PrimeFramework/prime_types.h"
 1085              		.file 4 "../../Include/PrimeFramework/prime_lpc17xx_regmap.h"
 1086              		.file 5 "../../Include/PrimeFramework/prime_sysClk.h"
 1087              		.file 6 "../../Include/PrimeFramework/prime_gpio.h"
 1088              		.file 7 "../../Include/PrimeFramework/prime_uart0.h"
 1089              		.file 8 "../../Include/PrimeFramework/prime_rit.h"
 1090              		.file 9 "../../Include/PrimeFramework/prime_timer0.h"
 1091              		.file 10 "../../Include/PrimeFramework/prime_spi0.h"
 1092              		.file 11 "../../Include/PrimeFramework/prime_i2c0.h"
 1093              		.file 12 "../../Include/PrimeFramework/prime_eint1.h"
 1094              		.file 13 "../../Include/AppHelper/graphics.h"
 1095              		.file 14 "../../Include/AppHelper/touch.h"
 1096              		.file 15 "../../Include/AppHelper/mma7660.h"
 1097              		.file 16 "../../Include/AppHelper/buzzer.h"
 1098              		.file 17 "../../Include/AppHelper/mmc.h"
 1099              		.file 18 "../../Include/AppHelper/diskIo.h"
 1100              		.file 19 "../../Include/AppHelper/fatFs.h"
 1101              		.file 20 "../../Include/eduarmBoardConfig.h"
 1102              		.section	.debug_info,"",%progbits
 1103              	.Ldebug_info0:
 1104 0000 A5170000 		.4byte	0x17a5
 1105 0004 0200     		.2byte	0x2
 1106 0006 00000000 		.4byte	.Ldebug_abbrev0
 1107 000a 04       		.byte	0x4
 1108 000b 01       		.uleb128 0x1
 1109 000c D0050000 		.4byte	.LASF389
 1110 0010 0C       		.byte	0xc
 1111 0011 6B150000 		.4byte	.LASF390
 1112 0015 72000000 		.4byte	.LASF391
 1113 0019 00000000 		.4byte	.Ltext0
 1114 001d 58030000 		.4byte	.Letext0
 1115 0021 00000000 		.4byte	.Ldebug_line0
 1116 0025 02       		.uleb128 0x2
 1117 0026 04       		.byte	0x4
 1118 0027 05       		.byte	0x5
 1119 0028 696E7400 		.ascii	"int\000"
 1120 002c 03       		.uleb128 0x3
 1121 002d 04       		.byte	0x4
 1122 002e 07       		.byte	0x7
 1123 002f F00F0000 		.4byte	.LASF0
 1124 0033 04       		.uleb128 0x4
 1125 0034 04       		.byte	0x4
 1126 0035 03       		.uleb128 0x3
 1127 0036 01       		.byte	0x1
ARM GAS  C:\Users\Aayush\AppData\Local\Temp\ccPGXf2s.s 			page 41


 1128 0037 06       		.byte	0x6
 1129 0038 38140000 		.4byte	.LASF1
 1130 003c 03       		.uleb128 0x3
 1131 003d 01       		.byte	0x1
 1132 003e 08       		.byte	0x8
 1133 003f 4F0D0000 		.4byte	.LASF2
 1134 0043 03       		.uleb128 0x3
 1135 0044 02       		.byte	0x2
 1136 0045 05       		.byte	0x5
 1137 0046 0B0C0000 		.4byte	.LASF3
 1138 004a 03       		.uleb128 0x3
 1139 004b 02       		.byte	0x2
 1140 004c 07       		.byte	0x7
 1141 004d 44140000 		.4byte	.LASF4
 1142 0051 03       		.uleb128 0x3
 1143 0052 04       		.byte	0x4
 1144 0053 05       		.byte	0x5
 1145 0054 3D0E0000 		.4byte	.LASF5
 1146 0058 03       		.uleb128 0x3
 1147 0059 04       		.byte	0x4
 1148 005a 07       		.byte	0x7
 1149 005b DB100000 		.4byte	.LASF6
 1150 005f 03       		.uleb128 0x3
 1151 0060 08       		.byte	0x8
 1152 0061 05       		.byte	0x5
 1153 0062 2B0A0000 		.4byte	.LASF7
 1154 0066 03       		.uleb128 0x3
 1155 0067 08       		.byte	0x8
 1156 0068 07       		.byte	0x7
 1157 0069 35040000 		.4byte	.LASF8
 1158 006d 05       		.uleb128 0x5
 1159 006e ED100000 		.4byte	.LASF9
 1160 0072 03       		.byte	0x3
 1161 0073 3B       		.byte	0x3b
 1162 0074 1D       		.byte	0x1d
 1163 0075 3C000000 		.4byte	0x3c
 1164 0079 06       		.uleb128 0x6
 1165 007a 6D000000 		.4byte	0x6d
 1166 007e 07       		.uleb128 0x7
 1167 007f 6D000000 		.4byte	0x6d
 1168 0083 05       		.uleb128 0x5
 1169 0084 D4080000 		.4byte	.LASF10
 1170 0088 03       		.byte	0x3
 1171 0089 3F       		.byte	0x3f
 1172 008a 1D       		.byte	0x1d
 1173 008b 4A000000 		.4byte	0x4a
 1174 008f 05       		.uleb128 0x5
 1175 0090 F2120000 		.4byte	.LASF11
 1176 0094 03       		.byte	0x3
 1177 0095 43       		.byte	0x43
 1178 0096 1D       		.byte	0x1d
 1179 0097 58000000 		.4byte	0x58
 1180 009b 06       		.uleb128 0x6
 1181 009c 8F000000 		.4byte	0x8f
 1182 00a0 07       		.uleb128 0x7
 1183 00a1 9B000000 		.4byte	0x9b
 1184 00a5 03       		.uleb128 0x3
ARM GAS  C:\Users\Aayush\AppData\Local\Temp\ccPGXf2s.s 			page 42


 1185 00a6 04       		.byte	0x4
 1186 00a7 04       		.byte	0x4
 1187 00a8 F9030000 		.4byte	.LASF12
 1188 00ac 03       		.uleb128 0x3
 1189 00ad 08       		.byte	0x8
 1190 00ae 04       		.byte	0x4
 1191 00af 2C070000 		.4byte	.LASF13
 1192 00b3 08       		.uleb128 0x8
 1193 00b4 07       		.byte	0x7
 1194 00b5 01       		.byte	0x1
 1195 00b6 3C000000 		.4byte	0x3c
 1196 00ba 03       		.byte	0x3
 1197 00bb F3       		.byte	0xf3
 1198 00bc 01       		.byte	0x1
 1199 00bd 82010000 		.4byte	0x182
 1200 00c1 09       		.uleb128 0x9
 1201 00c2 0E150000 		.4byte	.LASF14
 1202 00c6 00       		.byte	0
 1203 00c7 09       		.uleb128 0x9
 1204 00c8 A2030000 		.4byte	.LASF15
 1205 00cc 01       		.byte	0x1
 1206 00cd 09       		.uleb128 0x9
 1207 00ce 860B0000 		.4byte	.LASF16
 1208 00d2 02       		.byte	0x2
 1209 00d3 09       		.uleb128 0x9
 1210 00d4 FA0B0000 		.4byte	.LASF17
 1211 00d8 03       		.byte	0x3
 1212 00d9 09       		.uleb128 0x9
 1213 00da 6A120000 		.4byte	.LASF18
 1214 00de 04       		.byte	0x4
 1215 00df 09       		.uleb128 0x9
 1216 00e0 4E110000 		.4byte	.LASF19
 1217 00e4 05       		.byte	0x5
 1218 00e5 09       		.uleb128 0x9
 1219 00e6 A0070000 		.4byte	.LASF20
 1220 00ea 06       		.byte	0x6
 1221 00eb 09       		.uleb128 0x9
 1222 00ec 6E160000 		.4byte	.LASF21
 1223 00f0 07       		.byte	0x7
 1224 00f1 09       		.uleb128 0x9
 1225 00f2 B7060000 		.4byte	.LASF22
 1226 00f6 08       		.byte	0x8
 1227 00f7 09       		.uleb128 0x9
 1228 00f8 6F010000 		.4byte	.LASF23
 1229 00fc 09       		.byte	0x9
 1230 00fd 09       		.uleb128 0x9
 1231 00fe 23050000 		.4byte	.LASF24
 1232 0102 0A       		.byte	0xa
 1233 0103 09       		.uleb128 0x9
 1234 0104 A8000000 		.4byte	.LASF25
 1235 0108 0B       		.byte	0xb
 1236 0109 09       		.uleb128 0x9
 1237 010a C3110000 		.4byte	.LASF26
 1238 010e 0C       		.byte	0xc
 1239 010f 09       		.uleb128 0x9
 1240 0110 230C0000 		.4byte	.LASF27
 1241 0114 0D       		.byte	0xd
ARM GAS  C:\Users\Aayush\AppData\Local\Temp\ccPGXf2s.s 			page 43


 1242 0115 09       		.uleb128 0x9
 1243 0116 9E0F0000 		.4byte	.LASF28
 1244 011a 0E       		.byte	0xe
 1245 011b 09       		.uleb128 0x9
 1246 011c C80E0000 		.4byte	.LASF29
 1247 0120 0F       		.byte	0xf
 1248 0121 09       		.uleb128 0x9
 1249 0122 FA120000 		.4byte	.LASF30
 1250 0126 10       		.byte	0x10
 1251 0127 09       		.uleb128 0x9
 1252 0128 770B0000 		.4byte	.LASF31
 1253 012c 11       		.byte	0x11
 1254 012d 09       		.uleb128 0x9
 1255 012e E90D0000 		.4byte	.LASF32
 1256 0132 12       		.byte	0x12
 1257 0133 09       		.uleb128 0x9
 1258 0134 6E020000 		.4byte	.LASF33
 1259 0138 13       		.byte	0x13
 1260 0139 09       		.uleb128 0x9
 1261 013a 8C0E0000 		.4byte	.LASF34
 1262 013e 14       		.byte	0x14
 1263 013f 09       		.uleb128 0x9
 1264 0140 41160000 		.4byte	.LASF35
 1265 0144 15       		.byte	0x15
 1266 0145 09       		.uleb128 0x9
 1267 0146 3F080000 		.4byte	.LASF36
 1268 014a 16       		.byte	0x16
 1269 014b 09       		.uleb128 0x9
 1270 014c 4C0F0000 		.4byte	.LASF37
 1271 0150 17       		.byte	0x17
 1272 0151 09       		.uleb128 0x9
 1273 0152 B9120000 		.4byte	.LASF38
 1274 0156 18       		.byte	0x18
 1275 0157 09       		.uleb128 0x9
 1276 0158 A9160000 		.4byte	.LASF39
 1277 015c 19       		.byte	0x19
 1278 015d 09       		.uleb128 0x9
 1279 015e A6090000 		.4byte	.LASF40
 1280 0162 1A       		.byte	0x1a
 1281 0163 09       		.uleb128 0x9
 1282 0164 87070000 		.4byte	.LASF41
 1283 0168 1B       		.byte	0x1b
 1284 0169 09       		.uleb128 0x9
 1285 016a 6E0C0000 		.4byte	.LASF42
 1286 016e 1C       		.byte	0x1c
 1287 016f 09       		.uleb128 0x9
 1288 0170 67040000 		.4byte	.LASF43
 1289 0174 1D       		.byte	0x1d
 1290 0175 09       		.uleb128 0x9
 1291 0176 A50C0000 		.4byte	.LASF44
 1292 017a 1E       		.byte	0x1e
 1293 017b 09       		.uleb128 0x9
 1294 017c C90A0000 		.4byte	.LASF45
 1295 0180 1F       		.byte	0x1f
 1296 0181 00       		.byte	0
 1297 0182 0A       		.uleb128 0xa
 1298 0183 DC040000 		.4byte	.LASF46
ARM GAS  C:\Users\Aayush\AppData\Local\Temp\ccPGXf2s.s 			page 44


 1299 0187 03       		.byte	0x3
 1300 0188 1601     		.2byte	0x116
 1301 018a 03       		.byte	0x3
 1302 018b B3000000 		.4byte	0xb3
 1303 018f 0B       		.uleb128 0xb
 1304 0190 07       		.byte	0x7
 1305 0191 01       		.byte	0x1
 1306 0192 3C000000 		.4byte	0x3c
 1307 0196 03       		.byte	0x3
 1308 0197 1C01     		.2byte	0x11c
 1309 0199 01       		.byte	0x1
 1310 019a AB010000 		.4byte	0x1ab
 1311 019e 09       		.uleb128 0x9
 1312 019f 960B0000 		.4byte	.LASF47
 1313 01a3 00       		.byte	0
 1314 01a4 09       		.uleb128 0x9
 1315 01a5 00000000 		.4byte	.LASF48
 1316 01a9 01       		.byte	0x1
 1317 01aa 00       		.byte	0
 1318 01ab 0A       		.uleb128 0xa
 1319 01ac 690A0000 		.4byte	.LASF49
 1320 01b0 03       		.byte	0x3
 1321 01b1 1F01     		.2byte	0x11f
 1322 01b3 03       		.byte	0x3
 1323 01b4 8F010000 		.4byte	0x18f
 1324 01b8 0A       		.uleb128 0xa
 1325 01b9 AC060000 		.4byte	.LASF50
 1326 01bd 03       		.byte	0x3
 1327 01be 3001     		.2byte	0x130
 1328 01c0 10       		.byte	0x10
 1329 01c1 C5010000 		.4byte	0x1c5
 1330 01c5 0C       		.uleb128 0xc
 1331 01c6 04       		.byte	0x4
 1332 01c7 CB010000 		.4byte	0x1cb
 1333 01cb 0D       		.uleb128 0xd
 1334 01cc 01       		.byte	0x1
 1335 01cd 08       		.uleb128 0x8
 1336 01ce 05       		.byte	0x5
 1337 01cf 01       		.byte	0x1
 1338 01d0 35000000 		.4byte	0x35
 1339 01d4 04       		.byte	0x4
 1340 01d5 1F       		.byte	0x1f
 1341 01d6 01       		.byte	0x1
 1342 01d7 EA020000 		.4byte	0x2ea
 1343 01db 0E       		.uleb128 0xe
 1344 01dc 8B130000 		.4byte	.LASF51
 1345 01e0 71       		.sleb128 -15
 1346 01e1 0E       		.uleb128 0xe
 1347 01e2 060F0000 		.4byte	.LASF52
 1348 01e6 72       		.sleb128 -14
 1349 01e7 0E       		.uleb128 0xe
 1350 01e8 A1140000 		.4byte	.LASF53
 1351 01ec 73       		.sleb128 -13
 1352 01ed 0E       		.uleb128 0xe
 1353 01ee 360F0000 		.4byte	.LASF54
 1354 01f2 74       		.sleb128 -12
 1355 01f3 0E       		.uleb128 0xe
ARM GAS  C:\Users\Aayush\AppData\Local\Temp\ccPGXf2s.s 			page 45


 1356 01f4 150C0000 		.4byte	.LASF55
 1357 01f8 75       		.sleb128 -11
 1358 01f9 0E       		.uleb128 0xe
 1359 01fa FB110000 		.4byte	.LASF56
 1360 01fe 76       		.sleb128 -10
 1361 01ff 0E       		.uleb128 0xe
 1362 0200 7F120000 		.4byte	.LASF57
 1363 0204 7B       		.sleb128 -5
 1364 0205 0E       		.uleb128 0xe
 1365 0206 E9110000 		.4byte	.LASF58
 1366 020a 7C       		.sleb128 -4
 1367 020b 0E       		.uleb128 0xe
 1368 020c 00030000 		.4byte	.LASF59
 1369 0210 7E       		.sleb128 -2
 1370 0211 0E       		.uleb128 0xe
 1371 0212 9D100000 		.4byte	.LASF60
 1372 0216 7F       		.sleb128 -1
 1373 0217 09       		.uleb128 0x9
 1374 0218 39120000 		.4byte	.LASF61
 1375 021c 00       		.byte	0
 1376 021d 09       		.uleb128 0x9
 1377 021e AF0B0000 		.4byte	.LASF62
 1378 0222 01       		.byte	0x1
 1379 0223 09       		.uleb128 0x9
 1380 0224 E3010000 		.4byte	.LASF63
 1381 0228 02       		.byte	0x2
 1382 0229 09       		.uleb128 0x9
 1383 022a 7C0F0000 		.4byte	.LASF64
 1384 022e 03       		.byte	0x3
 1385 022f 09       		.uleb128 0x9
 1386 0230 F9070000 		.4byte	.LASF65
 1387 0234 04       		.byte	0x4
 1388 0235 09       		.uleb128 0x9
 1389 0236 BD0E0000 		.4byte	.LASF66
 1390 023a 05       		.byte	0x5
 1391 023b 09       		.uleb128 0x9
 1392 023c A9040000 		.4byte	.LASF67
 1393 0240 06       		.byte	0x6
 1394 0241 09       		.uleb128 0x9
 1395 0242 3D130000 		.4byte	.LASF68
 1396 0246 07       		.byte	0x7
 1397 0247 09       		.uleb128 0x9
 1398 0248 E70A0000 		.4byte	.LASF69
 1399 024c 08       		.byte	0x8
 1400 024d 09       		.uleb128 0x9
 1401 024e 6F130000 		.4byte	.LASF70
 1402 0252 09       		.byte	0x9
 1403 0253 09       		.uleb128 0x9
 1404 0254 AF0A0000 		.4byte	.LASF71
 1405 0258 0A       		.byte	0xa
 1406 0259 09       		.uleb128 0x9
 1407 025a B00F0000 		.4byte	.LASF72
 1408 025e 0B       		.byte	0xb
 1409 025f 09       		.uleb128 0x9
 1410 0260 D1100000 		.4byte	.LASF73
 1411 0264 0C       		.byte	0xc
 1412 0265 09       		.uleb128 0x9
ARM GAS  C:\Users\Aayush\AppData\Local\Temp\ccPGXf2s.s 			page 46


 1413 0266 72080000 		.4byte	.LASF74
 1414 026a 0D       		.byte	0xd
 1415 026b 09       		.uleb128 0x9
 1416 026c CE120000 		.4byte	.LASF75
 1417 0270 0E       		.byte	0xe
 1418 0271 09       		.uleb128 0x9
 1419 0272 C6030000 		.4byte	.LASF76
 1420 0276 0F       		.byte	0xf
 1421 0277 09       		.uleb128 0x9
 1422 0278 5D000000 		.4byte	.LASF77
 1423 027c 10       		.byte	0x10
 1424 027d 09       		.uleb128 0x9
 1425 027e 680D0000 		.4byte	.LASF78
 1426 0282 11       		.byte	0x11
 1427 0283 09       		.uleb128 0x9
 1428 0284 E50F0000 		.4byte	.LASF79
 1429 0288 12       		.byte	0x12
 1430 0289 09       		.uleb128 0x9
 1431 028a FD0F0000 		.4byte	.LASF80
 1432 028e 13       		.byte	0x13
 1433 028f 09       		.uleb128 0x9
 1434 0290 67000000 		.4byte	.LASF81
 1435 0294 14       		.byte	0x14
 1436 0295 09       		.uleb128 0x9
 1437 0296 EF010000 		.4byte	.LASF82
 1438 029a 15       		.byte	0x15
 1439 029b 09       		.uleb128 0x9
 1440 029c F10B0000 		.4byte	.LASF83
 1441 02a0 16       		.byte	0x16
 1442 02a1 09       		.uleb128 0x9
 1443 02a2 340C0000 		.4byte	.LASF84
 1444 02a6 17       		.byte	0x17
 1445 02a7 09       		.uleb128 0x9
 1446 02a8 3D0C0000 		.4byte	.LASF85
 1447 02ac 18       		.byte	0x18
 1448 02ad 09       		.uleb128 0x9
 1449 02ae 5E040000 		.4byte	.LASF86
 1450 02b2 19       		.byte	0x19
 1451 02b3 09       		.uleb128 0x9
 1452 02b4 55080000 		.4byte	.LASF87
 1453 02b8 1A       		.byte	0x1a
 1454 02b9 09       		.uleb128 0x9
 1455 02ba FA010000 		.4byte	.LASF88
 1456 02be 1B       		.byte	0x1b
 1457 02bf 09       		.uleb128 0x9
 1458 02c0 5F0A0000 		.4byte	.LASF89
 1459 02c4 1C       		.byte	0x1c
 1460 02c5 09       		.uleb128 0x9
 1461 02c6 AA100000 		.4byte	.LASF90
 1462 02ca 1D       		.byte	0x1d
 1463 02cb 09       		.uleb128 0x9
 1464 02cc D8120000 		.4byte	.LASF91
 1465 02d0 1E       		.byte	0x1e
 1466 02d1 09       		.uleb128 0x9
 1467 02d2 5B0B0000 		.4byte	.LASF92
 1468 02d6 1F       		.byte	0x1f
 1469 02d7 09       		.uleb128 0x9
ARM GAS  C:\Users\Aayush\AppData\Local\Temp\ccPGXf2s.s 			page 47


 1470 02d8 A50B0000 		.4byte	.LASF93
 1471 02dc 20       		.byte	0x20
 1472 02dd 09       		.uleb128 0x9
 1473 02de 8B0C0000 		.4byte	.LASF94
 1474 02e2 21       		.byte	0x21
 1475 02e3 09       		.uleb128 0x9
 1476 02e4 B5020000 		.4byte	.LASF95
 1477 02e8 22       		.byte	0x22
 1478 02e9 00       		.byte	0
 1479 02ea 05       		.uleb128 0x5
 1480 02eb 4E090000 		.4byte	.LASF96
 1481 02ef 04       		.byte	0x4
 1482 02f0 50       		.byte	0x50
 1483 02f1 03       		.byte	0x3
 1484 02f2 CD010000 		.4byte	0x1cd
 1485 02f6 0F       		.uleb128 0xf
 1486 02f7 040E     		.2byte	0xe04
 1487 02f9 04       		.byte	0x4
 1488 02fa 53       		.byte	0x53
 1489 02fb 09       		.byte	0x9
 1490 02fc CE030000 		.4byte	0x3ce
 1491 0300 10       		.uleb128 0x10
 1492 0301 E0030000 		.4byte	.LASF97
 1493 0305 04       		.byte	0x4
 1494 0306 55       		.byte	0x55
 1495 0307 0F       		.byte	0xf
 1496 0308 DE030000 		.4byte	0x3de
 1497 030c 02       		.byte	0x2
 1498 030d 23       		.byte	0x23
 1499 030e 00       		.uleb128 0
 1500 030f 10       		.uleb128 0x10
 1501 0310 910D0000 		.4byte	.LASF98
 1502 0314 04       		.byte	0x4
 1503 0315 56       		.byte	0x56
 1504 0316 10       		.byte	0x10
 1505 0317 E3030000 		.4byte	0x3e3
 1506 031b 02       		.byte	0x2
 1507 031c 23       		.byte	0x23
 1508 031d 20       		.uleb128 0x20
 1509 031e 10       		.uleb128 0x10
 1510 031f E3120000 		.4byte	.LASF99
 1511 0323 04       		.byte	0x4
 1512 0324 57       		.byte	0x57
 1513 0325 0F       		.byte	0xf
 1514 0326 DE030000 		.4byte	0x3de
 1515 032a 03       		.byte	0x3
 1516 032b 23       		.byte	0x23
 1517 032c 8001     		.uleb128 0x80
 1518 032e 10       		.uleb128 0x10
 1519 032f 2C040000 		.4byte	.LASF100
 1520 0333 04       		.byte	0x4
 1521 0334 58       		.byte	0x58
 1522 0335 10       		.byte	0x10
 1523 0336 E3030000 		.4byte	0x3e3
 1524 033a 03       		.byte	0x3
 1525 033b 23       		.byte	0x23
 1526 033c A001     		.uleb128 0xa0
ARM GAS  C:\Users\Aayush\AppData\Local\Temp\ccPGXf2s.s 			page 48


 1527 033e 10       		.uleb128 0x10
 1528 033f FF140000 		.4byte	.LASF101
 1529 0343 04       		.byte	0x4
 1530 0344 59       		.byte	0x59
 1531 0345 0F       		.byte	0xf
 1532 0346 DE030000 		.4byte	0x3de
 1533 034a 03       		.byte	0x3
 1534 034b 23       		.byte	0x23
 1535 034c 8002     		.uleb128 0x100
 1536 034e 10       		.uleb128 0x10
 1537 034f 61150000 		.4byte	.LASF102
 1538 0353 04       		.byte	0x4
 1539 0354 5A       		.byte	0x5a
 1540 0355 10       		.byte	0x10
 1541 0356 E3030000 		.4byte	0x3e3
 1542 035a 03       		.byte	0x3
 1543 035b 23       		.byte	0x23
 1544 035c A002     		.uleb128 0x120
 1545 035e 10       		.uleb128 0x10
 1546 035f 860C0000 		.4byte	.LASF103
 1547 0363 04       		.byte	0x4
 1548 0364 5B       		.byte	0x5b
 1549 0365 0F       		.byte	0xf
 1550 0366 DE030000 		.4byte	0x3de
 1551 036a 03       		.byte	0x3
 1552 036b 23       		.byte	0x23
 1553 036c 8003     		.uleb128 0x180
 1554 036e 10       		.uleb128 0x10
 1555 036f 82150000 		.4byte	.LASF104
 1556 0373 04       		.byte	0x4
 1557 0374 5C       		.byte	0x5c
 1558 0375 10       		.byte	0x10
 1559 0376 E3030000 		.4byte	0x3e3
 1560 037a 03       		.byte	0x3
 1561 037b 23       		.byte	0x23
 1562 037c A003     		.uleb128 0x1a0
 1563 037e 10       		.uleb128 0x10
 1564 037f 38130000 		.4byte	.LASF105
 1565 0383 04       		.byte	0x4
 1566 0384 5D       		.byte	0x5d
 1567 0385 0F       		.byte	0xf
 1568 0386 DE030000 		.4byte	0x3de
 1569 038a 03       		.byte	0x3
 1570 038b 23       		.byte	0x23
 1571 038c 8004     		.uleb128 0x200
 1572 038e 10       		.uleb128 0x10
 1573 038f D50D0000 		.4byte	.LASF106
 1574 0393 04       		.byte	0x4
 1575 0394 5E       		.byte	0x5e
 1576 0395 10       		.byte	0x10
 1577 0396 F3030000 		.4byte	0x3f3
 1578 039a 03       		.byte	0x3
 1579 039b 23       		.byte	0x23
 1580 039c A004     		.uleb128 0x220
 1581 039e 11       		.uleb128 0x11
 1582 039f 495000   		.ascii	"IP\000"
 1583 03a2 04       		.byte	0x4
ARM GAS  C:\Users\Aayush\AppData\Local\Temp\ccPGXf2s.s 			page 49


 1584 03a3 5F       		.byte	0x5f
 1585 03a4 0F       		.byte	0xf
 1586 03a5 13040000 		.4byte	0x413
 1587 03a9 03       		.byte	0x3
 1588 03aa 23       		.byte	0x23
 1589 03ab 8006     		.uleb128 0x300
 1590 03ad 10       		.uleb128 0x10
 1591 03ae DF0D0000 		.4byte	.LASF107
 1592 03b2 04       		.byte	0x4
 1593 03b3 60       		.byte	0x60
 1594 03b4 10       		.byte	0x10
 1595 03b5 18040000 		.4byte	0x418
 1596 03b9 03       		.byte	0x3
 1597 03ba 23       		.byte	0x23
 1598 03bb F007     		.uleb128 0x3f0
 1599 03bd 10       		.uleb128 0x10
 1600 03be 160D0000 		.4byte	.LASF108
 1601 03c2 04       		.byte	0x4
 1602 03c3 61       		.byte	0x61
 1603 03c4 0F       		.byte	0xf
 1604 03c5 9B000000 		.4byte	0x9b
 1605 03c9 03       		.byte	0x3
 1606 03ca 23       		.byte	0x23
 1607 03cb 801C     		.uleb128 0xe00
 1608 03cd 00       		.byte	0
 1609 03ce 12       		.uleb128 0x12
 1610 03cf 9B000000 		.4byte	0x9b
 1611 03d3 DE030000 		.4byte	0x3de
 1612 03d7 13       		.uleb128 0x13
 1613 03d8 2C000000 		.4byte	0x2c
 1614 03dc 07       		.byte	0x7
 1615 03dd 00       		.byte	0
 1616 03de 06       		.uleb128 0x6
 1617 03df CE030000 		.4byte	0x3ce
 1618 03e3 12       		.uleb128 0x12
 1619 03e4 8F000000 		.4byte	0x8f
 1620 03e8 F3030000 		.4byte	0x3f3
 1621 03ec 13       		.uleb128 0x13
 1622 03ed 2C000000 		.4byte	0x2c
 1623 03f1 17       		.byte	0x17
 1624 03f2 00       		.byte	0
 1625 03f3 12       		.uleb128 0x12
 1626 03f4 8F000000 		.4byte	0x8f
 1627 03f8 03040000 		.4byte	0x403
 1628 03fc 13       		.uleb128 0x13
 1629 03fd 2C000000 		.4byte	0x2c
 1630 0401 37       		.byte	0x37
 1631 0402 00       		.byte	0
 1632 0403 12       		.uleb128 0x12
 1633 0404 79000000 		.4byte	0x79
 1634 0408 13040000 		.4byte	0x413
 1635 040c 13       		.uleb128 0x13
 1636 040d 2C000000 		.4byte	0x2c
 1637 0411 EF       		.byte	0xef
 1638 0412 00       		.byte	0
 1639 0413 06       		.uleb128 0x6
 1640 0414 03040000 		.4byte	0x403
ARM GAS  C:\Users\Aayush\AppData\Local\Temp\ccPGXf2s.s 			page 50


 1641 0418 12       		.uleb128 0x12
 1642 0419 8F000000 		.4byte	0x8f
 1643 041d 29040000 		.4byte	0x429
 1644 0421 14       		.uleb128 0x14
 1645 0422 2C000000 		.4byte	0x2c
 1646 0426 8302     		.2byte	0x283
 1647 0428 00       		.byte	0
 1648 0429 05       		.uleb128 0x5
 1649 042a BA0F0000 		.4byte	.LASF109
 1650 042e 04       		.byte	0x4
 1651 042f 62       		.byte	0x62
 1652 0430 04       		.byte	0x4
 1653 0431 F6020000 		.4byte	0x2f6
 1654 0435 15       		.uleb128 0x15
 1655 0436 74       		.byte	0x74
 1656 0437 04       		.byte	0x4
 1657 0438 65       		.byte	0x65
 1658 0439 09       		.byte	0x9
 1659 043a 5C050000 		.4byte	0x55c
 1660 043e 10       		.uleb128 0x10
 1661 043f 14070000 		.4byte	.LASF110
 1662 0443 04       		.byte	0x4
 1663 0444 67       		.byte	0x67
 1664 0445 0F       		.byte	0xf
 1665 0446 A0000000 		.4byte	0xa0
 1666 044a 02       		.byte	0x2
 1667 044b 23       		.byte	0x23
 1668 044c 00       		.uleb128 0
 1669 044d 10       		.uleb128 0x10
 1670 044e CC100000 		.4byte	.LASF111
 1671 0452 04       		.byte	0x4
 1672 0453 68       		.byte	0x68
 1673 0454 0F       		.byte	0xf
 1674 0455 9B000000 		.4byte	0x9b
 1675 0459 02       		.byte	0x2
 1676 045a 23       		.byte	0x23
 1677 045b 04       		.uleb128 0x4
 1678 045c 10       		.uleb128 0x10
 1679 045d 12100000 		.4byte	.LASF112
 1680 0461 04       		.byte	0x4
 1681 0462 69       		.byte	0x69
 1682 0463 0F       		.byte	0xf
 1683 0464 9B000000 		.4byte	0x9b
 1684 0468 02       		.byte	0x2
 1685 0469 23       		.byte	0x23
 1686 046a 08       		.uleb128 0x8
 1687 046b 10       		.uleb128 0x10
 1688 046c B9080000 		.4byte	.LASF113
 1689 0470 04       		.byte	0x4
 1690 0471 6A       		.byte	0x6a
 1691 0472 0F       		.byte	0xf
 1692 0473 9B000000 		.4byte	0x9b
 1693 0477 02       		.byte	0x2
 1694 0478 23       		.byte	0x23
 1695 0479 0C       		.uleb128 0xc
 1696 047a 11       		.uleb128 0x11
 1697 047b 53435200 		.ascii	"SCR\000"
ARM GAS  C:\Users\Aayush\AppData\Local\Temp\ccPGXf2s.s 			page 51


 1698 047f 04       		.byte	0x4
 1699 0480 6B       		.byte	0x6b
 1700 0481 0F       		.byte	0xf
 1701 0482 9B000000 		.4byte	0x9b
 1702 0486 02       		.byte	0x2
 1703 0487 23       		.byte	0x23
 1704 0488 10       		.uleb128 0x10
 1705 0489 11       		.uleb128 0x11
 1706 048a 43435200 		.ascii	"CCR\000"
 1707 048e 04       		.byte	0x4
 1708 048f 6C       		.byte	0x6c
 1709 0490 0F       		.byte	0xf
 1710 0491 9B000000 		.4byte	0x9b
 1711 0495 02       		.byte	0x2
 1712 0496 23       		.byte	0x23
 1713 0497 14       		.uleb128 0x14
 1714 0498 11       		.uleb128 0x11
 1715 0499 53485000 		.ascii	"SHP\000"
 1716 049d 04       		.byte	0x4
 1717 049e 6D       		.byte	0x6d
 1718 049f 0F       		.byte	0xf
 1719 04a0 6C050000 		.4byte	0x56c
 1720 04a4 02       		.byte	0x2
 1721 04a5 23       		.byte	0x23
 1722 04a6 18       		.uleb128 0x18
 1723 04a7 10       		.uleb128 0x10
 1724 04a8 BD0D0000 		.4byte	.LASF114
 1725 04ac 04       		.byte	0x4
 1726 04ad 6E       		.byte	0x6e
 1727 04ae 0F       		.byte	0xf
 1728 04af 9B000000 		.4byte	0x9b
 1729 04b3 02       		.byte	0x2
 1730 04b4 23       		.byte	0x23
 1731 04b5 24       		.uleb128 0x24
 1732 04b6 10       		.uleb128 0x10
 1733 04b7 E20A0000 		.4byte	.LASF115
 1734 04bb 04       		.byte	0x4
 1735 04bc 6F       		.byte	0x6f
 1736 04bd 0F       		.byte	0xf
 1737 04be 9B000000 		.4byte	0x9b
 1738 04c2 02       		.byte	0x2
 1739 04c3 23       		.byte	0x23
 1740 04c4 28       		.uleb128 0x28
 1741 04c5 10       		.uleb128 0x10
 1742 04c6 7B080000 		.4byte	.LASF116
 1743 04ca 04       		.byte	0x4
 1744 04cb 70       		.byte	0x70
 1745 04cc 0F       		.byte	0xf
 1746 04cd 9B000000 		.4byte	0x9b
 1747 04d1 02       		.byte	0x2
 1748 04d2 23       		.byte	0x23
 1749 04d3 2C       		.uleb128 0x2c
 1750 04d4 10       		.uleb128 0x10
 1751 04d5 DE010000 		.4byte	.LASF117
 1752 04d9 04       		.byte	0x4
 1753 04da 71       		.byte	0x71
 1754 04db 0F       		.byte	0xf
ARM GAS  C:\Users\Aayush\AppData\Local\Temp\ccPGXf2s.s 			page 52


 1755 04dc 9B000000 		.4byte	0x9b
 1756 04e0 02       		.byte	0x2
 1757 04e1 23       		.byte	0x23
 1758 04e2 30       		.uleb128 0x30
 1759 04e3 10       		.uleb128 0x10
 1760 04e4 490D0000 		.4byte	.LASF118
 1761 04e8 04       		.byte	0x4
 1762 04e9 72       		.byte	0x72
 1763 04ea 0F       		.byte	0xf
 1764 04eb 9B000000 		.4byte	0x9b
 1765 04ef 02       		.byte	0x2
 1766 04f0 23       		.byte	0x23
 1767 04f1 34       		.uleb128 0x34
 1768 04f2 10       		.uleb128 0x10
 1769 04f3 E00F0000 		.4byte	.LASF119
 1770 04f7 04       		.byte	0x4
 1771 04f8 73       		.byte	0x73
 1772 04f9 0F       		.byte	0xf
 1773 04fa 9B000000 		.4byte	0x9b
 1774 04fe 02       		.byte	0x2
 1775 04ff 23       		.byte	0x23
 1776 0500 38       		.uleb128 0x38
 1777 0501 10       		.uleb128 0x10
 1778 0502 9B070000 		.4byte	.LASF120
 1779 0506 04       		.byte	0x4
 1780 0507 74       		.byte	0x74
 1781 0508 0F       		.byte	0xf
 1782 0509 9B000000 		.4byte	0x9b
 1783 050d 02       		.byte	0x2
 1784 050e 23       		.byte	0x23
 1785 050f 3C       		.uleb128 0x3c
 1786 0510 11       		.uleb128 0x11
 1787 0511 50465200 		.ascii	"PFR\000"
 1788 0515 04       		.byte	0x4
 1789 0516 75       		.byte	0x75
 1790 0517 0F       		.byte	0xf
 1791 0518 86050000 		.4byte	0x586
 1792 051c 02       		.byte	0x2
 1793 051d 23       		.byte	0x23
 1794 051e 40       		.uleb128 0x40
 1795 051f 11       		.uleb128 0x11
 1796 0520 44465200 		.ascii	"DFR\000"
 1797 0524 04       		.byte	0x4
 1798 0525 76       		.byte	0x76
 1799 0526 0F       		.byte	0xf
 1800 0527 A0000000 		.4byte	0xa0
 1801 052b 02       		.byte	0x2
 1802 052c 23       		.byte	0x23
 1803 052d 48       		.uleb128 0x48
 1804 052e 11       		.uleb128 0x11
 1805 052f 41445200 		.ascii	"ADR\000"
 1806 0533 04       		.byte	0x4
 1807 0534 77       		.byte	0x77
 1808 0535 0F       		.byte	0xf
 1809 0536 A0000000 		.4byte	0xa0
 1810 053a 02       		.byte	0x2
 1811 053b 23       		.byte	0x23
ARM GAS  C:\Users\Aayush\AppData\Local\Temp\ccPGXf2s.s 			page 53


 1812 053c 4C       		.uleb128 0x4c
 1813 053d 10       		.uleb128 0x10
 1814 053e DB030000 		.4byte	.LASF121
 1815 0542 04       		.byte	0x4
 1816 0543 78       		.byte	0x78
 1817 0544 0F       		.byte	0xf
 1818 0545 A0050000 		.4byte	0x5a0
 1819 0549 02       		.byte	0x2
 1820 054a 23       		.byte	0x23
 1821 054b 50       		.uleb128 0x50
 1822 054c 10       		.uleb128 0x10
 1823 054d 5C150000 		.4byte	.LASF122
 1824 0551 04       		.byte	0x4
 1825 0552 79       		.byte	0x79
 1826 0553 0F       		.byte	0xf
 1827 0554 BA050000 		.4byte	0x5ba
 1828 0558 02       		.byte	0x2
 1829 0559 23       		.byte	0x23
 1830 055a 60       		.uleb128 0x60
 1831 055b 00       		.byte	0
 1832 055c 12       		.uleb128 0x12
 1833 055d 79000000 		.4byte	0x79
 1834 0561 6C050000 		.4byte	0x56c
 1835 0565 13       		.uleb128 0x13
 1836 0566 2C000000 		.4byte	0x2c
 1837 056a 0B       		.byte	0xb
 1838 056b 00       		.byte	0
 1839 056c 06       		.uleb128 0x6
 1840 056d 5C050000 		.4byte	0x55c
 1841 0571 12       		.uleb128 0x12
 1842 0572 A0000000 		.4byte	0xa0
 1843 0576 81050000 		.4byte	0x581
 1844 057a 13       		.uleb128 0x13
 1845 057b 2C000000 		.4byte	0x2c
 1846 057f 01       		.byte	0x1
 1847 0580 00       		.byte	0
 1848 0581 07       		.uleb128 0x7
 1849 0582 71050000 		.4byte	0x571
 1850 0586 06       		.uleb128 0x6
 1851 0587 81050000 		.4byte	0x581
 1852 058b 12       		.uleb128 0x12
 1853 058c A0000000 		.4byte	0xa0
 1854 0590 9B050000 		.4byte	0x59b
 1855 0594 13       		.uleb128 0x13
 1856 0595 2C000000 		.4byte	0x2c
 1857 0599 03       		.byte	0x3
 1858 059a 00       		.byte	0
 1859 059b 07       		.uleb128 0x7
 1860 059c 8B050000 		.4byte	0x58b
 1861 05a0 06       		.uleb128 0x6
 1862 05a1 9B050000 		.4byte	0x59b
 1863 05a5 12       		.uleb128 0x12
 1864 05a6 A0000000 		.4byte	0xa0
 1865 05aa B5050000 		.4byte	0x5b5
 1866 05ae 13       		.uleb128 0x13
 1867 05af 2C000000 		.4byte	0x2c
 1868 05b3 04       		.byte	0x4
ARM GAS  C:\Users\Aayush\AppData\Local\Temp\ccPGXf2s.s 			page 54


 1869 05b4 00       		.byte	0
 1870 05b5 07       		.uleb128 0x7
 1871 05b6 A5050000 		.4byte	0x5a5
 1872 05ba 06       		.uleb128 0x6
 1873 05bb B5050000 		.4byte	0x5b5
 1874 05bf 05       		.uleb128 0x5
 1875 05c0 95120000 		.4byte	.LASF123
 1876 05c4 04       		.byte	0x4
 1877 05c5 7A       		.byte	0x7a
 1878 05c6 03       		.byte	0x3
 1879 05c7 35040000 		.4byte	0x435
 1880 05cb 12       		.uleb128 0x12
 1881 05cc 8F000000 		.4byte	0x8f
 1882 05d0 DB050000 		.4byte	0x5db
 1883 05d4 13       		.uleb128 0x13
 1884 05d5 2C000000 		.4byte	0x2c
 1885 05d9 03       		.byte	0x3
 1886 05da 00       		.byte	0
 1887 05db 0C       		.uleb128 0xc
 1888 05dc 04       		.byte	0x4
 1889 05dd E1050000 		.4byte	0x5e1
 1890 05e1 16       		.uleb128 0x16
 1891 05e2 01       		.byte	0x1
 1892 05e3 82010000 		.4byte	0x182
 1893 05e7 F1050000 		.4byte	0x5f1
 1894 05eb 17       		.uleb128 0x17
 1895 05ec 6D000000 		.4byte	0x6d
 1896 05f0 00       		.byte	0
 1897 05f1 0C       		.uleb128 0xc
 1898 05f2 04       		.byte	0x4
 1899 05f3 6D000000 		.4byte	0x6d
 1900 05f7 03       		.uleb128 0x3
 1901 05f8 01       		.byte	0x1
 1902 05f9 08       		.byte	0x8
 1903 05fa A4080000 		.4byte	.LASF124
 1904 05fe 08       		.uleb128 0x8
 1905 05ff 07       		.byte	0x7
 1906 0600 01       		.byte	0x1
 1907 0601 3C000000 		.4byte	0x3c
 1908 0605 05       		.byte	0x5
 1909 0606 1A       		.byte	0x1a
 1910 0607 01       		.byte	0x1
 1911 0608 1F060000 		.4byte	0x61f
 1912 060c 09       		.uleb128 0x9
 1913 060d C6070000 		.4byte	.LASF125
 1914 0611 00       		.byte	0
 1915 0612 09       		.uleb128 0x9
 1916 0613 640B0000 		.4byte	.LASF126
 1917 0617 01       		.byte	0x1
 1918 0618 09       		.uleb128 0x9
 1919 0619 460E0000 		.4byte	.LASF127
 1920 061d 02       		.byte	0x2
 1921 061e 00       		.byte	0
 1922 061f 05       		.uleb128 0x5
 1923 0620 96140000 		.4byte	.LASF128
 1924 0624 05       		.byte	0x5
 1925 0625 1E       		.byte	0x1e
ARM GAS  C:\Users\Aayush\AppData\Local\Temp\ccPGXf2s.s 			page 55


 1926 0626 02       		.byte	0x2
 1927 0627 FE050000 		.4byte	0x5fe
 1928 062b 08       		.uleb128 0x8
 1929 062c 07       		.byte	0x7
 1930 062d 01       		.byte	0x1
 1931 062e 3C000000 		.4byte	0x3c
 1932 0632 05       		.byte	0x5
 1933 0633 22       		.byte	0x22
 1934 0634 01       		.byte	0x1
 1935 0635 52060000 		.4byte	0x652
 1936 0639 09       		.uleb128 0x9
 1937 063a 81060000 		.4byte	.LASF129
 1938 063e 00       		.byte	0
 1939 063f 09       		.uleb128 0x9
 1940 0640 69060000 		.4byte	.LASF130
 1941 0644 01       		.byte	0x1
 1942 0645 09       		.uleb128 0x9
 1943 0646 75060000 		.4byte	.LASF131
 1944 064a 02       		.byte	0x2
 1945 064b 09       		.uleb128 0x9
 1946 064c 97060000 		.4byte	.LASF132
 1947 0650 03       		.byte	0x3
 1948 0651 00       		.byte	0
 1949 0652 05       		.uleb128 0x5
 1950 0653 A9080000 		.4byte	.LASF133
 1951 0657 05       		.byte	0x5
 1952 0658 27       		.byte	0x27
 1953 0659 02       		.byte	0x2
 1954 065a 2B060000 		.4byte	0x62b
 1955 065e 15       		.uleb128 0x15
 1956 065f 0C       		.byte	0xc
 1957 0660 05       		.byte	0x5
 1958 0661 2A       		.byte	0x2a
 1959 0662 09       		.byte	0x9
 1960 0663 95060000 		.4byte	0x695
 1961 0667 10       		.uleb128 0x10
 1962 0668 F5140000 		.4byte	.LASF134
 1963 066c 05       		.byte	0x5
 1964 066d 2C       		.byte	0x2c
 1965 066e 0A       		.byte	0xa
 1966 066f 8F000000 		.4byte	0x8f
 1967 0673 02       		.byte	0x2
 1968 0674 23       		.byte	0x23
 1969 0675 00       		.uleb128 0
 1970 0676 10       		.uleb128 0x10
 1971 0677 31120000 		.4byte	.LASF135
 1972 067b 05       		.byte	0x5
 1973 067c 2D       		.byte	0x2d
 1974 067d 0A       		.byte	0xa
 1975 067e 8F000000 		.4byte	0x8f
 1976 0682 02       		.byte	0x2
 1977 0683 23       		.byte	0x23
 1978 0684 04       		.uleb128 0x4
 1979 0685 10       		.uleb128 0x10
 1980 0686 17100000 		.4byte	.LASF136
 1981 068a 05       		.byte	0x5
 1982 068b 2E       		.byte	0x2e
ARM GAS  C:\Users\Aayush\AppData\Local\Temp\ccPGXf2s.s 			page 56


 1983 068c 0D       		.byte	0xd
 1984 068d 1F060000 		.4byte	0x61f
 1985 0691 02       		.byte	0x2
 1986 0692 23       		.byte	0x23
 1987 0693 08       		.uleb128 0x8
 1988 0694 00       		.byte	0
 1989 0695 05       		.uleb128 0x5
 1990 0696 45110000 		.4byte	.LASF137
 1991 069a 05       		.byte	0x5
 1992 069b 2F       		.byte	0x2f
 1993 069c 02       		.byte	0x2
 1994 069d 5E060000 		.4byte	0x65e
 1995 06a1 0B       		.uleb128 0xb
 1996 06a2 07       		.byte	0x7
 1997 06a3 01       		.byte	0x1
 1998 06a4 3C000000 		.4byte	0x3c
 1999 06a8 06       		.byte	0x6
 2000 06a9 4F02     		.2byte	0x24f
 2001 06ab 01       		.byte	0x1
 2002 06ac BD060000 		.4byte	0x6bd
 2003 06b0 09       		.uleb128 0x9
 2004 06b1 580E0000 		.4byte	.LASF138
 2005 06b5 00       		.byte	0
 2006 06b6 09       		.uleb128 0x9
 2007 06b7 56030000 		.4byte	.LASF139
 2008 06bb 01       		.byte	0x1
 2009 06bc 00       		.byte	0
 2010 06bd 0A       		.uleb128 0xa
 2011 06be 8C0A0000 		.4byte	.LASF140
 2012 06c2 06       		.byte	0x6
 2013 06c3 5202     		.2byte	0x252
 2014 06c5 02       		.byte	0x2
 2015 06c6 A1060000 		.4byte	0x6a1
 2016 06ca 0B       		.uleb128 0xb
 2017 06cb 07       		.byte	0x7
 2018 06cc 01       		.byte	0x1
 2019 06cd 3C000000 		.4byte	0x3c
 2020 06d1 06       		.byte	0x6
 2021 06d2 5602     		.2byte	0x256
 2022 06d4 01       		.byte	0x1
 2023 06d5 F2060000 		.4byte	0x6f2
 2024 06d9 09       		.uleb128 0x9
 2025 06da 5E080000 		.4byte	.LASF141
 2026 06de 00       		.byte	0
 2027 06df 09       		.uleb128 0x9
 2028 06e0 7B090000 		.4byte	.LASF142
 2029 06e4 01       		.byte	0x1
 2030 06e5 09       		.uleb128 0x9
 2031 06e6 06010000 		.4byte	.LASF143
 2032 06ea 02       		.byte	0x2
 2033 06eb 09       		.uleb128 0x9
 2034 06ec C7060000 		.4byte	.LASF144
 2035 06f0 03       		.byte	0x3
 2036 06f1 00       		.byte	0
 2037 06f2 0A       		.uleb128 0xa
 2038 06f3 AE050000 		.4byte	.LASF145
 2039 06f7 06       		.byte	0x6
ARM GAS  C:\Users\Aayush\AppData\Local\Temp\ccPGXf2s.s 			page 57


 2040 06f8 5B02     		.2byte	0x25b
 2041 06fa 02       		.byte	0x2
 2042 06fb CA060000 		.4byte	0x6ca
 2043 06ff 0B       		.uleb128 0xb
 2044 0700 07       		.byte	0x7
 2045 0701 01       		.byte	0x1
 2046 0702 3C000000 		.4byte	0x3c
 2047 0706 06       		.byte	0x6
 2048 0707 5F02     		.2byte	0x25f
 2049 0709 01       		.byte	0x1
 2050 070a 1B070000 		.4byte	0x71b
 2051 070e 09       		.uleb128 0x9
 2052 070f 21130000 		.4byte	.LASF146
 2053 0713 00       		.byte	0
 2054 0714 09       		.uleb128 0x9
 2055 0715 880F0000 		.4byte	.LASF147
 2056 0719 01       		.byte	0x1
 2057 071a 00       		.byte	0
 2058 071b 0A       		.uleb128 0xa
 2059 071c 91090000 		.4byte	.LASF148
 2060 0720 06       		.byte	0x6
 2061 0721 6202     		.2byte	0x262
 2062 0723 02       		.byte	0x2
 2063 0724 FF060000 		.4byte	0x6ff
 2064 0728 0B       		.uleb128 0xb
 2065 0729 07       		.byte	0x7
 2066 072a 01       		.byte	0x1
 2067 072b 3C000000 		.4byte	0x3c
 2068 072f 06       		.byte	0x6
 2069 0730 6602     		.2byte	0x266
 2070 0732 01       		.byte	0x1
 2071 0733 50070000 		.4byte	0x750
 2072 0737 09       		.uleb128 0x9
 2073 0738 390A0000 		.4byte	.LASF149
 2074 073c 00       		.byte	0
 2075 073d 09       		.uleb128 0x9
 2076 073e AA0E0000 		.4byte	.LASF150
 2077 0742 01       		.byte	0x1
 2078 0743 09       		.uleb128 0x9
 2079 0744 0B020000 		.4byte	.LASF151
 2080 0748 02       		.byte	0x2
 2081 0749 09       		.uleb128 0x9
 2082 074a 1E020000 		.4byte	.LASF152
 2083 074e 03       		.byte	0x3
 2084 074f 00       		.byte	0
 2085 0750 0A       		.uleb128 0xa
 2086 0751 20010000 		.4byte	.LASF153
 2087 0755 06       		.byte	0x6
 2088 0756 6B02     		.2byte	0x26b
 2089 0758 02       		.byte	0x2
 2090 0759 28070000 		.4byte	0x728
 2091 075d 18       		.uleb128 0x18
 2092 075e 08       		.byte	0x8
 2093 075f 06       		.byte	0x6
 2094 0760 6E02     		.2byte	0x26e
 2095 0762 09       		.byte	0x9
 2096 0763 88070000 		.4byte	0x788
ARM GAS  C:\Users\Aayush\AppData\Local\Temp\ccPGXf2s.s 			page 58


 2097 0767 19       		.uleb128 0x19
 2098 0768 64110000 		.4byte	.LASF154
 2099 076c 06       		.byte	0x6
 2100 076d 7002     		.2byte	0x270
 2101 076f 0A       		.byte	0xa
 2102 0770 8F000000 		.4byte	0x8f
 2103 0774 02       		.byte	0x2
 2104 0775 23       		.byte	0x23
 2105 0776 00       		.uleb128 0
 2106 0777 1A       		.uleb128 0x1a
 2107 0778 70696E00 		.ascii	"pin\000"
 2108 077c 06       		.byte	0x6
 2109 077d 7102     		.2byte	0x271
 2110 077f 0A       		.byte	0xa
 2111 0780 8F000000 		.4byte	0x8f
 2112 0784 02       		.byte	0x2
 2113 0785 23       		.byte	0x23
 2114 0786 04       		.uleb128 0x4
 2115 0787 00       		.byte	0
 2116 0788 0A       		.uleb128 0xa
 2117 0789 96130000 		.4byte	.LASF155
 2118 078d 06       		.byte	0x6
 2119 078e 7202     		.2byte	0x272
 2120 0790 02       		.byte	0x2
 2121 0791 5D070000 		.4byte	0x75d
 2122 0795 0A       		.uleb128 0xa
 2123 0796 65050000 		.4byte	.LASF156
 2124 079a 06       		.byte	0x6
 2125 079b 7502     		.2byte	0x275
 2126 079d 18       		.byte	0x18
 2127 079e A2070000 		.4byte	0x7a2
 2128 07a2 0C       		.uleb128 0xc
 2129 07a3 04       		.byte	0x4
 2130 07a4 88070000 		.4byte	0x788
 2131 07a8 18       		.uleb128 0x18
 2132 07a9 0C       		.byte	0xc
 2133 07aa 06       		.byte	0x6
 2134 07ab 7802     		.2byte	0x278
 2135 07ad 09       		.byte	0x9
 2136 07ae 13080000 		.4byte	0x813
 2137 07b2 19       		.uleb128 0x19
 2138 07b3 64110000 		.4byte	.LASF154
 2139 07b7 06       		.byte	0x6
 2140 07b8 7A02     		.2byte	0x27a
 2141 07ba 0D       		.byte	0xd
 2142 07bb 8F000000 		.4byte	0x8f
 2143 07bf 02       		.byte	0x2
 2144 07c0 23       		.byte	0x23
 2145 07c1 00       		.uleb128 0
 2146 07c2 19       		.uleb128 0x19
 2147 07c3 3B030000 		.4byte	.LASF157
 2148 07c7 06       		.byte	0x6
 2149 07c8 7B02     		.2byte	0x27b
 2150 07ca 0D       		.byte	0xd
 2151 07cb 8F000000 		.4byte	0x8f
 2152 07cf 02       		.byte	0x2
 2153 07d0 23       		.byte	0x23
ARM GAS  C:\Users\Aayush\AppData\Local\Temp\ccPGXf2s.s 			page 59


 2154 07d1 04       		.uleb128 0x4
 2155 07d2 19       		.uleb128 0x19
 2156 07d3 0E000000 		.4byte	.LASF158
 2157 07d7 06       		.byte	0x6
 2158 07d8 7C02     		.2byte	0x27c
 2159 07da 12       		.byte	0x12
 2160 07db BD060000 		.4byte	0x6bd
 2161 07df 02       		.byte	0x2
 2162 07e0 23       		.byte	0x23
 2163 07e1 08       		.uleb128 0x8
 2164 07e2 19       		.uleb128 0x19
 2165 07e3 9D020000 		.4byte	.LASF159
 2166 07e7 06       		.byte	0x6
 2167 07e8 7D02     		.2byte	0x27d
 2168 07ea 13       		.byte	0x13
 2169 07eb F2060000 		.4byte	0x6f2
 2170 07ef 02       		.byte	0x2
 2171 07f0 23       		.byte	0x23
 2172 07f1 09       		.uleb128 0x9
 2173 07f2 19       		.uleb128 0x19
 2174 07f3 86010000 		.4byte	.LASF160
 2175 07f7 06       		.byte	0x6
 2176 07f8 7E02     		.2byte	0x27e
 2177 07fa 11       		.byte	0x11
 2178 07fb 1B070000 		.4byte	0x71b
 2179 07ff 02       		.byte	0x2
 2180 0800 23       		.byte	0x23
 2181 0801 0A       		.uleb128 0xa
 2182 0802 19       		.uleb128 0x19
 2183 0803 5D0D0000 		.4byte	.LASF161
 2184 0807 06       		.byte	0x6
 2185 0808 7F02     		.2byte	0x27f
 2186 080a 13       		.byte	0x13
 2187 080b 50070000 		.4byte	0x750
 2188 080f 02       		.byte	0x2
 2189 0810 23       		.byte	0x23
 2190 0811 0B       		.uleb128 0xb
 2191 0812 00       		.byte	0
 2192 0813 0A       		.uleb128 0xa
 2193 0814 53000000 		.4byte	.LASF162
 2194 0818 06       		.byte	0x6
 2195 0819 8002     		.2byte	0x280
 2196 081b 02       		.byte	0x2
 2197 081c A8070000 		.4byte	0x7a8
 2198 0820 08       		.uleb128 0x8
 2199 0821 07       		.byte	0x7
 2200 0822 01       		.byte	0x1
 2201 0823 3C000000 		.4byte	0x3c
 2202 0827 07       		.byte	0x7
 2203 0828 2E       		.byte	0x2e
 2204 0829 01       		.byte	0x1
 2205 082a 59080000 		.4byte	0x859
 2206 082e 09       		.uleb128 0x9
 2207 082f CC0C0000 		.4byte	.LASF163
 2208 0833 00       		.byte	0
 2209 0834 09       		.uleb128 0x9
 2210 0835 5C070000 		.4byte	.LASF164
ARM GAS  C:\Users\Aayush\AppData\Local\Temp\ccPGXf2s.s 			page 60


 2211 0839 01       		.byte	0x1
 2212 083a 09       		.uleb128 0x9
 2213 083b F0080000 		.4byte	.LASF165
 2214 083f 02       		.byte	0x2
 2215 0840 09       		.uleb128 0x9
 2216 0841 71070000 		.4byte	.LASF166
 2217 0845 03       		.byte	0x3
 2218 0846 09       		.uleb128 0x9
 2219 0847 42120000 		.4byte	.LASF167
 2220 084b 04       		.byte	0x4
 2221 084c 09       		.uleb128 0x9
 2222 084d 0C110000 		.4byte	.LASF168
 2223 0851 05       		.byte	0x5
 2224 0852 09       		.uleb128 0x9
 2225 0853 750A0000 		.4byte	.LASF169
 2226 0857 06       		.byte	0x6
 2227 0858 00       		.byte	0
 2228 0859 05       		.uleb128 0x5
 2229 085a C2000000 		.4byte	.LASF170
 2230 085e 07       		.byte	0x7
 2231 085f 36       		.byte	0x36
 2232 0860 02       		.byte	0x2
 2233 0861 20080000 		.4byte	0x820
 2234 0865 08       		.uleb128 0x8
 2235 0866 07       		.byte	0x7
 2236 0867 01       		.byte	0x1
 2237 0868 3C000000 		.4byte	0x3c
 2238 086c 07       		.byte	0x7
 2239 086d 3A       		.byte	0x3a
 2240 086e 01       		.byte	0x1
 2241 086f 8C080000 		.4byte	0x88c
 2242 0873 09       		.uleb128 0x9
 2243 0874 E1150000 		.4byte	.LASF171
 2244 0878 00       		.byte	0
 2245 0879 09       		.uleb128 0x9
 2246 087a F3150000 		.4byte	.LASF172
 2247 087e 01       		.byte	0x1
 2248 087f 09       		.uleb128 0x9
 2249 0880 05160000 		.4byte	.LASF173
 2250 0884 02       		.byte	0x2
 2251 0885 09       		.uleb128 0x9
 2252 0886 17160000 		.4byte	.LASF174
 2253 088a 03       		.byte	0x3
 2254 088b 00       		.byte	0
 2255 088c 05       		.uleb128 0x5
 2256 088d 0F130000 		.4byte	.LASF175
 2257 0891 07       		.byte	0x7
 2258 0892 3F       		.byte	0x3f
 2259 0893 02       		.byte	0x2
 2260 0894 65080000 		.4byte	0x865
 2261 0898 08       		.uleb128 0x8
 2262 0899 07       		.byte	0x7
 2263 089a 01       		.byte	0x1
 2264 089b 3C000000 		.4byte	0x3c
 2265 089f 07       		.byte	0x7
 2266 08a0 43       		.byte	0x43
 2267 08a1 01       		.byte	0x1
ARM GAS  C:\Users\Aayush\AppData\Local\Temp\ccPGXf2s.s 			page 61


 2268 08a2 C5080000 		.4byte	0x8c5
 2269 08a6 09       		.uleb128 0x9
 2270 08a7 DE0E0000 		.4byte	.LASF176
 2271 08ab 00       		.byte	0
 2272 08ac 09       		.uleb128 0x9
 2273 08ad 2A030000 		.4byte	.LASF177
 2274 08b1 01       		.byte	0x1
 2275 08b2 09       		.uleb128 0x9
 2276 08b3 13080000 		.4byte	.LASF178
 2277 08b7 03       		.byte	0x3
 2278 08b8 09       		.uleb128 0x9
 2279 08b9 FB0C0000 		.4byte	.LASF179
 2280 08bd 05       		.byte	0x5
 2281 08be 09       		.uleb128 0x9
 2282 08bf BA0C0000 		.4byte	.LASF180
 2283 08c3 07       		.byte	0x7
 2284 08c4 00       		.byte	0
 2285 08c5 05       		.uleb128 0x5
 2286 08c6 04070000 		.4byte	.LASF181
 2287 08ca 07       		.byte	0x7
 2288 08cb 49       		.byte	0x49
 2289 08cc 02       		.byte	0x2
 2290 08cd 98080000 		.4byte	0x898
 2291 08d1 08       		.uleb128 0x8
 2292 08d2 07       		.byte	0x7
 2293 08d3 01       		.byte	0x1
 2294 08d4 3C000000 		.4byte	0x3c
 2295 08d8 07       		.byte	0x7
 2296 08d9 4D       		.byte	0x4d
 2297 08da 01       		.byte	0x1
 2298 08db EC080000 		.4byte	0x8ec
 2299 08df 09       		.uleb128 0x9
 2300 08e0 58120000 		.4byte	.LASF182
 2301 08e4 00       		.byte	0
 2302 08e5 09       		.uleb128 0x9
 2303 08e6 120B0000 		.4byte	.LASF183
 2304 08ea 01       		.byte	0x1
 2305 08eb 00       		.byte	0
 2306 08ec 05       		.uleb128 0x5
 2307 08ed 4C040000 		.4byte	.LASF184
 2308 08f1 07       		.byte	0x7
 2309 08f2 50       		.byte	0x50
 2310 08f3 02       		.byte	0x2
 2311 08f4 D1080000 		.4byte	0x8d1
 2312 08f8 08       		.uleb128 0x8
 2313 08f9 07       		.byte	0x7
 2314 08fa 01       		.byte	0x1
 2315 08fb 3C000000 		.4byte	0x3c
 2316 08ff 07       		.byte	0x7
 2317 0900 54       		.byte	0x54
 2318 0901 01       		.byte	0x1
 2319 0902 1F090000 		.4byte	0x91f
 2320 0906 09       		.uleb128 0x9
 2321 0907 1E150000 		.4byte	.LASF185
 2322 090b 00       		.byte	0
 2323 090c 09       		.uleb128 0x9
 2324 090d E7040000 		.4byte	.LASF186
ARM GAS  C:\Users\Aayush\AppData\Local\Temp\ccPGXf2s.s 			page 62


 2325 0911 01       		.byte	0x1
 2326 0912 09       		.uleb128 0x9
 2327 0913 32080000 		.4byte	.LASF187
 2328 0917 02       		.byte	0x2
 2329 0918 09       		.uleb128 0x9
 2330 0919 13030000 		.4byte	.LASF188
 2331 091d 03       		.byte	0x3
 2332 091e 00       		.byte	0
 2333 091f 05       		.uleb128 0x5
 2334 0920 1E120000 		.4byte	.LASF189
 2335 0924 07       		.byte	0x7
 2336 0925 59       		.byte	0x59
 2337 0926 02       		.byte	0x2
 2338 0927 F8080000 		.4byte	0x8f8
 2339 092b 15       		.uleb128 0x15
 2340 092c 06       		.byte	0x6
 2341 092d 07       		.byte	0x7
 2342 092e 5C       		.byte	0x5c
 2343 092f 09       		.byte	0x9
 2344 0930 8F090000 		.4byte	0x98f
 2345 0934 10       		.uleb128 0x10
 2346 0935 580A0000 		.4byte	.LASF190
 2347 0939 07       		.byte	0x7
 2348 093a 5E       		.byte	0x5e
 2349 093b 13       		.byte	0x13
 2350 093c 52060000 		.4byte	0x652
 2351 0940 02       		.byte	0x2
 2352 0941 23       		.byte	0x23
 2353 0942 00       		.uleb128 0
 2354 0943 10       		.uleb128 0x10
 2355 0944 EF000000 		.4byte	.LASF191
 2356 0948 07       		.byte	0x7
 2357 0949 5F       		.byte	0x5f
 2358 094a 15       		.byte	0x15
 2359 094b 59080000 		.4byte	0x859
 2360 094f 02       		.byte	0x2
 2361 0950 23       		.byte	0x23
 2362 0951 01       		.uleb128 0x1
 2363 0952 10       		.uleb128 0x10
 2364 0953 7C030000 		.4byte	.LASF192
 2365 0957 07       		.byte	0x7
 2366 0958 60       		.byte	0x60
 2367 0959 14       		.byte	0x14
 2368 095a 8C080000 		.4byte	0x88c
 2369 095e 02       		.byte	0x2
 2370 095f 23       		.byte	0x23
 2371 0960 02       		.uleb128 0x2
 2372 0961 10       		.uleb128 0x10
 2373 0962 18000000 		.4byte	.LASF193
 2374 0966 07       		.byte	0x7
 2375 0967 61       		.byte	0x61
 2376 0968 13       		.byte	0x13
 2377 0969 C5080000 		.4byte	0x8c5
 2378 096d 02       		.byte	0x2
 2379 096e 23       		.byte	0x23
 2380 096f 03       		.uleb128 0x3
 2381 0970 10       		.uleb128 0x10
ARM GAS  C:\Users\Aayush\AppData\Local\Temp\ccPGXf2s.s 			page 63


 2382 0971 090B0000 		.4byte	.LASF194
 2383 0975 07       		.byte	0x7
 2384 0976 62       		.byte	0x62
 2385 0977 15       		.byte	0x15
 2386 0978 EC080000 		.4byte	0x8ec
 2387 097c 02       		.byte	0x2
 2388 097d 23       		.byte	0x23
 2389 097e 04       		.uleb128 0x4
 2390 097f 10       		.uleb128 0x10
 2391 0980 90010000 		.4byte	.LASF195
 2392 0984 07       		.byte	0x7
 2393 0985 63       		.byte	0x63
 2394 0986 16       		.byte	0x16
 2395 0987 1F090000 		.4byte	0x91f
 2396 098b 02       		.byte	0x2
 2397 098c 23       		.byte	0x23
 2398 098d 05       		.uleb128 0x5
 2399 098e 00       		.byte	0
 2400 098f 05       		.uleb128 0x5
 2401 0990 4F020000 		.4byte	.LASF196
 2402 0994 07       		.byte	0x7
 2403 0995 68       		.byte	0x68
 2404 0996 02       		.byte	0x2
 2405 0997 2B090000 		.4byte	0x92b
 2406 099b 15       		.uleb128 0x15
 2407 099c 10       		.byte	0x10
 2408 099d 08       		.byte	0x8
 2409 099e 1D       		.byte	0x1d
 2410 099f 09       		.byte	0x9
 2411 09a0 FF090000 		.4byte	0x9ff
 2412 09a4 10       		.uleb128 0x10
 2413 09a5 CF040000 		.4byte	.LASF197
 2414 09a9 08       		.byte	0x8
 2415 09aa 1F       		.byte	0x1f
 2416 09ab 0C       		.byte	0xc
 2417 09ac 8F000000 		.4byte	0x8f
 2418 09b0 02       		.byte	0x2
 2419 09b1 23       		.byte	0x23
 2420 09b2 00       		.uleb128 0
 2421 09b3 10       		.uleb128 0x10
 2422 09b4 E4080000 		.4byte	.LASF198
 2423 09b8 08       		.byte	0x8
 2424 09b9 20       		.byte	0x20
 2425 09ba 0C       		.byte	0xc
 2426 09bb 8F000000 		.4byte	0x8f
 2427 09bf 02       		.byte	0x2
 2428 09c0 23       		.byte	0x23
 2429 09c1 04       		.uleb128 0x4
 2430 09c2 10       		.uleb128 0x10
 2431 09c3 9A150000 		.4byte	.LASF199
 2432 09c7 08       		.byte	0x8
 2433 09c8 21       		.byte	0x21
 2434 09c9 0E       		.byte	0xe
 2435 09ca B8010000 		.4byte	0x1b8
 2436 09ce 02       		.byte	0x2
 2437 09cf 23       		.byte	0x23
 2438 09d0 08       		.uleb128 0x8
ARM GAS  C:\Users\Aayush\AppData\Local\Temp\ccPGXf2s.s 			page 64


 2439 09d1 10       		.uleb128 0x10
 2440 09d2 580A0000 		.4byte	.LASF190
 2441 09d6 08       		.byte	0x8
 2442 09d7 22       		.byte	0x22
 2443 09d8 12       		.byte	0x12
 2444 09d9 52060000 		.4byte	0x652
 2445 09dd 02       		.byte	0x2
 2446 09de 23       		.byte	0x23
 2447 09df 0C       		.uleb128 0xc
 2448 09e0 10       		.uleb128 0x10
 2449 09e1 17140000 		.4byte	.LASF200
 2450 09e5 08       		.byte	0x8
 2451 09e6 23       		.byte	0x23
 2452 09e7 0F       		.byte	0xf
 2453 09e8 AB010000 		.4byte	0x1ab
 2454 09ec 02       		.byte	0x2
 2455 09ed 23       		.byte	0x23
 2456 09ee 0D       		.uleb128 0xd
 2457 09ef 10       		.uleb128 0x10
 2458 09f0 25080000 		.4byte	.LASF201
 2459 09f4 08       		.byte	0x8
 2460 09f5 24       		.byte	0x24
 2461 09f6 0F       		.byte	0xf
 2462 09f7 AB010000 		.4byte	0x1ab
 2463 09fb 02       		.byte	0x2
 2464 09fc 23       		.byte	0x23
 2465 09fd 0E       		.uleb128 0xe
 2466 09fe 00       		.byte	0
 2467 09ff 05       		.uleb128 0x5
 2468 0a00 000B0000 		.4byte	.LASF202
 2469 0a04 08       		.byte	0x8
 2470 0a05 25       		.byte	0x25
 2471 0a06 02       		.byte	0x2
 2472 0a07 9B090000 		.4byte	0x99b
 2473 0a0b 08       		.uleb128 0x8
 2474 0a0c 07       		.byte	0x7
 2475 0a0d 01       		.byte	0x1
 2476 0a0e 3C000000 		.4byte	0x3c
 2477 0a12 09       		.byte	0x9
 2478 0a13 1E       		.byte	0x1e
 2479 0a14 01       		.byte	0x1
 2480 0a15 440A0000 		.4byte	0xa44
 2481 0a19 09       		.uleb128 0x9
 2482 0a1a B7150000 		.4byte	.LASF203
 2483 0a1e 00       		.byte	0
 2484 0a1f 09       		.uleb128 0x9
 2485 0a20 69110000 		.4byte	.LASF204
 2486 0a24 01       		.byte	0x1
 2487 0a25 09       		.uleb128 0x9
 2488 0a26 080A0000 		.4byte	.LASF205
 2489 0a2a 02       		.byte	0x2
 2490 0a2b 09       		.uleb128 0x9
 2491 0a2c 8E050000 		.4byte	.LASF206
 2492 0a30 03       		.byte	0x3
 2493 0a31 09       		.uleb128 0x9
 2494 0a32 9B0D0000 		.4byte	.LASF207
 2495 0a36 05       		.byte	0x5
ARM GAS  C:\Users\Aayush\AppData\Local\Temp\ccPGXf2s.s 			page 65


 2496 0a37 09       		.uleb128 0x9
 2497 0a38 69140000 		.4byte	.LASF208
 2498 0a3c 06       		.byte	0x6
 2499 0a3d 09       		.uleb128 0x9
 2500 0a3e BB0B0000 		.4byte	.LASF209
 2501 0a42 07       		.byte	0x7
 2502 0a43 00       		.byte	0
 2503 0a44 05       		.uleb128 0x5
 2504 0a45 E70C0000 		.4byte	.LASF210
 2505 0a49 09       		.byte	0x9
 2506 0a4a 26       		.byte	0x26
 2507 0a4b 02       		.byte	0x2
 2508 0a4c 0B0A0000 		.4byte	0xa0b
 2509 0a50 08       		.uleb128 0x8
 2510 0a51 07       		.byte	0x7
 2511 0a52 01       		.byte	0x1
 2512 0a53 3C000000 		.4byte	0x3c
 2513 0a57 09       		.byte	0x9
 2514 0a58 2A       		.byte	0x2a
 2515 0a59 01       		.byte	0x1
 2516 0a5a 8F0A0000 		.4byte	0xa8f
 2517 0a5e 09       		.uleb128 0x9
 2518 0a5f 23140000 		.4byte	.LASF211
 2519 0a63 00       		.byte	0
 2520 0a64 09       		.uleb128 0x9
 2521 0a65 22110000 		.4byte	.LASF212
 2522 0a69 01       		.byte	0x1
 2523 0a6a 09       		.uleb128 0x9
 2524 0a6b D3110000 		.4byte	.LASF213
 2525 0a6f 02       		.byte	0x2
 2526 0a70 09       		.uleb128 0x9
 2527 0a71 18090000 		.4byte	.LASF214
 2528 0a75 03       		.byte	0x3
 2529 0a76 09       		.uleb128 0x9
 2530 0a77 340D0000 		.4byte	.LASF215
 2531 0a7b 04       		.byte	0x4
 2532 0a7c 09       		.uleb128 0x9
 2533 0a7d 29160000 		.4byte	.LASF216
 2534 0a81 05       		.byte	0x5
 2535 0a82 09       		.uleb128 0x9
 2536 0a83 80080000 		.4byte	.LASF217
 2537 0a87 06       		.byte	0x6
 2538 0a88 09       		.uleb128 0x9
 2539 0a89 EB090000 		.4byte	.LASF218
 2540 0a8d 07       		.byte	0x7
 2541 0a8e 00       		.byte	0
 2542 0a8f 05       		.uleb128 0x5
 2543 0a90 1F000000 		.4byte	.LASF219
 2544 0a94 09       		.byte	0x9
 2545 0a95 33       		.byte	0x33
 2546 0a96 02       		.byte	0x2
 2547 0a97 500A0000 		.4byte	0xa50
 2548 0a9b 08       		.uleb128 0x8
 2549 0a9c 07       		.byte	0x7
 2550 0a9d 01       		.byte	0x1
 2551 0a9e 3C000000 		.4byte	0x3c
 2552 0aa2 09       		.byte	0x9
ARM GAS  C:\Users\Aayush\AppData\Local\Temp\ccPGXf2s.s 			page 66


 2553 0aa3 37       		.byte	0x37
 2554 0aa4 01       		.byte	0x1
 2555 0aa5 C20A0000 		.4byte	0xac2
 2556 0aa9 09       		.uleb128 0x9
 2557 0aaa 1B0D0000 		.4byte	.LASF220
 2558 0aae 00       		.byte	0
 2559 0aaf 09       		.uleb128 0x9
 2560 0ab0 85160000 		.4byte	.LASF221
 2561 0ab4 01       		.byte	0x1
 2562 0ab5 09       		.uleb128 0x9
 2563 0ab6 B4040000 		.4byte	.LASF222
 2564 0aba 02       		.byte	0x2
 2565 0abb 09       		.uleb128 0x9
 2566 0abc C0010000 		.4byte	.LASF223
 2567 0ac0 03       		.byte	0x3
 2568 0ac1 00       		.byte	0
 2569 0ac2 05       		.uleb128 0x5
 2570 0ac3 92040000 		.4byte	.LASF224
 2571 0ac7 09       		.byte	0x9
 2572 0ac8 3C       		.byte	0x3c
 2573 0ac9 02       		.byte	0x2
 2574 0aca 9B0A0000 		.4byte	0xa9b
 2575 0ace 15       		.uleb128 0x15
 2576 0acf 24       		.byte	0x24
 2577 0ad0 09       		.byte	0x9
 2578 0ad1 3F       		.byte	0x3f
 2579 0ad2 09       		.byte	0x9
 2580 0ad3 500B0000 		.4byte	0xb50
 2581 0ad7 10       		.uleb128 0x10
 2582 0ad8 460C0000 		.4byte	.LASF225
 2583 0adc 09       		.byte	0x9
 2584 0add 41       		.byte	0x41
 2585 0ade 0E       		.byte	0xe
 2586 0adf 8F000000 		.4byte	0x8f
 2587 0ae3 02       		.byte	0x2
 2588 0ae4 23       		.byte	0x23
 2589 0ae5 00       		.uleb128 0
 2590 0ae6 10       		.uleb128 0x10
 2591 0ae7 9E120000 		.4byte	.LASF226
 2592 0aeb 09       		.byte	0x9
 2593 0aec 42       		.byte	0x42
 2594 0aed 0E       		.byte	0xe
 2595 0aee CB050000 		.4byte	0x5cb
 2596 0af2 02       		.byte	0x2
 2597 0af3 23       		.byte	0x23
 2598 0af4 04       		.uleb128 0x4
 2599 0af5 10       		.uleb128 0x10
 2600 0af6 35000000 		.4byte	.LASF227
 2601 0afa 09       		.byte	0x9
 2602 0afb 43       		.byte	0x43
 2603 0afc 18       		.byte	0x18
 2604 0afd 500B0000 		.4byte	0xb50
 2605 0b01 02       		.byte	0x2
 2606 0b02 23       		.byte	0x23
 2607 0b03 14       		.uleb128 0x14
 2608 0b04 10       		.uleb128 0x10
 2609 0b05 F8000000 		.4byte	.LASF228
ARM GAS  C:\Users\Aayush\AppData\Local\Temp\ccPGXf2s.s 			page 67


 2610 0b09 09       		.byte	0x9
 2611 0b0a 44       		.byte	0x44
 2612 0b0b 19       		.byte	0x19
 2613 0b0c 600B0000 		.4byte	0xb60
 2614 0b10 02       		.byte	0x2
 2615 0b11 23       		.byte	0x23
 2616 0b12 18       		.uleb128 0x18
 2617 0b13 10       		.uleb128 0x10
 2618 0b14 9A150000 		.4byte	.LASF199
 2619 0b18 09       		.byte	0x9
 2620 0b19 45       		.byte	0x45
 2621 0b1a 10       		.byte	0x10
 2622 0b1b B8010000 		.4byte	0x1b8
 2623 0b1f 02       		.byte	0x2
 2624 0b20 23       		.byte	0x23
 2625 0b21 1C       		.uleb128 0x1c
 2626 0b22 10       		.uleb128 0x10
 2627 0b23 580A0000 		.4byte	.LASF190
 2628 0b27 09       		.byte	0x9
 2629 0b28 46       		.byte	0x46
 2630 0b29 14       		.byte	0x14
 2631 0b2a 52060000 		.4byte	0x652
 2632 0b2e 02       		.byte	0x2
 2633 0b2f 23       		.byte	0x23
 2634 0b30 20       		.uleb128 0x20
 2635 0b31 10       		.uleb128 0x10
 2636 0b32 D0030000 		.4byte	.LASF229
 2637 0b36 09       		.byte	0x9
 2638 0b37 47       		.byte	0x47
 2639 0b38 13       		.byte	0x13
 2640 0b39 440A0000 		.4byte	0xa44
 2641 0b3d 02       		.byte	0x2
 2642 0b3e 23       		.byte	0x23
 2643 0b3f 21       		.uleb128 0x21
 2644 0b40 10       		.uleb128 0x10
 2645 0b41 C2100000 		.4byte	.LASF230
 2646 0b45 09       		.byte	0x9
 2647 0b46 48       		.byte	0x48
 2648 0b47 11       		.byte	0x11
 2649 0b48 AB010000 		.4byte	0x1ab
 2650 0b4c 02       		.byte	0x2
 2651 0b4d 23       		.byte	0x23
 2652 0b4e 22       		.uleb128 0x22
 2653 0b4f 00       		.byte	0
 2654 0b50 12       		.uleb128 0x12
 2655 0b51 8F0A0000 		.4byte	0xa8f
 2656 0b55 600B0000 		.4byte	0xb60
 2657 0b59 13       		.uleb128 0x13
 2658 0b5a 2C000000 		.4byte	0x2c
 2659 0b5e 03       		.byte	0x3
 2660 0b5f 00       		.byte	0
 2661 0b60 12       		.uleb128 0x12
 2662 0b61 C20A0000 		.4byte	0xac2
 2663 0b65 700B0000 		.4byte	0xb70
 2664 0b69 13       		.uleb128 0x13
 2665 0b6a 2C000000 		.4byte	0x2c
 2666 0b6e 03       		.byte	0x3
ARM GAS  C:\Users\Aayush\AppData\Local\Temp\ccPGXf2s.s 			page 68


 2667 0b6f 00       		.byte	0
 2668 0b70 05       		.uleb128 0x5
 2669 0b71 41000000 		.4byte	.LASF231
 2670 0b75 09       		.byte	0x9
 2671 0b76 49       		.byte	0x49
 2672 0b77 02       		.byte	0x2
 2673 0b78 CE0A0000 		.4byte	0xace
 2674 0b7c 08       		.uleb128 0x8
 2675 0b7d 07       		.byte	0x7
 2676 0b7e 01       		.byte	0x1
 2677 0b7f 3C000000 		.4byte	0x3c
 2678 0b83 0A       		.byte	0xa
 2679 0b84 2D       		.byte	0x2d
 2680 0b85 01       		.byte	0x1
 2681 0b86 D90B0000 		.4byte	0xbd9
 2682 0b8a 09       		.uleb128 0x9
 2683 0b8b 29100000 		.4byte	.LASF232
 2684 0b8f 03       		.byte	0x3
 2685 0b90 09       		.uleb128 0x9
 2686 0b91 3A100000 		.4byte	.LASF233
 2687 0b95 04       		.byte	0x4
 2688 0b96 09       		.uleb128 0x9
 2689 0b97 4B100000 		.4byte	.LASF234
 2690 0b9b 05       		.byte	0x5
 2691 0b9c 09       		.uleb128 0x9
 2692 0b9d 5C100000 		.4byte	.LASF235
 2693 0ba1 06       		.byte	0x6
 2694 0ba2 09       		.uleb128 0x9
 2695 0ba3 6D100000 		.4byte	.LASF236
 2696 0ba7 07       		.byte	0x7
 2697 0ba8 09       		.uleb128 0x9
 2698 0ba9 7E100000 		.4byte	.LASF237
 2699 0bad 08       		.byte	0x8
 2700 0bae 09       		.uleb128 0x9
 2701 0baf 79130000 		.4byte	.LASF238
 2702 0bb3 09       		.byte	0x9
 2703 0bb4 09       		.uleb128 0x9
 2704 0bb5 30010000 		.4byte	.LASF239
 2705 0bb9 0A       		.byte	0xa
 2706 0bba 09       		.uleb128 0x9
 2707 0bbb 42010000 		.4byte	.LASF240
 2708 0bbf 0B       		.byte	0xb
 2709 0bc0 09       		.uleb128 0x9
 2710 0bc1 A4130000 		.4byte	.LASF241
 2711 0bc5 0C       		.byte	0xc
 2712 0bc6 09       		.uleb128 0x9
 2713 0bc7 B6130000 		.4byte	.LASF242
 2714 0bcb 0D       		.byte	0xd
 2715 0bcc 09       		.uleb128 0x9
 2716 0bcd C8130000 		.4byte	.LASF243
 2717 0bd1 0E       		.byte	0xe
 2718 0bd2 09       		.uleb128 0x9
 2719 0bd3 DA130000 		.4byte	.LASF244
 2720 0bd7 0F       		.byte	0xf
 2721 0bd8 00       		.byte	0
 2722 0bd9 05       		.uleb128 0x5
 2723 0bda 58060000 		.4byte	.LASF245
ARM GAS  C:\Users\Aayush\AppData\Local\Temp\ccPGXf2s.s 			page 69


 2724 0bde 0A       		.byte	0xa
 2725 0bdf 3B       		.byte	0x3b
 2726 0be0 02       		.byte	0x2
 2727 0be1 7C0B0000 		.4byte	0xb7c
 2728 0be5 08       		.uleb128 0x8
 2729 0be6 07       		.byte	0x7
 2730 0be7 01       		.byte	0x1
 2731 0be8 3C000000 		.4byte	0x3c
 2732 0bec 0A       		.byte	0xa
 2733 0bed 3F       		.byte	0x3f
 2734 0bee 01       		.byte	0x1
 2735 0bef 0C0C0000 		.4byte	0xc0c
 2736 0bf3 09       		.uleb128 0x9
 2737 0bf4 58050000 		.4byte	.LASF246
 2738 0bf8 00       		.byte	0
 2739 0bf9 09       		.uleb128 0x9
 2740 0bfa 8D030000 		.4byte	.LASF247
 2741 0bfe 01       		.byte	0x1
 2742 0bff 09       		.uleb128 0x9
 2743 0c00 74050000 		.4byte	.LASF248
 2744 0c04 02       		.byte	0x2
 2745 0c05 09       		.uleb128 0x9
 2746 0c06 81050000 		.4byte	.LASF249
 2747 0c0a 03       		.byte	0x3
 2748 0c0b 00       		.byte	0
 2749 0c0c 05       		.uleb128 0x5
 2750 0c0d F00E0000 		.4byte	.LASF250
 2751 0c11 0A       		.byte	0xa
 2752 0c12 44       		.byte	0x44
 2753 0c13 02       		.byte	0x2
 2754 0c14 E50B0000 		.4byte	0xbe5
 2755 0c18 08       		.uleb128 0x8
 2756 0c19 07       		.byte	0x7
 2757 0c1a 01       		.byte	0x1
 2758 0c1b 3C000000 		.4byte	0x3c
 2759 0c1f 0A       		.byte	0xa
 2760 0c20 48       		.byte	0x48
 2761 0c21 01       		.byte	0x1
 2762 0c22 450C0000 		.4byte	0xc45
 2763 0c26 09       		.uleb128 0x9
 2764 0c27 8C150000 		.4byte	.LASF251
 2765 0c2b 00       		.byte	0
 2766 0c2c 09       		.uleb128 0x9
 2767 0c2d EC130000 		.4byte	.LASF252
 2768 0c31 01       		.byte	0x1
 2769 0c32 09       		.uleb128 0x9
 2770 0c33 E6070000 		.4byte	.LASF253
 2771 0c37 02       		.byte	0x2
 2772 0c38 09       		.uleb128 0x9
 2773 0c39 FF030000 		.4byte	.LASF254
 2774 0c3d 04       		.byte	0x4
 2775 0c3e 09       		.uleb128 0x9
 2776 0c3f C6140000 		.4byte	.LASF255
 2777 0c43 08       		.byte	0x8
 2778 0c44 00       		.byte	0
 2779 0c45 05       		.uleb128 0x5
 2780 0c46 1A070000 		.4byte	.LASF256
ARM GAS  C:\Users\Aayush\AppData\Local\Temp\ccPGXf2s.s 			page 70


 2781 0c4a 0A       		.byte	0xa
 2782 0c4b 4E       		.byte	0x4e
 2783 0c4c 02       		.byte	0x2
 2784 0c4d 180C0000 		.4byte	0xc18
 2785 0c51 15       		.uleb128 0x15
 2786 0c52 0C       		.byte	0xc
 2787 0c53 0A       		.byte	0xa
 2788 0c54 51       		.byte	0x51
 2789 0c55 09       		.byte	0x9
 2790 0c56 B50C0000 		.4byte	0xcb5
 2791 0c5a 10       		.uleb128 0x10
 2792 0c5b 580A0000 		.4byte	.LASF190
 2793 0c5f 0A       		.byte	0xa
 2794 0c60 53       		.byte	0x53
 2795 0c61 19       		.byte	0x19
 2796 0c62 52060000 		.4byte	0x652
 2797 0c66 02       		.byte	0x2
 2798 0c67 23       		.byte	0x23
 2799 0c68 00       		.uleb128 0
 2800 0c69 10       		.uleb128 0x10
 2801 0c6a B8110000 		.4byte	.LASF257
 2802 0c6e 0A       		.byte	0xa
 2803 0c6f 54       		.byte	0x54
 2804 0c70 19       		.byte	0x19
 2805 0c71 AB010000 		.4byte	0x1ab
 2806 0c75 02       		.byte	0x2
 2807 0c76 23       		.byte	0x23
 2808 0c77 01       		.uleb128 0x1
 2809 0c78 10       		.uleb128 0x10
 2810 0c79 BD070000 		.4byte	.LASF258
 2811 0c7d 0A       		.byte	0xa
 2812 0c7e 55       		.byte	0x55
 2813 0c7f 19       		.byte	0x19
 2814 0c80 D90B0000 		.4byte	0xbd9
 2815 0c84 02       		.byte	0x2
 2816 0c85 23       		.byte	0x23
 2817 0c86 02       		.uleb128 0x2
 2818 0c87 10       		.uleb128 0x10
 2819 0c88 9D020000 		.4byte	.LASF159
 2820 0c8c 0A       		.byte	0xa
 2821 0c8d 56       		.byte	0x56
 2822 0c8e 19       		.byte	0x19
 2823 0c8f 0C0C0000 		.4byte	0xc0c
 2824 0c93 02       		.byte	0x2
 2825 0c94 23       		.byte	0x23
 2826 0c95 03       		.uleb128 0x3
 2827 0c96 10       		.uleb128 0x10
 2828 0c97 EF000000 		.4byte	.LASF191
 2829 0c9b 0A       		.byte	0xa
 2830 0c9c 57       		.byte	0x57
 2831 0c9d 19       		.byte	0x19
 2832 0c9e 8F000000 		.4byte	0x8f
 2833 0ca2 02       		.byte	0x2
 2834 0ca3 23       		.byte	0x23
 2835 0ca4 04       		.uleb128 0x4
 2836 0ca5 10       		.uleb128 0x10
 2837 0ca6 C2100000 		.4byte	.LASF230
ARM GAS  C:\Users\Aayush\AppData\Local\Temp\ccPGXf2s.s 			page 71


 2838 0caa 0A       		.byte	0xa
 2839 0cab 58       		.byte	0x58
 2840 0cac 19       		.byte	0x19
 2841 0cad 450C0000 		.4byte	0xc45
 2842 0cb1 02       		.byte	0x2
 2843 0cb2 23       		.byte	0x23
 2844 0cb3 08       		.uleb128 0x8
 2845 0cb4 00       		.byte	0
 2846 0cb5 05       		.uleb128 0x5
 2847 0cb6 65130000 		.4byte	.LASF259
 2848 0cba 0A       		.byte	0xa
 2849 0cbb 5C       		.byte	0x5c
 2850 0cbc 02       		.byte	0x2
 2851 0cbd 510C0000 		.4byte	0xc51
 2852 0cc1 05       		.uleb128 0x5
 2853 0cc2 C9080000 		.4byte	.LASF260
 2854 0cc6 0A       		.byte	0xa
 2855 0cc7 5F       		.byte	0x5f
 2856 0cc8 14       		.byte	0x14
 2857 0cc9 CD0C0000 		.4byte	0xccd
 2858 0ccd 0C       		.uleb128 0xc
 2859 0cce 04       		.byte	0x4
 2860 0ccf B50C0000 		.4byte	0xcb5
 2861 0cd3 15       		.uleb128 0x15
 2862 0cd4 18       		.byte	0x18
 2863 0cd5 0B       		.byte	0xb
 2864 0cd6 2C       		.byte	0x2c
 2865 0cd7 09       		.byte	0x9
 2866 0cd8 640D0000 		.4byte	0xd64
 2867 0cdc 10       		.uleb128 0x10
 2868 0cdd 9C0C0000 		.4byte	.LASF261
 2869 0ce1 0B       		.byte	0xb
 2870 0ce2 2E       		.byte	0x2e
 2871 0ce3 0A       		.byte	0xa
 2872 0ce4 8F000000 		.4byte	0x8f
 2873 0ce8 02       		.byte	0x2
 2874 0ce9 23       		.byte	0x23
 2875 0cea 00       		.uleb128 0
 2876 0ceb 10       		.uleb128 0x10
 2877 0cec 580A0000 		.4byte	.LASF190
 2878 0cf0 0B       		.byte	0xb
 2879 0cf1 2F       		.byte	0x2f
 2880 0cf2 12       		.byte	0x12
 2881 0cf3 52060000 		.4byte	0x652
 2882 0cf7 02       		.byte	0x2
 2883 0cf8 23       		.byte	0x23
 2884 0cf9 04       		.uleb128 0x4
 2885 0cfa 10       		.uleb128 0x10
 2886 0cfb 5A020000 		.4byte	.LASF262
 2887 0cff 0B       		.byte	0xb
 2888 0d00 30       		.byte	0x30
 2889 0d01 09       		.byte	0x9
 2890 0d02 6D000000 		.4byte	0x6d
 2891 0d06 02       		.byte	0x2
 2892 0d07 23       		.byte	0x23
 2893 0d08 05       		.uleb128 0x5
 2894 0d09 10       		.uleb128 0x10
ARM GAS  C:\Users\Aayush\AppData\Local\Temp\ccPGXf2s.s 			page 72


 2895 0d0a BF080000 		.4byte	.LASF263
 2896 0d0e 0B       		.byte	0xb
 2897 0d0f 31       		.byte	0x31
 2898 0d10 0E       		.byte	0xe
 2899 0d11 AB010000 		.4byte	0x1ab
 2900 0d15 02       		.byte	0x2
 2901 0d16 23       		.byte	0x23
 2902 0d17 06       		.uleb128 0x6
 2903 0d18 10       		.uleb128 0x10
 2904 0d19 6E0F0000 		.4byte	.LASF264
 2905 0d1d 0B       		.byte	0xb
 2906 0d1e 32       		.byte	0x32
 2907 0d1f 0E       		.byte	0xe
 2908 0d20 AB010000 		.4byte	0x1ab
 2909 0d24 02       		.byte	0x2
 2910 0d25 23       		.byte	0x23
 2911 0d26 07       		.uleb128 0x7
 2912 0d27 10       		.uleb128 0x10
 2913 0d28 F4040000 		.4byte	.LASF265
 2914 0d2c 0B       		.byte	0xb
 2915 0d2d 33       		.byte	0x33
 2916 0d2e 09       		.byte	0x9
 2917 0d2f 640D0000 		.4byte	0xd64
 2918 0d33 02       		.byte	0x2
 2919 0d34 23       		.byte	0x23
 2920 0d35 08       		.uleb128 0x8
 2921 0d36 10       		.uleb128 0x10
 2922 0d37 FD0E0000 		.4byte	.LASF266
 2923 0d3b 0B       		.byte	0xb
 2924 0d3c 34       		.byte	0x34
 2925 0d3d 09       		.byte	0x9
 2926 0d3e 640D0000 		.4byte	0xd64
 2927 0d42 02       		.byte	0x2
 2928 0d43 23       		.byte	0x23
 2929 0d44 0C       		.uleb128 0xc
 2930 0d45 10       		.uleb128 0x10
 2931 0d46 C6050000 		.4byte	.LASF267
 2932 0d4a 0B       		.byte	0xb
 2933 0d4b 35       		.byte	0x35
 2934 0d4c 0E       		.byte	0xe
 2935 0d4d AB010000 		.4byte	0x1ab
 2936 0d51 02       		.byte	0x2
 2937 0d52 23       		.byte	0x23
 2938 0d53 10       		.uleb128 0x10
 2939 0d54 10       		.uleb128 0x10
 2940 0d55 9A150000 		.4byte	.LASF199
 2941 0d59 0B       		.byte	0xb
 2942 0d5a 37       		.byte	0x37
 2943 0d5b 0D       		.byte	0xd
 2944 0d5c B8010000 		.4byte	0x1b8
 2945 0d60 02       		.byte	0x2
 2946 0d61 23       		.byte	0x23
 2947 0d62 14       		.uleb128 0x14
 2948 0d63 00       		.byte	0
 2949 0d64 12       		.uleb128 0x12
 2950 0d65 6D000000 		.4byte	0x6d
 2951 0d69 740D0000 		.4byte	0xd74
ARM GAS  C:\Users\Aayush\AppData\Local\Temp\ccPGXf2s.s 			page 73


 2952 0d6d 13       		.uleb128 0x13
 2953 0d6e 2C000000 		.4byte	0x2c
 2954 0d72 03       		.byte	0x3
 2955 0d73 00       		.byte	0
 2956 0d74 05       		.uleb128 0x5
 2957 0d75 93020000 		.4byte	.LASF268
 2958 0d79 0B       		.byte	0xb
 2959 0d7a 39       		.byte	0x39
 2960 0d7b 02       		.byte	0x2
 2961 0d7c D30C0000 		.4byte	0xcd3
 2962 0d80 05       		.uleb128 0x5
 2963 0d81 F80D0000 		.4byte	.LASF269
 2964 0d85 0B       		.byte	0xb
 2965 0d86 3C       		.byte	0x3c
 2966 0d87 14       		.byte	0x14
 2967 0d88 8C0D0000 		.4byte	0xd8c
 2968 0d8c 0C       		.uleb128 0xc
 2969 0d8d 04       		.byte	0x4
 2970 0d8e 740D0000 		.4byte	0xd74
 2971 0d92 08       		.uleb128 0x8
 2972 0d93 07       		.byte	0x7
 2973 0d94 01       		.byte	0x1
 2974 0d95 3C000000 		.4byte	0x3c
 2975 0d99 0C       		.byte	0xc
 2976 0d9a 1F       		.byte	0x1f
 2977 0d9b 01       		.byte	0x1
 2978 0d9c B90D0000 		.4byte	0xdb9
 2979 0da0 09       		.uleb128 0x9
 2980 0da1 3B0B0000 		.4byte	.LASF270
 2981 0da5 00       		.byte	0
 2982 0da6 09       		.uleb128 0x9
 2983 0da7 9A0A0000 		.4byte	.LASF271
 2984 0dab 01       		.byte	0x1
 2985 0dac 09       		.uleb128 0x9
 2986 0dad 240B0000 		.4byte	.LASF272
 2987 0db1 02       		.byte	0x2
 2988 0db2 09       		.uleb128 0x9
 2989 0db3 B0140000 		.4byte	.LASF273
 2990 0db7 03       		.byte	0x3
 2991 0db8 00       		.byte	0
 2992 0db9 05       		.uleb128 0x5
 2993 0dba 8F100000 		.4byte	.LASF274
 2994 0dbe 0C       		.byte	0xc
 2995 0dbf 24       		.byte	0x24
 2996 0dc0 02       		.byte	0x2
 2997 0dc1 920D0000 		.4byte	0xd92
 2998 0dc5 15       		.uleb128 0x15
 2999 0dc6 08       		.byte	0x8
 3000 0dc7 0C       		.byte	0xc
 3001 0dc8 27       		.byte	0x27
 3002 0dc9 09       		.byte	0x9
 3003 0dca FC0D0000 		.4byte	0xdfc
 3004 0dce 10       		.uleb128 0x10
 3005 0dcf C6020000 		.4byte	.LASF275
 3006 0dd3 0C       		.byte	0xc
 3007 0dd4 29       		.byte	0x29
 3008 0dd5 0E       		.byte	0xe
ARM GAS  C:\Users\Aayush\AppData\Local\Temp\ccPGXf2s.s 			page 74


 3009 0dd6 FC0D0000 		.4byte	0xdfc
 3010 0dda 02       		.byte	0x2
 3011 0ddb 23       		.byte	0x23
 3012 0ddc 00       		.uleb128 0
 3013 0ddd 10       		.uleb128 0x10
 3014 0dde C9150000 		.4byte	.LASF276
 3015 0de2 0C       		.byte	0xc
 3016 0de3 2A       		.byte	0x2a
 3017 0de4 0C       		.byte	0xc
 3018 0de5 6D000000 		.4byte	0x6d
 3019 0de9 02       		.byte	0x2
 3020 0dea 23       		.byte	0x23
 3021 0deb 04       		.uleb128 0x4
 3022 0dec 10       		.uleb128 0x10
 3023 0ded 9D020000 		.4byte	.LASF159
 3024 0df1 0C       		.byte	0xc
 3025 0df2 2B       		.byte	0x2b
 3026 0df3 13       		.byte	0x13
 3027 0df4 B90D0000 		.4byte	0xdb9
 3028 0df8 02       		.byte	0x2
 3029 0df9 23       		.byte	0x23
 3030 0dfa 05       		.uleb128 0x5
 3031 0dfb 00       		.byte	0
 3032 0dfc 0C       		.uleb128 0xc
 3033 0dfd 04       		.byte	0x4
 3034 0dfe B8010000 		.4byte	0x1b8
 3035 0e02 05       		.uleb128 0x5
 3036 0e03 630F0000 		.4byte	.LASF277
 3037 0e07 0C       		.byte	0xc
 3038 0e08 2C       		.byte	0x2c
 3039 0e09 02       		.byte	0x2
 3040 0e0a C50D0000 		.4byte	0xdc5
 3041 0e0e 08       		.uleb128 0x8
 3042 0e0f 07       		.byte	0x7
 3043 0e10 01       		.byte	0x1
 3044 0e11 3C000000 		.4byte	0x3c
 3045 0e15 0D       		.byte	0xd
 3046 0e16 21       		.byte	0x21
 3047 0e17 0E       		.byte	0xe
 3048 0e18 350E0000 		.4byte	0xe35
 3049 0e1c 09       		.uleb128 0x9
 3050 0e1d 05090000 		.4byte	.LASF278
 3051 0e21 00       		.byte	0
 3052 0e22 09       		.uleb128 0x9
 3053 0e23 33070000 		.4byte	.LASF279
 3054 0e27 01       		.byte	0x1
 3055 0e28 09       		.uleb128 0x9
 3056 0e29 1A0F0000 		.4byte	.LASF280
 3057 0e2d 02       		.byte	0x2
 3058 0e2e 09       		.uleb128 0x9
 3059 0e2f D4000000 		.4byte	.LASF281
 3060 0e33 03       		.byte	0x3
 3061 0e34 00       		.byte	0
 3062 0e35 05       		.uleb128 0x5
 3063 0e36 FF130000 		.4byte	.LASF282
 3064 0e3a 0D       		.byte	0xd
 3065 0e3b 26       		.byte	0x26
ARM GAS  C:\Users\Aayush\AppData\Local\Temp\ccPGXf2s.s 			page 75


 3066 0e3c 02       		.byte	0x2
 3067 0e3d 0E0E0000 		.4byte	0xe0e
 3068 0e41 15       		.uleb128 0x15
 3069 0e42 70       		.byte	0x70
 3070 0e43 0D       		.byte	0xd
 3071 0e44 29       		.byte	0x29
 3072 0e45 09       		.byte	0x9
 3073 0e46 D20E0000 		.4byte	0xed2
 3074 0e4a 10       		.uleb128 0x10
 3075 0e4b E80B0000 		.4byte	.LASF283
 3076 0e4f 0D       		.byte	0xd
 3077 0e50 2A       		.byte	0x2a
 3078 0e51 13       		.byte	0x13
 3079 0e52 D20E0000 		.4byte	0xed2
 3080 0e56 02       		.byte	0x2
 3081 0e57 23       		.byte	0x23
 3082 0e58 00       		.uleb128 0
 3083 0e59 10       		.uleb128 0x10
 3084 0e5a B3100000 		.4byte	.LASF284
 3085 0e5e 0D       		.byte	0xd
 3086 0e5f 2B       		.byte	0x2b
 3087 0e60 13       		.byte	0x13
 3088 0e61 88070000 		.4byte	0x788
 3089 0e65 02       		.byte	0x2
 3090 0e66 23       		.byte	0x23
 3091 0e67 40       		.uleb128 0x40
 3092 0e68 10       		.uleb128 0x10
 3093 0e69 05080000 		.4byte	.LASF285
 3094 0e6d 0D       		.byte	0xd
 3095 0e6e 2C       		.byte	0x2c
 3096 0e6f 13       		.byte	0x13
 3097 0e70 88070000 		.4byte	0x788
 3098 0e74 02       		.byte	0x2
 3099 0e75 23       		.byte	0x23
 3100 0e76 48       		.uleb128 0x48
 3101 0e77 10       		.uleb128 0x10
 3102 0e78 14120000 		.4byte	.LASF286
 3103 0e7c 0D       		.byte	0xd
 3104 0e7d 2D       		.byte	0x2d
 3105 0e7e 13       		.byte	0x13
 3106 0e7f 88070000 		.4byte	0x788
 3107 0e83 02       		.byte	0x2
 3108 0e84 23       		.byte	0x23
 3109 0e85 50       		.uleb128 0x50
 3110 0e86 10       		.uleb128 0x10
 3111 0e87 7C160000 		.4byte	.LASF287
 3112 0e8b 0D       		.byte	0xd
 3113 0e8c 2E       		.byte	0x2e
 3114 0e8d 13       		.byte	0x13
 3115 0e8e 88070000 		.4byte	0x788
 3116 0e92 02       		.byte	0x2
 3117 0e93 23       		.byte	0x23
 3118 0e94 58       		.uleb128 0x58
 3119 0e95 10       		.uleb128 0x10
 3120 0e96 54010000 		.4byte	.LASF288
 3121 0e9a 0D       		.byte	0xd
 3122 0e9b 2F       		.byte	0x2f
ARM GAS  C:\Users\Aayush\AppData\Local\Temp\ccPGXf2s.s 			page 76


 3123 0e9c 13       		.byte	0x13
 3124 0e9d 88070000 		.4byte	0x788
 3125 0ea1 02       		.byte	0x2
 3126 0ea2 23       		.byte	0x23
 3127 0ea3 60       		.uleb128 0x60
 3128 0ea4 10       		.uleb128 0x10
 3129 0ea5 F4020000 		.4byte	.LASF289
 3130 0ea9 0D       		.byte	0xd
 3131 0eaa 30       		.byte	0x30
 3132 0eab 16       		.byte	0x16
 3133 0eac 350E0000 		.4byte	0xe35
 3134 0eb0 02       		.byte	0x2
 3135 0eb1 23       		.byte	0x23
 3136 0eb2 68       		.uleb128 0x68
 3137 0eb3 10       		.uleb128 0x10
 3138 0eb4 670C0000 		.4byte	.LASF290
 3139 0eb8 0D       		.byte	0xd
 3140 0eb9 31       		.byte	0x31
 3141 0eba 0C       		.byte	0xc
 3142 0ebb 83000000 		.4byte	0x83
 3143 0ebf 02       		.byte	0x2
 3144 0ec0 23       		.byte	0x23
 3145 0ec1 6A       		.uleb128 0x6a
 3146 0ec2 10       		.uleb128 0x10
 3147 0ec3 DD060000 		.4byte	.LASF291
 3148 0ec7 0D       		.byte	0xd
 3149 0ec8 32       		.byte	0x32
 3150 0ec9 0C       		.byte	0xc
 3151 0eca 83000000 		.4byte	0x83
 3152 0ece 02       		.byte	0x2
 3153 0ecf 23       		.byte	0x23
 3154 0ed0 6C       		.uleb128 0x6c
 3155 0ed1 00       		.byte	0
 3156 0ed2 12       		.uleb128 0x12
 3157 0ed3 88070000 		.4byte	0x788
 3158 0ed7 E20E0000 		.4byte	0xee2
 3159 0edb 13       		.uleb128 0x13
 3160 0edc 2C000000 		.4byte	0x2c
 3161 0ee0 07       		.byte	0x7
 3162 0ee1 00       		.byte	0
 3163 0ee2 05       		.uleb128 0x5
 3164 0ee3 10140000 		.4byte	.LASF292
 3165 0ee7 0D       		.byte	0xd
 3166 0ee8 33       		.byte	0x33
 3167 0ee9 02       		.byte	0x2
 3168 0eea 410E0000 		.4byte	0xe41
 3169 0eee 08       		.uleb128 0x8
 3170 0eef 07       		.byte	0x7
 3171 0ef0 01       		.byte	0x1
 3172 0ef1 3C000000 		.4byte	0x3c
 3173 0ef5 0E       		.byte	0xe
 3174 0ef6 15       		.byte	0x15
 3175 0ef7 0D       		.byte	0xd
 3176 0ef8 090F0000 		.4byte	0xf09
 3177 0efc 09       		.uleb128 0x9
 3178 0efd 190E0000 		.4byte	.LASF293
 3179 0f01 00       		.byte	0
ARM GAS  C:\Users\Aayush\AppData\Local\Temp\ccPGXf2s.s 			page 77


 3180 0f02 09       		.uleb128 0x9
 3181 0f03 31020000 		.4byte	.LASF294
 3182 0f07 01       		.byte	0x1
 3183 0f08 00       		.byte	0
 3184 0f09 05       		.uleb128 0x5
 3185 0f0a 0C050000 		.4byte	.LASF295
 3186 0f0e 0E       		.byte	0xe
 3187 0f0f 18       		.byte	0x18
 3188 0f10 02       		.byte	0x2
 3189 0f11 EE0E0000 		.4byte	0xeee
 3190 0f15 08       		.uleb128 0x8
 3191 0f16 07       		.byte	0x7
 3192 0f17 01       		.byte	0x1
 3193 0f18 3C000000 		.4byte	0x3c
 3194 0f1c 0E       		.byte	0xe
 3195 0f1d 1B       		.byte	0x1b
 3196 0f1e 0D       		.byte	0xd
 3197 0f1f 300F0000 		.4byte	0xf30
 3198 0f23 09       		.uleb128 0x9
 3199 0f24 DF140000 		.4byte	.LASF296
 3200 0f28 00       		.byte	0
 3201 0f29 09       		.uleb128 0x9
 3202 0f2a 500C0000 		.4byte	.LASF297
 3203 0f2e 08       		.byte	0x8
 3204 0f2f 00       		.byte	0
 3205 0f30 05       		.uleb128 0x5
 3206 0f31 AF010000 		.4byte	.LASF298
 3207 0f35 0E       		.byte	0xe
 3208 0f36 1E       		.byte	0x1e
 3209 0f37 02       		.byte	0x2
 3210 0f38 150F0000 		.4byte	0xf15
 3211 0f3c 15       		.uleb128 0x15
 3212 0f3d 2C       		.byte	0x2c
 3213 0f3e 0E       		.byte	0xe
 3214 0f3f 21       		.byte	0x21
 3215 0f40 09       		.byte	0x9
 3216 0f41 CD0F0000 		.4byte	0xfcd
 3217 0f45 10       		.uleb128 0x10
 3218 0f46 B90A0000 		.4byte	.LASF299
 3219 0f4a 0E       		.byte	0xe
 3220 0f4b 23       		.byte	0x23
 3221 0f4c 11       		.byte	0x11
 3222 0f4d 88070000 		.4byte	0x788
 3223 0f51 02       		.byte	0x2
 3224 0f52 23       		.byte	0x23
 3225 0f53 00       		.uleb128 0
 3226 0f54 10       		.uleb128 0x10
 3227 0f55 D3020000 		.4byte	.LASF300
 3228 0f59 0E       		.byte	0xe
 3229 0f5a 24       		.byte	0x24
 3230 0f5b 11       		.byte	0x11
 3231 0f5c 88070000 		.4byte	0x788
 3232 0f60 02       		.byte	0x2
 3233 0f61 23       		.byte	0x23
 3234 0f62 08       		.uleb128 0x8
 3235 0f63 10       		.uleb128 0x10
 3236 0f64 A9120000 		.4byte	.LASF301
ARM GAS  C:\Users\Aayush\AppData\Local\Temp\ccPGXf2s.s 			page 78


 3237 0f68 0E       		.byte	0xe
 3238 0f69 25       		.byte	0x25
 3239 0f6a 11       		.byte	0x11
 3240 0f6b 88070000 		.4byte	0x788
 3241 0f6f 02       		.byte	0x2
 3242 0f70 23       		.byte	0x23
 3243 0f71 10       		.uleb128 0x10
 3244 0f72 10       		.uleb128 0x10
 3245 0f73 9F090000 		.4byte	.LASF302
 3246 0f77 0E       		.byte	0xe
 3247 0f78 26       		.byte	0x26
 3248 0f79 1A       		.byte	0x1a
 3249 0f7a 090F0000 		.4byte	0xf09
 3250 0f7e 02       		.byte	0x2
 3251 0f7f 23       		.byte	0x23
 3252 0f80 18       		.uleb128 0x18
 3253 0f81 10       		.uleb128 0x10
 3254 0f82 85030000 		.4byte	.LASF303
 3255 0f86 0E       		.byte	0xe
 3256 0f87 27       		.byte	0x27
 3257 0f88 14       		.byte	0x14
 3258 0f89 300F0000 		.4byte	0xf30
 3259 0f8d 02       		.byte	0x2
 3260 0f8e 23       		.byte	0x23
 3261 0f8f 19       		.uleb128 0x19
 3262 0f90 10       		.uleb128 0x10
 3263 0f91 C6090000 		.4byte	.LASF304
 3264 0f95 0E       		.byte	0xe
 3265 0f96 28       		.byte	0x28
 3266 0f97 10       		.byte	0x10
 3267 0f98 E20F0000 		.4byte	0xfe2
 3268 0f9c 02       		.byte	0x2
 3269 0f9d 23       		.byte	0x23
 3270 0f9e 1C       		.uleb128 0x1c
 3271 0f9f 10       		.uleb128 0x10
 3272 0fa0 030E0000 		.4byte	.LASF305
 3273 0fa4 0E       		.byte	0xe
 3274 0fa5 29       		.byte	0x29
 3275 0fa6 10       		.byte	0x10
 3276 0fa7 FD0F0000 		.4byte	0xffd
 3277 0fab 02       		.byte	0x2
 3278 0fac 23       		.byte	0x23
 3279 0fad 20       		.uleb128 0x20
 3280 0fae 10       		.uleb128 0x10
 3281 0faf B9000000 		.4byte	.LASF306
 3282 0fb3 0E       		.byte	0xe
 3283 0fb4 2A       		.byte	0x2a
 3284 0fb5 10       		.byte	0x10
 3285 0fb6 22100000 		.4byte	0x1022
 3286 0fba 02       		.byte	0x2
 3287 0fbb 23       		.byte	0x23
 3288 0fbc 24       		.uleb128 0x24
 3289 0fbd 10       		.uleb128 0x10
 3290 0fbe 110E0000 		.4byte	.LASF307
 3291 0fc2 0E       		.byte	0xe
 3292 0fc3 2B       		.byte	0x2b
 3293 0fc4 10       		.byte	0x10
ARM GAS  C:\Users\Aayush\AppData\Local\Temp\ccPGXf2s.s 			page 79


 3294 0fc5 52100000 		.4byte	0x1052
 3295 0fc9 02       		.byte	0x2
 3296 0fca 23       		.byte	0x23
 3297 0fcb 28       		.uleb128 0x28
 3298 0fcc 00       		.byte	0
 3299 0fcd 16       		.uleb128 0x16
 3300 0fce 01       		.byte	0x1
 3301 0fcf 82010000 		.4byte	0x182
 3302 0fd3 E20F0000 		.4byte	0xfe2
 3303 0fd7 17       		.uleb128 0x17
 3304 0fd8 F1050000 		.4byte	0x5f1
 3305 0fdc 17       		.uleb128 0x17
 3306 0fdd 95070000 		.4byte	0x795
 3307 0fe1 00       		.byte	0
 3308 0fe2 0C       		.uleb128 0xc
 3309 0fe3 04       		.byte	0x4
 3310 0fe4 CD0F0000 		.4byte	0xfcd
 3311 0fe8 16       		.uleb128 0x16
 3312 0fe9 01       		.byte	0x1
 3313 0fea 82010000 		.4byte	0x182
 3314 0fee FD0F0000 		.4byte	0xffd
 3315 0ff2 17       		.uleb128 0x17
 3316 0ff3 F1050000 		.4byte	0x5f1
 3317 0ff7 17       		.uleb128 0x17
 3318 0ff8 6D000000 		.4byte	0x6d
 3319 0ffc 00       		.byte	0
 3320 0ffd 0C       		.uleb128 0xc
 3321 0ffe 04       		.byte	0x4
 3322 0fff E80F0000 		.4byte	0xfe8
 3323 1003 16       		.uleb128 0x16
 3324 1004 01       		.byte	0x1
 3325 1005 82010000 		.4byte	0x182
 3326 1009 22100000 		.4byte	0x1022
 3327 100d 17       		.uleb128 0x17
 3328 100e F1050000 		.4byte	0x5f1
 3329 1012 17       		.uleb128 0x17
 3330 1013 F1050000 		.4byte	0x5f1
 3331 1017 17       		.uleb128 0x17
 3332 1018 8F000000 		.4byte	0x8f
 3333 101c 17       		.uleb128 0x17
 3334 101d B8010000 		.4byte	0x1b8
 3335 1021 00       		.byte	0
 3336 1022 0C       		.uleb128 0xc
 3337 1023 04       		.byte	0x4
 3338 1024 03100000 		.4byte	0x1003
 3339 1028 16       		.uleb128 0x16
 3340 1029 01       		.byte	0x1
 3341 102a 82010000 		.4byte	0x182
 3342 102e 4C100000 		.4byte	0x104c
 3343 1032 17       		.uleb128 0x17
 3344 1033 F1050000 		.4byte	0x5f1
 3345 1037 17       		.uleb128 0x17
 3346 1038 F1050000 		.4byte	0x5f1
 3347 103c 17       		.uleb128 0x17
 3348 103d 8F000000 		.4byte	0x8f
 3349 1041 17       		.uleb128 0x17
 3350 1042 4C100000 		.4byte	0x104c
ARM GAS  C:\Users\Aayush\AppData\Local\Temp\ccPGXf2s.s 			page 80


 3351 1046 17       		.uleb128 0x17
 3352 1047 B8010000 		.4byte	0x1b8
 3353 104b 00       		.byte	0
 3354 104c 0C       		.uleb128 0xc
 3355 104d 04       		.byte	0x4
 3356 104e 8F000000 		.4byte	0x8f
 3357 1052 0C       		.uleb128 0xc
 3358 1053 04       		.byte	0x4
 3359 1054 28100000 		.4byte	0x1028
 3360 1058 05       		.uleb128 0x5
 3361 1059 0B120000 		.4byte	.LASF308
 3362 105d 0E       		.byte	0xe
 3363 105e 2C       		.byte	0x2c
 3364 105f 02       		.byte	0x2
 3365 1060 3C0F0000 		.4byte	0xf3c
 3366 1064 08       		.uleb128 0x8
 3367 1065 07       		.byte	0x7
 3368 1066 01       		.byte	0x1
 3369 1067 3C000000 		.4byte	0x3c
 3370 106b 0F       		.byte	0xf
 3371 106c 47       		.byte	0x47
 3372 106d 01       		.byte	0x1
 3373 106e A3100000 		.4byte	0x10a3
 3374 1072 09       		.uleb128 0x9
 3375 1073 66030000 		.4byte	.LASF309
 3376 1077 00       		.byte	0
 3377 1078 09       		.uleb128 0x9
 3378 1079 17040000 		.4byte	.LASF310
 3379 107d 01       		.byte	0x1
 3380 107e 09       		.uleb128 0x9
 3381 107f EF060000 		.4byte	.LASF311
 3382 1083 02       		.byte	0x2
 3383 1084 09       		.uleb128 0x9
 3384 1085 7C0D0000 		.4byte	.LASF312
 3385 1089 03       		.byte	0x3
 3386 108a 09       		.uleb128 0x9
 3387 108b CC0F0000 		.4byte	.LASF313
 3388 108f 04       		.byte	0x4
 3389 1090 09       		.uleb128 0x9
 3390 1091 780E0000 		.4byte	.LASF314
 3391 1095 05       		.byte	0x5
 3392 1096 09       		.uleb128 0x9
 3393 1097 33050000 		.4byte	.LASF315
 3394 109b 06       		.byte	0x6
 3395 109c 09       		.uleb128 0x9
 3396 109d A3150000 		.4byte	.LASF316
 3397 10a1 07       		.byte	0x7
 3398 10a2 00       		.byte	0
 3399 10a3 05       		.uleb128 0x5
 3400 10a4 DB0B0000 		.4byte	.LASF317
 3401 10a8 0F       		.byte	0xf
 3402 10a9 50       		.byte	0x50
 3403 10aa 02       		.byte	0x2
 3404 10ab 64100000 		.4byte	0x1064
 3405 10af 15       		.uleb128 0x15
 3406 10b0 10       		.byte	0x10
 3407 10b1 0F       		.byte	0xf
ARM GAS  C:\Users\Aayush\AppData\Local\Temp\ccPGXf2s.s 			page 81


 3408 10b2 53       		.byte	0x53
 3409 10b3 09       		.byte	0x9
 3410 10b4 F5100000 		.4byte	0x10f5
 3411 10b8 10       		.uleb128 0x10
 3412 10b9 BB030000 		.4byte	.LASF318
 3413 10bd 0F       		.byte	0xf
 3414 10be 55       		.byte	0x55
 3415 10bf 12       		.byte	0x12
 3416 10c0 A3100000 		.4byte	0x10a3
 3417 10c4 02       		.byte	0x2
 3418 10c5 23       		.byte	0x23
 3419 10c6 00       		.uleb128 0
 3420 10c7 10       		.uleb128 0x10
 3421 10c8 9A080000 		.4byte	.LASF319
 3422 10cc 0F       		.byte	0xf
 3423 10cd 56       		.byte	0x56
 3424 10ce 12       		.byte	0x12
 3425 10cf 19110000 		.4byte	0x1119
 3426 10d3 02       		.byte	0x2
 3427 10d4 23       		.byte	0x23
 3428 10d5 04       		.uleb128 0x4
 3429 10d6 10       		.uleb128 0x10
 3430 10d7 DB080000 		.4byte	.LASF320
 3431 10db 0F       		.byte	0xf
 3432 10dc 57       		.byte	0x57
 3433 10dd 12       		.byte	0x12
 3434 10de 48110000 		.4byte	0x1148
 3435 10e2 02       		.byte	0x2
 3436 10e3 23       		.byte	0x23
 3437 10e4 08       		.uleb128 0x8
 3438 10e5 10       		.uleb128 0x10
 3439 10e6 A0110000 		.4byte	.LASF321
 3440 10ea 0F       		.byte	0xf
 3441 10eb 58       		.byte	0x58
 3442 10ec 0C       		.byte	0xc
 3443 10ed 6D000000 		.4byte	0x6d
 3444 10f1 02       		.byte	0x2
 3445 10f2 23       		.byte	0x23
 3446 10f3 0C       		.uleb128 0xc
 3447 10f4 00       		.byte	0
 3448 10f5 16       		.uleb128 0x16
 3449 10f6 01       		.byte	0x1
 3450 10f7 82010000 		.4byte	0x182
 3451 10fb 19110000 		.4byte	0x1119
 3452 10ff 17       		.uleb128 0x17
 3453 1100 F1050000 		.4byte	0x5f1
 3454 1104 17       		.uleb128 0x17
 3455 1105 AB010000 		.4byte	0x1ab
 3456 1109 17       		.uleb128 0x17
 3457 110a 6D000000 		.4byte	0x6d
 3458 110e 17       		.uleb128 0x17
 3459 110f AB010000 		.4byte	0x1ab
 3460 1113 17       		.uleb128 0x17
 3461 1114 8F000000 		.4byte	0x8f
 3462 1118 00       		.byte	0
 3463 1119 0C       		.uleb128 0xc
 3464 111a 04       		.byte	0x4
ARM GAS  C:\Users\Aayush\AppData\Local\Temp\ccPGXf2s.s 			page 82


 3465 111b F5100000 		.4byte	0x10f5
 3466 111f 16       		.uleb128 0x16
 3467 1120 01       		.byte	0x1
 3468 1121 82010000 		.4byte	0x182
 3469 1125 48110000 		.4byte	0x1148
 3470 1129 17       		.uleb128 0x17
 3471 112a F1050000 		.4byte	0x5f1
 3472 112e 17       		.uleb128 0x17
 3473 112f AB010000 		.4byte	0x1ab
 3474 1133 17       		.uleb128 0x17
 3475 1134 6D000000 		.4byte	0x6d
 3476 1138 17       		.uleb128 0x17
 3477 1139 AB010000 		.4byte	0x1ab
 3478 113d 17       		.uleb128 0x17
 3479 113e 8F000000 		.4byte	0x8f
 3480 1142 17       		.uleb128 0x17
 3481 1143 4C100000 		.4byte	0x104c
 3482 1147 00       		.byte	0
 3483 1148 0C       		.uleb128 0xc
 3484 1149 04       		.byte	0x4
 3485 114a 1F110000 		.4byte	0x111f
 3486 114e 05       		.uleb128 0x5
 3487 114f 710D0000 		.4byte	.LASF322
 3488 1153 0F       		.byte	0xf
 3489 1154 59       		.byte	0x59
 3490 1155 02       		.byte	0x2
 3491 1156 AF100000 		.4byte	0x10af
 3492 115a 15       		.uleb128 0x15
 3493 115b 08       		.byte	0x8
 3494 115c 10       		.byte	0x10
 3495 115d 05       		.byte	0x5
 3496 115e 09       		.byte	0x9
 3497 115f 73110000 		.4byte	0x1173
 3498 1163 10       		.uleb128 0x10
 3499 1164 8B120000 		.4byte	.LASF323
 3500 1168 10       		.byte	0x10
 3501 1169 07       		.byte	0x7
 3502 116a 13       		.byte	0x13
 3503 116b 88070000 		.4byte	0x788
 3504 116f 02       		.byte	0x2
 3505 1170 23       		.byte	0x23
 3506 1171 00       		.uleb128 0
 3507 1172 00       		.byte	0
 3508 1173 05       		.uleb128 0x5
 3509 1174 8D060000 		.4byte	.LASF324
 3510 1178 10       		.byte	0x10
 3511 1179 08       		.byte	0x8
 3512 117a 02       		.byte	0x2
 3513 117b 5A110000 		.4byte	0x115a
 3514 117f 15       		.uleb128 0x15
 3515 1180 34       		.byte	0x34
 3516 1181 11       		.byte	0x11
 3517 1182 21       		.byte	0x21
 3518 1183 09       		.byte	0x9
 3519 1184 2E120000 		.4byte	0x122e
 3520 1188 10       		.uleb128 0x10
 3521 1189 B3100000 		.4byte	.LASF284
ARM GAS  C:\Users\Aayush\AppData\Local\Temp\ccPGXf2s.s 			page 83


 3522 118d 11       		.byte	0x11
 3523 118e 23       		.byte	0x23
 3524 118f 13       		.byte	0x13
 3525 1190 88070000 		.4byte	0x788
 3526 1194 02       		.byte	0x2
 3527 1195 23       		.byte	0x23
 3528 1196 00       		.uleb128 0
 3529 1197 10       		.uleb128 0x10
 3530 1198 64020000 		.4byte	.LASF325
 3531 119c 11       		.byte	0x11
 3532 119d 24       		.byte	0x24
 3533 119e 13       		.byte	0x13
 3534 119f 88070000 		.4byte	0x788
 3535 11a3 02       		.byte	0x2
 3536 11a4 23       		.byte	0x23
 3537 11a5 08       		.uleb128 0x8
 3538 11a6 10       		.uleb128 0x10
 3539 11a7 39150000 		.4byte	.LASF326
 3540 11ab 11       		.byte	0x11
 3541 11ac 25       		.byte	0x25
 3542 11ad 13       		.byte	0x13
 3543 11ae 88070000 		.4byte	0x788
 3544 11b2 02       		.byte	0x2
 3545 11b3 23       		.byte	0x23
 3546 11b4 10       		.uleb128 0x10
 3547 11b5 10       		.uleb128 0x10
 3548 11b6 E4020000 		.4byte	.LASF327
 3549 11ba 11       		.byte	0x11
 3550 11bb 26       		.byte	0x26
 3551 11bc 11       		.byte	0x11
 3552 11bd AB010000 		.4byte	0x1ab
 3553 11c1 02       		.byte	0x2
 3554 11c2 23       		.byte	0x23
 3555 11c3 18       		.uleb128 0x18
 3556 11c4 10       		.uleb128 0x10
 3557 11c5 31090000 		.4byte	.LASF328
 3558 11c9 11       		.byte	0x11
 3559 11ca 27       		.byte	0x27
 3560 11cb 11       		.byte	0x11
 3561 11cc AB010000 		.4byte	0x1ab
 3562 11d0 02       		.byte	0x2
 3563 11d1 23       		.byte	0x23
 3564 11d2 19       		.uleb128 0x19
 3565 11d3 10       		.uleb128 0x10
 3566 11d4 4C0A0000 		.4byte	.LASF329
 3567 11d8 11       		.byte	0x11
 3568 11d9 28       		.byte	0x28
 3569 11da 12       		.byte	0x12
 3570 11db E20F0000 		.4byte	0xfe2
 3571 11df 02       		.byte	0x2
 3572 11e0 23       		.byte	0x23
 3573 11e1 1C       		.uleb128 0x1c
 3574 11e2 10       		.uleb128 0x10
 3575 11e3 F20A0000 		.4byte	.LASF330
 3576 11e7 11       		.byte	0x11
 3577 11e8 29       		.byte	0x29
 3578 11e9 12       		.byte	0x12
ARM GAS  C:\Users\Aayush\AppData\Local\Temp\ccPGXf2s.s 			page 84


 3579 11ea 3E120000 		.4byte	0x123e
 3580 11ee 02       		.byte	0x2
 3581 11ef 23       		.byte	0x23
 3582 11f0 20       		.uleb128 0x20
 3583 11f1 10       		.uleb128 0x10
 3584 11f2 030E0000 		.4byte	.LASF305
 3585 11f6 11       		.byte	0x11
 3586 11f7 2A       		.byte	0x2a
 3587 11f8 12       		.byte	0x12
 3588 11f9 FD0F0000 		.4byte	0xffd
 3589 11fd 02       		.byte	0x2
 3590 11fe 23       		.byte	0x23
 3591 11ff 24       		.uleb128 0x24
 3592 1200 10       		.uleb128 0x10
 3593 1201 AD070000 		.4byte	.LASF331
 3594 1205 11       		.byte	0x11
 3595 1206 2B       		.byte	0x2b
 3596 1207 12       		.byte	0x12
 3597 1208 5E120000 		.4byte	0x125e
 3598 120c 02       		.byte	0x2
 3599 120d 23       		.byte	0x23
 3600 120e 28       		.uleb128 0x28
 3601 120f 10       		.uleb128 0x10
 3602 1210 B9000000 		.4byte	.LASF306
 3603 1214 11       		.byte	0x11
 3604 1215 2C       		.byte	0x2c
 3605 1216 0F       		.byte	0xf
 3606 1217 22100000 		.4byte	0x1022
 3607 121b 02       		.byte	0x2
 3608 121c 23       		.byte	0x23
 3609 121d 2C       		.uleb128 0x2c
 3610 121e 10       		.uleb128 0x10
 3611 121f 110E0000 		.4byte	.LASF307
 3612 1223 11       		.byte	0x11
 3613 1224 2D       		.byte	0x2d
 3614 1225 0F       		.byte	0xf
 3615 1226 52100000 		.4byte	0x1052
 3616 122a 02       		.byte	0x2
 3617 122b 23       		.byte	0x23
 3618 122c 30       		.uleb128 0x30
 3619 122d 00       		.byte	0
 3620 122e 16       		.uleb128 0x16
 3621 122f 01       		.byte	0x1
 3622 1230 82010000 		.4byte	0x182
 3623 1234 3E120000 		.4byte	0x123e
 3624 1238 17       		.uleb128 0x17
 3625 1239 F1050000 		.4byte	0x5f1
 3626 123d 00       		.byte	0
 3627 123e 0C       		.uleb128 0xc
 3628 123f 04       		.byte	0x4
 3629 1240 2E120000 		.4byte	0x122e
 3630 1244 16       		.uleb128 0x16
 3631 1245 01       		.byte	0x1
 3632 1246 82010000 		.4byte	0x182
 3633 124a 5E120000 		.4byte	0x125e
 3634 124e 17       		.uleb128 0x17
 3635 124f F1050000 		.4byte	0x5f1
ARM GAS  C:\Users\Aayush\AppData\Local\Temp\ccPGXf2s.s 			page 85


 3636 1253 17       		.uleb128 0x17
 3637 1254 6D000000 		.4byte	0x6d
 3638 1258 17       		.uleb128 0x17
 3639 1259 F1050000 		.4byte	0x5f1
 3640 125d 00       		.byte	0
 3641 125e 0C       		.uleb128 0xc
 3642 125f 04       		.byte	0x4
 3643 1260 44120000 		.4byte	0x1244
 3644 1264 05       		.uleb128 0x5
 3645 1265 2F0F0000 		.4byte	.LASF332
 3646 1269 11       		.byte	0x11
 3647 126a 2E       		.byte	0x2e
 3648 126b 02       		.byte	0x2
 3649 126c 7F110000 		.4byte	0x117f
 3650 1270 05       		.uleb128 0x5
 3651 1271 22030000 		.4byte	.LASF333
 3652 1275 11       		.byte	0x11
 3653 1276 31       		.byte	0x31
 3654 1277 11       		.byte	0x11
 3655 1278 7C120000 		.4byte	0x127c
 3656 127c 0C       		.uleb128 0xc
 3657 127d 04       		.byte	0x4
 3658 127e 64120000 		.4byte	0x1264
 3659 1282 15       		.uleb128 0x15
 3660 1283 1C       		.byte	0x1c
 3661 1284 12       		.byte	0x12
 3662 1285 0E       		.byte	0xe
 3663 1286 09       		.byte	0x9
 3664 1287 04130000 		.4byte	0x1304
 3665 128b 10       		.uleb128 0x10
 3666 128c D7150000 		.4byte	.LASF334
 3667 1290 12       		.byte	0x12
 3668 1291 10       		.byte	0x10
 3669 1292 08       		.byte	0x8
 3670 1293 33000000 		.4byte	0x33
 3671 1297 02       		.byte	0x2
 3672 1298 23       		.byte	0x23
 3673 1299 00       		.uleb128 0
 3674 129a 10       		.uleb128 0x10
 3675 129b 66160000 		.4byte	.LASF335
 3676 129f 12       		.byte	0x12
 3677 12a0 11       		.byte	0x11
 3678 12a1 0F       		.byte	0xf
 3679 12a2 19130000 		.4byte	0x1319
 3680 12a6 02       		.byte	0x2
 3681 12a7 23       		.byte	0x23
 3682 12a8 04       		.uleb128 0x4
 3683 12a9 10       		.uleb128 0x10
 3684 12aa A2010000 		.4byte	.LASF336
 3685 12ae 12       		.byte	0x12
 3686 12af 12       		.byte	0x12
 3687 12b0 0F       		.byte	0xf
 3688 12b1 DB050000 		.4byte	0x5db
 3689 12b5 02       		.byte	0x2
 3690 12b6 23       		.byte	0x23
 3691 12b7 08       		.uleb128 0x8
 3692 12b8 10       		.uleb128 0x10
ARM GAS  C:\Users\Aayush\AppData\Local\Temp\ccPGXf2s.s 			page 86


 3693 12b9 21100000 		.4byte	.LASF337
 3694 12bd 12       		.byte	0x12
 3695 12be 13       		.byte	0x13
 3696 12bf 0F       		.byte	0xf
 3697 12c0 3E130000 		.4byte	0x133e
 3698 12c4 02       		.byte	0x2
 3699 12c5 23       		.byte	0x23
 3700 12c6 0C       		.uleb128 0xc
 3701 12c7 10       		.uleb128 0x10
 3702 12c8 A3060000 		.4byte	.LASF338
 3703 12cc 12       		.byte	0x12
 3704 12cd 14       		.byte	0x14
 3705 12ce 0F       		.byte	0xf
 3706 12cf 69130000 		.4byte	0x1369
 3707 12d3 02       		.byte	0x2
 3708 12d4 23       		.byte	0x23
 3709 12d5 10       		.uleb128 0x10
 3710 12d6 10       		.uleb128 0x10
 3711 12d7 04150000 		.4byte	.LASF339
 3712 12db 12       		.byte	0x12
 3713 12dc 15       		.byte	0x15
 3714 12dd 0F       		.byte	0xf
 3715 12de 89130000 		.4byte	0x1389
 3716 12e2 02       		.byte	0x2
 3717 12e3 23       		.byte	0x23
 3718 12e4 14       		.uleb128 0x14
 3719 12e5 10       		.uleb128 0x10
 3720 12e6 B0030000 		.4byte	.LASF340
 3721 12ea 12       		.byte	0x12
 3722 12eb 16       		.byte	0x16
 3723 12ec 0E       		.byte	0xe
 3724 12ed AB010000 		.4byte	0x1ab
 3725 12f1 02       		.byte	0x2
 3726 12f2 23       		.byte	0x23
 3727 12f3 18       		.uleb128 0x18
 3728 12f4 10       		.uleb128 0x10
 3729 12f5 5A160000 		.4byte	.LASF341
 3730 12f9 12       		.byte	0x12
 3731 12fa 17       		.byte	0x17
 3732 12fb 0E       		.byte	0xe
 3733 12fc AB010000 		.4byte	0x1ab
 3734 1300 02       		.byte	0x2
 3735 1301 23       		.byte	0x23
 3736 1302 19       		.uleb128 0x19
 3737 1303 00       		.byte	0
 3738 1304 16       		.uleb128 0x16
 3739 1305 01       		.byte	0x1
 3740 1306 82010000 		.4byte	0x182
 3741 130a 19130000 		.4byte	0x1319
 3742 130e 17       		.uleb128 0x17
 3743 130f F1050000 		.4byte	0x5f1
 3744 1313 17       		.uleb128 0x17
 3745 1314 70120000 		.4byte	0x1270
 3746 1318 00       		.byte	0
 3747 1319 0C       		.uleb128 0xc
 3748 131a 04       		.byte	0x4
 3749 131b 04130000 		.4byte	0x1304
ARM GAS  C:\Users\Aayush\AppData\Local\Temp\ccPGXf2s.s 			page 87


 3750 131f 16       		.uleb128 0x16
 3751 1320 01       		.byte	0x1
 3752 1321 82010000 		.4byte	0x182
 3753 1325 3E130000 		.4byte	0x133e
 3754 1329 17       		.uleb128 0x17
 3755 132a 6D000000 		.4byte	0x6d
 3756 132e 17       		.uleb128 0x17
 3757 132f F1050000 		.4byte	0x5f1
 3758 1333 17       		.uleb128 0x17
 3759 1334 8F000000 		.4byte	0x8f
 3760 1338 17       		.uleb128 0x17
 3761 1339 6D000000 		.4byte	0x6d
 3762 133d 00       		.byte	0
 3763 133e 0C       		.uleb128 0xc
 3764 133f 04       		.byte	0x4
 3765 1340 1F130000 		.4byte	0x131f
 3766 1344 16       		.uleb128 0x16
 3767 1345 01       		.byte	0x1
 3768 1346 82010000 		.4byte	0x182
 3769 134a 63130000 		.4byte	0x1363
 3770 134e 17       		.uleb128 0x17
 3771 134f 6D000000 		.4byte	0x6d
 3772 1353 17       		.uleb128 0x17
 3773 1354 63130000 		.4byte	0x1363
 3774 1358 17       		.uleb128 0x17
 3775 1359 8F000000 		.4byte	0x8f
 3776 135d 17       		.uleb128 0x17
 3777 135e 6D000000 		.4byte	0x6d
 3778 1362 00       		.byte	0
 3779 1363 0C       		.uleb128 0xc
 3780 1364 04       		.byte	0x4
 3781 1365 7E000000 		.4byte	0x7e
 3782 1369 0C       		.uleb128 0xc
 3783 136a 04       		.byte	0x4
 3784 136b 44130000 		.4byte	0x1344
 3785 136f 16       		.uleb128 0x16
 3786 1370 01       		.byte	0x1
 3787 1371 82010000 		.4byte	0x182
 3788 1375 89130000 		.4byte	0x1389
 3789 1379 17       		.uleb128 0x17
 3790 137a 6D000000 		.4byte	0x6d
 3791 137e 17       		.uleb128 0x17
 3792 137f 6D000000 		.4byte	0x6d
 3793 1383 17       		.uleb128 0x17
 3794 1384 33000000 		.4byte	0x33
 3795 1388 00       		.byte	0
 3796 1389 0C       		.uleb128 0xc
 3797 138a 04       		.byte	0x4
 3798 138b 6F130000 		.4byte	0x136f
 3799 138f 05       		.uleb128 0x5
 3800 1390 54070000 		.4byte	.LASF342
 3801 1394 12       		.byte	0x12
 3802 1395 18       		.byte	0x18
 3803 1396 02       		.byte	0x2
 3804 1397 82120000 		.4byte	0x1282
 3805 139b 05       		.uleb128 0x5
 3806 139c 57140000 		.4byte	.LASF343
ARM GAS  C:\Users\Aayush\AppData\Local\Temp\ccPGXf2s.s 			page 88


 3807 13a0 12       		.byte	0x12
 3808 13a1 1B       		.byte	0x1b
 3809 13a2 12       		.byte	0x12
 3810 13a3 A7130000 		.4byte	0x13a7
 3811 13a7 0C       		.uleb128 0xc
 3812 13a8 04       		.byte	0x4
 3813 13a9 8F130000 		.4byte	0x138f
 3814 13ad 1B       		.uleb128 0x1b
 3815 13ae 3402     		.2byte	0x234
 3816 13b0 13       		.byte	0x13
 3817 13b1 1F01     		.2byte	0x11f
 3818 13b3 09       		.byte	0x9
 3819 13b4 E8140000 		.4byte	0x14e8
 3820 13b8 19       		.uleb128 0x19
 3821 13b9 47070000 		.4byte	.LASF344
 3822 13bd 13       		.byte	0x13
 3823 13be 2001     		.2byte	0x120
 3824 13c0 09       		.byte	0x9
 3825 13c1 6D000000 		.4byte	0x6d
 3826 13c5 02       		.byte	0x2
 3827 13c6 23       		.byte	0x23
 3828 13c7 00       		.uleb128 0
 3829 13c8 19       		.uleb128 0x19
 3830 13c9 4D000000 		.4byte	.LASF345
 3831 13cd 13       		.byte	0x13
 3832 13ce 2101     		.2byte	0x121
 3833 13d0 0A       		.byte	0xa
 3834 13d1 6D000000 		.4byte	0x6d
 3835 13d5 02       		.byte	0x2
 3836 13d6 23       		.byte	0x23
 3837 13d7 01       		.uleb128 0x1
 3838 13d8 19       		.uleb128 0x19
 3839 13d9 8C040000 		.4byte	.LASF346
 3840 13dd 13       		.byte	0x13
 3841 13de 2201     		.2byte	0x122
 3842 13e0 09       		.byte	0x9
 3843 13e1 6D000000 		.4byte	0x6d
 3844 13e5 02       		.byte	0x2
 3845 13e6 23       		.byte	0x23
 3846 13e7 02       		.uleb128 0x2
 3847 13e8 19       		.uleb128 0x19
 3848 13e9 9B010000 		.4byte	.LASF347
 3849 13ed 13       		.byte	0x13
 3850 13ee 2301     		.2byte	0x123
 3851 13f0 09       		.byte	0x9
 3852 13f1 6D000000 		.4byte	0x6d
 3853 13f5 02       		.byte	0x2
 3854 13f6 23       		.byte	0x23
 3855 13f7 03       		.uleb128 0x3
 3856 13f8 19       		.uleb128 0x19
 3857 13f9 E9000000 		.4byte	.LASF348
 3858 13fd 13       		.byte	0x13
 3859 13fe 2401     		.2byte	0x124
 3860 1400 09       		.byte	0x9
 3861 1401 6D000000 		.4byte	0x6d
 3862 1405 02       		.byte	0x2
 3863 1406 23       		.byte	0x23
ARM GAS  C:\Users\Aayush\AppData\Local\Temp\ccPGXf2s.s 			page 89


 3864 1407 04       		.uleb128 0x4
 3865 1408 19       		.uleb128 0x19
 3866 1409 3C110000 		.4byte	.LASF349
 3867 140d 13       		.byte	0x13
 3868 140e 2501     		.2byte	0x125
 3869 1410 09       		.byte	0x9
 3870 1411 6D000000 		.4byte	0x6d
 3871 1415 02       		.byte	0x2
 3872 1416 23       		.byte	0x23
 3873 1417 05       		.uleb128 0x5
 3874 1418 1A       		.uleb128 0x1a
 3875 1419 696400   		.ascii	"id\000"
 3876 141c 13       		.byte	0x13
 3877 141d 2601     		.2byte	0x126
 3878 141f 09       		.byte	0x9
 3879 1420 83000000 		.4byte	0x83
 3880 1424 02       		.byte	0x2
 3881 1425 23       		.byte	0x23
 3882 1426 06       		.uleb128 0x6
 3883 1427 19       		.uleb128 0x19
 3884 1428 08100000 		.4byte	.LASF350
 3885 142c 13       		.byte	0x13
 3886 142d 2701     		.2byte	0x127
 3887 142f 09       		.byte	0x9
 3888 1430 83000000 		.4byte	0x83
 3889 1434 02       		.byte	0x2
 3890 1435 23       		.byte	0x23
 3891 1436 08       		.uleb128 0x8
 3892 1437 19       		.uleb128 0x19
 3893 1438 65090000 		.4byte	.LASF351
 3894 143c 13       		.byte	0x13
 3895 143d 2F01     		.2byte	0x12f
 3896 143f 0A       		.byte	0xa
 3897 1440 8F000000 		.4byte	0x8f
 3898 1444 02       		.byte	0x2
 3899 1445 23       		.byte	0x23
 3900 1446 0C       		.uleb128 0xc
 3901 1447 19       		.uleb128 0x19
 3902 1448 BB090000 		.4byte	.LASF352
 3903 144c 13       		.byte	0x13
 3904 144d 3001     		.2byte	0x130
 3905 144f 0A       		.byte	0xa
 3906 1450 8F000000 		.4byte	0x8f
 3907 1454 02       		.byte	0x2
 3908 1455 23       		.byte	0x23
 3909 1456 10       		.uleb128 0x10
 3910 1457 19       		.uleb128 0x19
 3911 1458 70090000 		.4byte	.LASF353
 3912 145c 13       		.byte	0x13
 3913 145d 3101     		.2byte	0x131
 3914 145f 0A       		.byte	0xa
 3915 1460 8F000000 		.4byte	0x8f
 3916 1464 02       		.byte	0x2
 3917 1465 23       		.byte	0x23
 3918 1466 14       		.uleb128 0x14
 3919 1467 19       		.uleb128 0x19
 3920 1468 4F070000 		.4byte	.LASF354
ARM GAS  C:\Users\Aayush\AppData\Local\Temp\ccPGXf2s.s 			page 90


 3921 146c 13       		.byte	0x13
 3922 146d 3401     		.2byte	0x134
 3923 146f 0A       		.byte	0xa
 3924 1470 8F000000 		.4byte	0x8f
 3925 1474 02       		.byte	0x2
 3926 1475 23       		.byte	0x23
 3927 1476 18       		.uleb128 0x18
 3928 1477 19       		.uleb128 0x19
 3929 1478 0C0D0000 		.4byte	.LASF355
 3930 147c 13       		.byte	0x13
 3931 147d 3601     		.2byte	0x136
 3932 147f 0A       		.byte	0xa
 3933 1480 8F000000 		.4byte	0x8f
 3934 1484 02       		.byte	0x2
 3935 1485 23       		.byte	0x23
 3936 1486 1C       		.uleb128 0x1c
 3937 1487 19       		.uleb128 0x19
 3938 1488 E8120000 		.4byte	.LASF356
 3939 148c 13       		.byte	0x13
 3940 148d 3701     		.2byte	0x137
 3941 148f 0A       		.byte	0xa
 3942 1490 8F000000 		.4byte	0x8f
 3943 1494 02       		.byte	0x2
 3944 1495 23       		.byte	0x23
 3945 1496 20       		.uleb128 0x20
 3946 1497 19       		.uleb128 0x19
 3947 1498 BE050000 		.4byte	.LASF357
 3948 149c 13       		.byte	0x13
 3949 149d 3801     		.2byte	0x138
 3950 149f 0A       		.byte	0xa
 3951 14a0 8F000000 		.4byte	0x8f
 3952 14a4 02       		.byte	0x2
 3953 14a5 23       		.byte	0x23
 3954 14a6 24       		.uleb128 0x24
 3955 14a7 19       		.uleb128 0x19
 3956 14a8 C40F0000 		.4byte	.LASF358
 3957 14ac 13       		.byte	0x13
 3958 14ad 3901     		.2byte	0x139
 3959 14af 0A       		.byte	0xa
 3960 14b0 8F000000 		.4byte	0x8f
 3961 14b4 02       		.byte	0x2
 3962 14b5 23       		.byte	0x23
 3963 14b6 28       		.uleb128 0x28
 3964 14b7 19       		.uleb128 0x19
 3965 14b8 60140000 		.4byte	.LASF359
 3966 14bc 13       		.byte	0x13
 3967 14bd 3A01     		.2byte	0x13a
 3968 14bf 0A       		.byte	0xa
 3969 14c0 8F000000 		.4byte	0x8f
 3970 14c4 02       		.byte	0x2
 3971 14c5 23       		.byte	0x23
 3972 14c6 2C       		.uleb128 0x2c
 3973 14c7 19       		.uleb128 0x19
 3974 14c8 B0110000 		.4byte	.LASF360
 3975 14cc 13       		.byte	0x13
 3976 14cd 3B01     		.2byte	0x13b
 3977 14cf 0A       		.byte	0xa
ARM GAS  C:\Users\Aayush\AppData\Local\Temp\ccPGXf2s.s 			page 91


 3978 14d0 8F000000 		.4byte	0x8f
 3979 14d4 02       		.byte	0x2
 3980 14d5 23       		.byte	0x23
 3981 14d6 30       		.uleb128 0x30
 3982 14d7 1A       		.uleb128 0x1a
 3983 14d8 77696E00 		.ascii	"win\000"
 3984 14dc 13       		.byte	0x13
 3985 14dd 3C01     		.2byte	0x13c
 3986 14df 09       		.byte	0x9
 3987 14e0 E8140000 		.4byte	0x14e8
 3988 14e4 02       		.byte	0x2
 3989 14e5 23       		.byte	0x23
 3990 14e6 34       		.uleb128 0x34
 3991 14e7 00       		.byte	0
 3992 14e8 12       		.uleb128 0x12
 3993 14e9 6D000000 		.4byte	0x6d
 3994 14ed F9140000 		.4byte	0x14f9
 3995 14f1 14       		.uleb128 0x14
 3996 14f2 2C000000 		.4byte	0x2c
 3997 14f6 FF01     		.2byte	0x1ff
 3998 14f8 00       		.byte	0
 3999 14f9 0A       		.uleb128 0xa
 4000 14fa E10C0000 		.4byte	.LASF361
 4001 14fe 13       		.byte	0x13
 4002 14ff 3D01     		.2byte	0x13d
 4003 1501 03       		.byte	0x3
 4004 1502 AD130000 		.4byte	0x13ad
 4005 1506 12       		.uleb128 0x12
 4006 1507 13080000 		.4byte	0x813
 4007 150b 16150000 		.4byte	0x1516
 4008 150f 13       		.uleb128 0x13
 4009 1510 2C000000 		.4byte	0x2c
 4010 1514 04       		.byte	0x4
 4011 1515 00       		.byte	0
 4012 1516 1C       		.uleb128 0x1c
 4013 1517 F4100000 		.4byte	.LASF362
 4014 151b 14       		.byte	0x14
 4015 151c 0B       		.byte	0xb
 4016 151d 12       		.byte	0x12
 4017 151e 06150000 		.4byte	0x1506
 4018 1522 01       		.byte	0x1
 4019 1523 01       		.byte	0x1
 4020 1524 12       		.uleb128 0x12
 4021 1525 13080000 		.4byte	0x813
 4022 1529 34150000 		.4byte	0x1534
 4023 152d 13       		.uleb128 0x13
 4024 152e 2C000000 		.4byte	0x2c
 4025 1532 01       		.byte	0x1
 4026 1533 00       		.byte	0
 4027 1534 1C       		.uleb128 0x1c
 4028 1535 A2020000 		.4byte	.LASF363
 4029 1539 14       		.byte	0x14
 4030 153a 0D       		.byte	0xd
 4031 153b 12       		.byte	0x12
 4032 153c 24150000 		.4byte	0x1524
 4033 1540 01       		.byte	0x1
 4034 1541 01       		.byte	0x1
ARM GAS  C:\Users\Aayush\AppData\Local\Temp\ccPGXf2s.s 			page 92


 4035 1542 1C       		.uleb128 0x1c
 4036 1543 40030000 		.4byte	.LASF364
 4037 1547 14       		.byte	0x14
 4038 1548 13       		.byte	0x13
 4039 1549 12       		.byte	0x12
 4040 154a 13080000 		.4byte	0x813
 4041 154e 01       		.byte	0x1
 4042 154f 01       		.byte	0x1
 4043 1550 12       		.uleb128 0x12
 4044 1551 13080000 		.4byte	0x813
 4045 1555 60150000 		.4byte	0x1560
 4046 1559 13       		.uleb128 0x13
 4047 155a 2C000000 		.4byte	0x2c
 4048 155e 03       		.byte	0x3
 4049 155f 00       		.byte	0
 4050 1560 12       		.uleb128 0x12
 4051 1561 13080000 		.4byte	0x813
 4052 1565 70150000 		.4byte	0x1570
 4053 1569 13       		.uleb128 0x13
 4054 156a 2C000000 		.4byte	0x2c
 4055 156e 05       		.byte	0x5
 4056 156f 00       		.byte	0
 4057 1570 1C       		.uleb128 0x1c
 4058 1571 D8090000 		.4byte	.LASF365
 4059 1575 14       		.byte	0x14
 4060 1576 21       		.byte	0x21
 4061 1577 12       		.byte	0x12
 4062 1578 60150000 		.4byte	0x1560
 4063 157c 01       		.byte	0x1
 4064 157d 01       		.byte	0x1
 4065 157e 1C       		.uleb128 0x1c
 4066 157f 48150000 		.4byte	.LASF366
 4067 1583 14       		.byte	0x14
 4068 1584 22       		.byte	0x22
 4069 1585 12       		.byte	0x12
 4070 1586 50150000 		.4byte	0x1550
 4071 158a 01       		.byte	0x1
 4072 158b 01       		.byte	0x1
 4073 158c 1C       		.uleb128 0x1c
 4074 158d 47050000 		.4byte	.LASF367
 4075 1591 14       		.byte	0x14
 4076 1592 23       		.byte	0x23
 4077 1593 12       		.byte	0x12
 4078 1594 60150000 		.4byte	0x1560
 4079 1598 01       		.byte	0x1
 4080 1599 01       		.byte	0x1
 4081 159a 1D       		.uleb128 0x1d
 4082 159b 8C140000 		.4byte	.LASF368
 4083 159f 01       		.byte	0x1
 4084 15a0 2A       		.byte	0x2a
 4085 15a1 0A       		.byte	0xa
 4086 15a2 95060000 		.4byte	0x695
 4087 15a6 01       		.byte	0x1
 4088 15a7 05       		.byte	0x5
 4089 15a8 03       		.byte	0x3
 4090 15a9 00000000 		.4byte	clkConfig
 4091 15ad 1D       		.uleb128 0x1d
ARM GAS  C:\Users\Aayush\AppData\Local\Temp\ccPGXf2s.s 			page 93


 4092 15ae DC070000 		.4byte	.LASF369
 4093 15b2 01       		.byte	0x1
 4094 15b3 32       		.byte	0x32
 4095 15b4 0A       		.byte	0xa
 4096 15b5 FF090000 		.4byte	0x9ff
 4097 15b9 01       		.byte	0x1
 4098 15ba 05       		.byte	0x5
 4099 15bb 03       		.byte	0x3
 4100 15bc 00000000 		.4byte	ritConfig
 4101 15c0 1D       		.uleb128 0x1d
 4102 15c1 58090000 		.4byte	.LASF370
 4103 15c5 01       		.byte	0x1
 4104 15c6 3D       		.byte	0x3d
 4105 15c7 0D       		.byte	0xd
 4106 15c8 700B0000 		.4byte	0xb70
 4107 15cc 01       		.byte	0x1
 4108 15cd 05       		.byte	0x5
 4109 15ce 03       		.byte	0x3
 4110 15cf 00000000 		.4byte	timer0Config
 4111 15d3 1D       		.uleb128 0x1d
 4112 15d4 2D150000 		.4byte	.LASF371
 4113 15d8 01       		.byte	0x1
 4114 15d9 4A       		.byte	0x4a
 4115 15da 0C       		.byte	0xc
 4116 15db 8F090000 		.4byte	0x98f
 4117 15df 01       		.byte	0x1
 4118 15e0 05       		.byte	0x5
 4119 15e1 03       		.byte	0x3
 4120 15e2 00000000 		.4byte	uart0Config
 4121 15e6 1D       		.uleb128 0x1d
 4122 15e7 9A030000 		.4byte	.LASF372
 4123 15eb 01       		.byte	0x1
 4124 15ec 55       		.byte	0x55
 4125 15ed 0B       		.byte	0xb
 4126 15ee B50C0000 		.4byte	0xcb5
 4127 15f2 01       		.byte	0x1
 4128 15f3 05       		.byte	0x5
 4129 15f4 03       		.byte	0x3
 4130 15f5 00000000 		.4byte	spi0Cfg
 4131 15f9 1D       		.uleb128 0x1d
 4132 15fa 8B110000 		.4byte	.LASF373
 4133 15fe 01       		.byte	0x1
 4134 15ff 67       		.byte	0x67
 4135 1600 0B       		.byte	0xb
 4136 1601 24150000 		.4byte	0x1524
 4137 1605 01       		.byte	0x1
 4138 1606 05       		.byte	0x5
 4139 1607 03       		.byte	0x3
 4140 1608 00000000 		.4byte	eduarmMma7660GpioCfg
 4141 160c 1D       		.uleb128 0x1d
 4142 160d 5D130000 		.4byte	.LASF374
 4143 1611 01       		.byte	0x1
 4144 1612 6F       		.byte	0x6f
 4145 1613 0B       		.byte	0xb
 4146 1614 740D0000 		.4byte	0xd74
 4147 1618 01       		.byte	0x1
 4148 1619 05       		.byte	0x5
ARM GAS  C:\Users\Aayush\AppData\Local\Temp\ccPGXf2s.s 			page 94


 4149 161a 03       		.byte	0x3
 4150 161b 00000000 		.4byte	i2c0Cfg
 4151 161f 1D       		.uleb128 0x1d
 4152 1620 4F0B0000 		.4byte	.LASF375
 4153 1624 01       		.byte	0x1
 4154 1625 7B       		.byte	0x7b
 4155 1626 0C       		.byte	0xc
 4156 1627 4E110000 		.4byte	0x114e
 4157 162b 01       		.byte	0x1
 4158 162c 05       		.byte	0x5
 4159 162d 03       		.byte	0x3
 4160 162e 00000000 		.4byte	accelConfig
 4161 1632 1D       		.uleb128 0x1d
 4162 1633 E5030000 		.4byte	.LASF376
 4163 1637 01       		.byte	0x1
 4164 1638 88       		.byte	0x88
 4165 1639 0B       		.byte	0xb
 4166 163a 13080000 		.4byte	0x813
 4167 163e 01       		.byte	0x1
 4168 163f 05       		.byte	0x5
 4169 1640 03       		.byte	0x3
 4170 1641 00000000 		.4byte	eduarmBuzzerGpioCfg
 4171 1645 1D       		.uleb128 0x1d
 4172 1646 FF040000 		.4byte	.LASF377
 4173 164a 01       		.byte	0x1
 4174 164b 8D       		.byte	0x8d
 4175 164c 0B       		.byte	0xb
 4176 164d 73110000 		.4byte	0x1173
 4177 1651 01       		.byte	0x1
 4178 1652 05       		.byte	0x5
 4179 1653 03       		.byte	0x3
 4180 1654 00000000 		.4byte	buzzerConfig
 4181 1658 1D       		.uleb128 0x1d
 4182 1659 670E0000 		.4byte	.LASF378
 4183 165d 01       		.byte	0x1
 4184 165e 93       		.byte	0x93
 4185 165f 08       		.byte	0x8
 4186 1660 E20E0000 		.4byte	0xee2
 4187 1664 01       		.byte	0x1
 4188 1665 05       		.byte	0x5
 4189 1666 03       		.byte	0x3
 4190 1667 00000000 		.4byte	lcdDisplayConfig
 4191 166b 1D       		.uleb128 0x1d
 4192 166c E3060000 		.4byte	.LASF379
 4193 1670 01       		.byte	0x1
 4194 1671 AA       		.byte	0xaa
 4195 1672 0A       		.byte	0xa
 4196 1673 58100000 		.4byte	0x1058
 4197 1677 01       		.byte	0x1
 4198 1678 05       		.byte	0x5
 4199 1679 03       		.byte	0x3
 4200 167a 00000000 		.4byte	touchConfig
 4201 167e 12       		.uleb128 0x12
 4202 167f B8010000 		.4byte	0x1b8
 4203 1683 8E160000 		.4byte	0x168e
 4204 1687 13       		.uleb128 0x13
 4205 1688 2C000000 		.4byte	0x2c
ARM GAS  C:\Users\Aayush\AppData\Local\Temp\ccPGXf2s.s 			page 95


 4206 168c 00       		.byte	0
 4207 168d 00       		.byte	0
 4208 168e 1D       		.uleb128 0x1d
 4209 168f 48130000 		.4byte	.LASF380
 4210 1693 01       		.byte	0x1
 4211 1694 B8       		.byte	0xb8
 4212 1695 0C       		.byte	0xc
 4213 1696 7E160000 		.4byte	0x167e
 4214 169a 01       		.byte	0x1
 4215 169b 05       		.byte	0x5
 4216 169c 03       		.byte	0x3
 4217 169d 00000000 		.4byte	extInt1CallbackArray
 4218 16a1 1D       		.uleb128 0x1d
 4219 16a2 C30D0000 		.4byte	.LASF381
 4220 16a6 01       		.byte	0x1
 4221 16a7 B9       		.byte	0xb9
 4222 16a8 0C       		.byte	0xc
 4223 16a9 020E0000 		.4byte	0xe02
 4224 16ad 01       		.byte	0x1
 4225 16ae 05       		.byte	0x5
 4226 16af 03       		.byte	0x3
 4227 16b0 00000000 		.4byte	extIntTouchConfig
 4228 16b4 12       		.uleb128 0x12
 4229 16b5 88070000 		.4byte	0x788
 4230 16b9 C4160000 		.4byte	0x16c4
 4231 16bd 13       		.uleb128 0x13
 4232 16be 2C000000 		.4byte	0x2c
 4233 16c2 04       		.byte	0x4
 4234 16c3 00       		.byte	0
 4235 16c4 1D       		.uleb128 0x1d
 4236 16c5 82020000 		.4byte	.LASF382
 4237 16c9 01       		.byte	0x1
 4238 16ca C1       		.byte	0xc1
 4239 16cb 0F       		.byte	0xf
 4240 16cc B4160000 		.4byte	0x16b4
 4241 16d0 01       		.byte	0x1
 4242 16d1 05       		.byte	0x5
 4243 16d2 03       		.byte	0x3
 4244 16d3 00000000 		.4byte	keypadKeyPortPin
 4245 16d7 1D       		.uleb128 0x1d
 4246 16d8 A2160000 		.4byte	.LASF383
 4247 16dc 01       		.byte	0x1
 4248 16dd CB       		.byte	0xcb
 4249 16de 08       		.byte	0x8
 4250 16df 64120000 		.4byte	0x1264
 4251 16e3 01       		.byte	0x1
 4252 16e4 05       		.byte	0x5
 4253 16e5 03       		.byte	0x3
 4254 16e6 00000000 		.4byte	mmcCfg
 4255 16ea 1D       		.uleb128 0x1d
 4256 16eb 3F090000 		.4byte	.LASF384
 4257 16ef 01       		.byte	0x1
 4258 16f0 DB       		.byte	0xdb
 4259 16f1 09       		.byte	0x9
 4260 16f2 8F130000 		.4byte	0x138f
 4261 16f6 01       		.byte	0x1
 4262 16f7 05       		.byte	0x5
ARM GAS  C:\Users\Aayush\AppData\Local\Temp\ccPGXf2s.s 			page 96


 4263 16f8 03       		.byte	0x3
 4264 16f9 00000000 		.4byte	diskCfg
 4265 16fd 1E       		.uleb128 0x1e
 4266 16fe 66617400 		.ascii	"fat\000"
 4267 1702 01       		.byte	0x1
 4268 1703 E8       		.byte	0xe8
 4269 1704 0E       		.byte	0xe
 4270 1705 F9140000 		.4byte	0x14f9
 4271 1709 05       		.byte	0x5
 4272 170a 03       		.byte	0x3
 4273 170b 00000000 		.4byte	fat
 4274 170f 1F       		.uleb128 0x1f
 4275 1710 01       		.byte	0x1
 4276 1711 78040000 		.4byte	.LASF392
 4277 1715 01       		.byte	0x1
 4278 1716 A301     		.2byte	0x1a3
 4279 1718 06       		.byte	0x6
 4280 1719 01       		.byte	0x1
 4281 171a 54030000 		.4byte	.LFB61
 4282 171e 58030000 		.4byte	.LFE61
 4283 1722 02       		.byte	0x2
 4284 1723 7D       		.byte	0x7d
 4285 1724 00       		.sleb128 0
 4286 1725 01       		.byte	0x1
 4287 1726 20       		.uleb128 0x20
 4288 1727 01       		.byte	0x1
 4289 1728 03020000 		.4byte	.LASF393
 4290 172c 01       		.byte	0x1
 4291 172d EA       		.byte	0xea
 4292 172e 06       		.byte	0x6
 4293 172f 01       		.byte	0x1
 4294 1730 00000000 		.4byte	.LFB60
 4295 1734 54030000 		.4byte	.LFE60
 4296 1738 00000000 		.4byte	.LLST0
 4297 173c 01       		.byte	0x1
 4298 173d 82170000 		.4byte	0x1782
 4299 1741 21       		.uleb128 0x21
 4300 1742 47090000 		.4byte	.LASF385
 4301 1746 01       		.byte	0x1
 4302 1747 EC       		.byte	0xec
 4303 1748 0D       		.byte	0xd
 4304 1749 82010000 		.4byte	0x182
 4305 174d 02       		.byte	0x2
 4306 174e 91       		.byte	0x91
 4307 174f 77       		.sleb128 -9
 4308 1750 21       		.uleb128 0x21
 4309 1751 0C030000 		.4byte	.LASF386
 4310 1755 01       		.byte	0x1
 4311 1756 ED       		.byte	0xed
 4312 1757 09       		.byte	0x9
 4313 1758 6D000000 		.4byte	0x6d
 4314 175c 02       		.byte	0x2
 4315 175d 91       		.byte	0x91
 4316 175e 6F       		.sleb128 -17
 4317 175f 22       		.uleb128 0x22
 4318 1760 82170000 		.4byte	0x1782
 4319 1764 DA010000 		.4byte	.LBB4
ARM GAS  C:\Users\Aayush\AppData\Local\Temp\ccPGXf2s.s 			page 97


 4320 1768 12020000 		.4byte	.LBE4
 4321 176c 01       		.byte	0x1
 4322 176d 7801     		.2byte	0x178
 4323 176f 02       		.byte	0x2
 4324 1770 23       		.uleb128 0x23
 4325 1771 9A170000 		.4byte	0x179a
 4326 1775 02       		.byte	0x2
 4327 1776 91       		.byte	0x91
 4328 1777 70       		.sleb128 -16
 4329 1778 23       		.uleb128 0x23
 4330 1779 8D170000 		.4byte	0x178d
 4331 177d 02       		.byte	0x2
 4332 177e 91       		.byte	0x91
 4333 177f 76       		.sleb128 -10
 4334 1780 00       		.byte	0
 4335 1781 00       		.byte	0
 4336 1782 24       		.uleb128 0x24
 4337 1783 5E010000 		.4byte	.LASF394
 4338 1787 02       		.byte	0x2
 4339 1788 6702     		.2byte	0x267
 4340 178a 19       		.byte	0x19
 4341 178b 01       		.byte	0x1
 4342 178c 03       		.byte	0x3
 4343 178d 25       		.uleb128 0x25
 4344 178e F60C0000 		.4byte	.LASF387
 4345 1792 02       		.byte	0x2
 4346 1793 6702     		.2byte	0x267
 4347 1795 34       		.byte	0x34
 4348 1796 EA020000 		.4byte	0x2ea
 4349 179a 25       		.uleb128 0x25
 4350 179b A10E0000 		.4byte	.LASF388
 4351 179f 02       		.byte	0x2
 4352 17a0 6702     		.2byte	0x267
 4353 17a2 42       		.byte	0x42
 4354 17a3 8F000000 		.4byte	0x8f
 4355 17a7 00       		.byte	0
 4356 17a8 00       		.byte	0
 4357              		.section	.debug_abbrev,"",%progbits
 4358              	.Ldebug_abbrev0:
 4359 0000 01       		.uleb128 0x1
 4360 0001 11       		.uleb128 0x11
 4361 0002 01       		.byte	0x1
 4362 0003 25       		.uleb128 0x25
 4363 0004 0E       		.uleb128 0xe
 4364 0005 13       		.uleb128 0x13
 4365 0006 0B       		.uleb128 0xb
 4366 0007 03       		.uleb128 0x3
 4367 0008 0E       		.uleb128 0xe
 4368 0009 1B       		.uleb128 0x1b
 4369 000a 0E       		.uleb128 0xe
 4370 000b 11       		.uleb128 0x11
 4371 000c 01       		.uleb128 0x1
 4372 000d 12       		.uleb128 0x12
 4373 000e 01       		.uleb128 0x1
 4374 000f 10       		.uleb128 0x10
 4375 0010 06       		.uleb128 0x6
 4376 0011 00       		.byte	0
ARM GAS  C:\Users\Aayush\AppData\Local\Temp\ccPGXf2s.s 			page 98


 4377 0012 00       		.byte	0
 4378 0013 02       		.uleb128 0x2
 4379 0014 24       		.uleb128 0x24
 4380 0015 00       		.byte	0
 4381 0016 0B       		.uleb128 0xb
 4382 0017 0B       		.uleb128 0xb
 4383 0018 3E       		.uleb128 0x3e
 4384 0019 0B       		.uleb128 0xb
 4385 001a 03       		.uleb128 0x3
 4386 001b 08       		.uleb128 0x8
 4387 001c 00       		.byte	0
 4388 001d 00       		.byte	0
 4389 001e 03       		.uleb128 0x3
 4390 001f 24       		.uleb128 0x24
 4391 0020 00       		.byte	0
 4392 0021 0B       		.uleb128 0xb
 4393 0022 0B       		.uleb128 0xb
 4394 0023 3E       		.uleb128 0x3e
 4395 0024 0B       		.uleb128 0xb
 4396 0025 03       		.uleb128 0x3
 4397 0026 0E       		.uleb128 0xe
 4398 0027 00       		.byte	0
 4399 0028 00       		.byte	0
 4400 0029 04       		.uleb128 0x4
 4401 002a 0F       		.uleb128 0xf
 4402 002b 00       		.byte	0
 4403 002c 0B       		.uleb128 0xb
 4404 002d 0B       		.uleb128 0xb
 4405 002e 00       		.byte	0
 4406 002f 00       		.byte	0
 4407 0030 05       		.uleb128 0x5
 4408 0031 16       		.uleb128 0x16
 4409 0032 00       		.byte	0
 4410 0033 03       		.uleb128 0x3
 4411 0034 0E       		.uleb128 0xe
 4412 0035 3A       		.uleb128 0x3a
 4413 0036 0B       		.uleb128 0xb
 4414 0037 3B       		.uleb128 0x3b
 4415 0038 0B       		.uleb128 0xb
 4416 0039 39       		.uleb128 0x39
 4417 003a 0B       		.uleb128 0xb
 4418 003b 49       		.uleb128 0x49
 4419 003c 13       		.uleb128 0x13
 4420 003d 00       		.byte	0
 4421 003e 00       		.byte	0
 4422 003f 06       		.uleb128 0x6
 4423 0040 35       		.uleb128 0x35
 4424 0041 00       		.byte	0
 4425 0042 49       		.uleb128 0x49
 4426 0043 13       		.uleb128 0x13
 4427 0044 00       		.byte	0
 4428 0045 00       		.byte	0
 4429 0046 07       		.uleb128 0x7
 4430 0047 26       		.uleb128 0x26
 4431 0048 00       		.byte	0
 4432 0049 49       		.uleb128 0x49
 4433 004a 13       		.uleb128 0x13
ARM GAS  C:\Users\Aayush\AppData\Local\Temp\ccPGXf2s.s 			page 99


 4434 004b 00       		.byte	0
 4435 004c 00       		.byte	0
 4436 004d 08       		.uleb128 0x8
 4437 004e 04       		.uleb128 0x4
 4438 004f 01       		.byte	0x1
 4439 0050 3E       		.uleb128 0x3e
 4440 0051 0B       		.uleb128 0xb
 4441 0052 0B       		.uleb128 0xb
 4442 0053 0B       		.uleb128 0xb
 4443 0054 49       		.uleb128 0x49
 4444 0055 13       		.uleb128 0x13
 4445 0056 3A       		.uleb128 0x3a
 4446 0057 0B       		.uleb128 0xb
 4447 0058 3B       		.uleb128 0x3b
 4448 0059 0B       		.uleb128 0xb
 4449 005a 39       		.uleb128 0x39
 4450 005b 0B       		.uleb128 0xb
 4451 005c 01       		.uleb128 0x1
 4452 005d 13       		.uleb128 0x13
 4453 005e 00       		.byte	0
 4454 005f 00       		.byte	0
 4455 0060 09       		.uleb128 0x9
 4456 0061 28       		.uleb128 0x28
 4457 0062 00       		.byte	0
 4458 0063 03       		.uleb128 0x3
 4459 0064 0E       		.uleb128 0xe
 4460 0065 1C       		.uleb128 0x1c
 4461 0066 0B       		.uleb128 0xb
 4462 0067 00       		.byte	0
 4463 0068 00       		.byte	0
 4464 0069 0A       		.uleb128 0xa
 4465 006a 16       		.uleb128 0x16
 4466 006b 00       		.byte	0
 4467 006c 03       		.uleb128 0x3
 4468 006d 0E       		.uleb128 0xe
 4469 006e 3A       		.uleb128 0x3a
 4470 006f 0B       		.uleb128 0xb
 4471 0070 3B       		.uleb128 0x3b
 4472 0071 05       		.uleb128 0x5
 4473 0072 39       		.uleb128 0x39
 4474 0073 0B       		.uleb128 0xb
 4475 0074 49       		.uleb128 0x49
 4476 0075 13       		.uleb128 0x13
 4477 0076 00       		.byte	0
 4478 0077 00       		.byte	0
 4479 0078 0B       		.uleb128 0xb
 4480 0079 04       		.uleb128 0x4
 4481 007a 01       		.byte	0x1
 4482 007b 3E       		.uleb128 0x3e
 4483 007c 0B       		.uleb128 0xb
 4484 007d 0B       		.uleb128 0xb
 4485 007e 0B       		.uleb128 0xb
 4486 007f 49       		.uleb128 0x49
 4487 0080 13       		.uleb128 0x13
 4488 0081 3A       		.uleb128 0x3a
 4489 0082 0B       		.uleb128 0xb
 4490 0083 3B       		.uleb128 0x3b
ARM GAS  C:\Users\Aayush\AppData\Local\Temp\ccPGXf2s.s 			page 100


 4491 0084 05       		.uleb128 0x5
 4492 0085 39       		.uleb128 0x39
 4493 0086 0B       		.uleb128 0xb
 4494 0087 01       		.uleb128 0x1
 4495 0088 13       		.uleb128 0x13
 4496 0089 00       		.byte	0
 4497 008a 00       		.byte	0
 4498 008b 0C       		.uleb128 0xc
 4499 008c 0F       		.uleb128 0xf
 4500 008d 00       		.byte	0
 4501 008e 0B       		.uleb128 0xb
 4502 008f 0B       		.uleb128 0xb
 4503 0090 49       		.uleb128 0x49
 4504 0091 13       		.uleb128 0x13
 4505 0092 00       		.byte	0
 4506 0093 00       		.byte	0
 4507 0094 0D       		.uleb128 0xd
 4508 0095 15       		.uleb128 0x15
 4509 0096 00       		.byte	0
 4510 0097 27       		.uleb128 0x27
 4511 0098 0C       		.uleb128 0xc
 4512 0099 00       		.byte	0
 4513 009a 00       		.byte	0
 4514 009b 0E       		.uleb128 0xe
 4515 009c 28       		.uleb128 0x28
 4516 009d 00       		.byte	0
 4517 009e 03       		.uleb128 0x3
 4518 009f 0E       		.uleb128 0xe
 4519 00a0 1C       		.uleb128 0x1c
 4520 00a1 0D       		.uleb128 0xd
 4521 00a2 00       		.byte	0
 4522 00a3 00       		.byte	0
 4523 00a4 0F       		.uleb128 0xf
 4524 00a5 13       		.uleb128 0x13
 4525 00a6 01       		.byte	0x1
 4526 00a7 0B       		.uleb128 0xb
 4527 00a8 05       		.uleb128 0x5
 4528 00a9 3A       		.uleb128 0x3a
 4529 00aa 0B       		.uleb128 0xb
 4530 00ab 3B       		.uleb128 0x3b
 4531 00ac 0B       		.uleb128 0xb
 4532 00ad 39       		.uleb128 0x39
 4533 00ae 0B       		.uleb128 0xb
 4534 00af 01       		.uleb128 0x1
 4535 00b0 13       		.uleb128 0x13
 4536 00b1 00       		.byte	0
 4537 00b2 00       		.byte	0
 4538 00b3 10       		.uleb128 0x10
 4539 00b4 0D       		.uleb128 0xd
 4540 00b5 00       		.byte	0
 4541 00b6 03       		.uleb128 0x3
 4542 00b7 0E       		.uleb128 0xe
 4543 00b8 3A       		.uleb128 0x3a
 4544 00b9 0B       		.uleb128 0xb
 4545 00ba 3B       		.uleb128 0x3b
 4546 00bb 0B       		.uleb128 0xb
 4547 00bc 39       		.uleb128 0x39
ARM GAS  C:\Users\Aayush\AppData\Local\Temp\ccPGXf2s.s 			page 101


 4548 00bd 0B       		.uleb128 0xb
 4549 00be 49       		.uleb128 0x49
 4550 00bf 13       		.uleb128 0x13
 4551 00c0 38       		.uleb128 0x38
 4552 00c1 0A       		.uleb128 0xa
 4553 00c2 00       		.byte	0
 4554 00c3 00       		.byte	0
 4555 00c4 11       		.uleb128 0x11
 4556 00c5 0D       		.uleb128 0xd
 4557 00c6 00       		.byte	0
 4558 00c7 03       		.uleb128 0x3
 4559 00c8 08       		.uleb128 0x8
 4560 00c9 3A       		.uleb128 0x3a
 4561 00ca 0B       		.uleb128 0xb
 4562 00cb 3B       		.uleb128 0x3b
 4563 00cc 0B       		.uleb128 0xb
 4564 00cd 39       		.uleb128 0x39
 4565 00ce 0B       		.uleb128 0xb
 4566 00cf 49       		.uleb128 0x49
 4567 00d0 13       		.uleb128 0x13
 4568 00d1 38       		.uleb128 0x38
 4569 00d2 0A       		.uleb128 0xa
 4570 00d3 00       		.byte	0
 4571 00d4 00       		.byte	0
 4572 00d5 12       		.uleb128 0x12
 4573 00d6 01       		.uleb128 0x1
 4574 00d7 01       		.byte	0x1
 4575 00d8 49       		.uleb128 0x49
 4576 00d9 13       		.uleb128 0x13
 4577 00da 01       		.uleb128 0x1
 4578 00db 13       		.uleb128 0x13
 4579 00dc 00       		.byte	0
 4580 00dd 00       		.byte	0
 4581 00de 13       		.uleb128 0x13
 4582 00df 21       		.uleb128 0x21
 4583 00e0 00       		.byte	0
 4584 00e1 49       		.uleb128 0x49
 4585 00e2 13       		.uleb128 0x13
 4586 00e3 2F       		.uleb128 0x2f
 4587 00e4 0B       		.uleb128 0xb
 4588 00e5 00       		.byte	0
 4589 00e6 00       		.byte	0
 4590 00e7 14       		.uleb128 0x14
 4591 00e8 21       		.uleb128 0x21
 4592 00e9 00       		.byte	0
 4593 00ea 49       		.uleb128 0x49
 4594 00eb 13       		.uleb128 0x13
 4595 00ec 2F       		.uleb128 0x2f
 4596 00ed 05       		.uleb128 0x5
 4597 00ee 00       		.byte	0
 4598 00ef 00       		.byte	0
 4599 00f0 15       		.uleb128 0x15
 4600 00f1 13       		.uleb128 0x13
 4601 00f2 01       		.byte	0x1
 4602 00f3 0B       		.uleb128 0xb
 4603 00f4 0B       		.uleb128 0xb
 4604 00f5 3A       		.uleb128 0x3a
ARM GAS  C:\Users\Aayush\AppData\Local\Temp\ccPGXf2s.s 			page 102


 4605 00f6 0B       		.uleb128 0xb
 4606 00f7 3B       		.uleb128 0x3b
 4607 00f8 0B       		.uleb128 0xb
 4608 00f9 39       		.uleb128 0x39
 4609 00fa 0B       		.uleb128 0xb
 4610 00fb 01       		.uleb128 0x1
 4611 00fc 13       		.uleb128 0x13
 4612 00fd 00       		.byte	0
 4613 00fe 00       		.byte	0
 4614 00ff 16       		.uleb128 0x16
 4615 0100 15       		.uleb128 0x15
 4616 0101 01       		.byte	0x1
 4617 0102 27       		.uleb128 0x27
 4618 0103 0C       		.uleb128 0xc
 4619 0104 49       		.uleb128 0x49
 4620 0105 13       		.uleb128 0x13
 4621 0106 01       		.uleb128 0x1
 4622 0107 13       		.uleb128 0x13
 4623 0108 00       		.byte	0
 4624 0109 00       		.byte	0
 4625 010a 17       		.uleb128 0x17
 4626 010b 05       		.uleb128 0x5
 4627 010c 00       		.byte	0
 4628 010d 49       		.uleb128 0x49
 4629 010e 13       		.uleb128 0x13
 4630 010f 00       		.byte	0
 4631 0110 00       		.byte	0
 4632 0111 18       		.uleb128 0x18
 4633 0112 13       		.uleb128 0x13
 4634 0113 01       		.byte	0x1
 4635 0114 0B       		.uleb128 0xb
 4636 0115 0B       		.uleb128 0xb
 4637 0116 3A       		.uleb128 0x3a
 4638 0117 0B       		.uleb128 0xb
 4639 0118 3B       		.uleb128 0x3b
 4640 0119 05       		.uleb128 0x5
 4641 011a 39       		.uleb128 0x39
 4642 011b 0B       		.uleb128 0xb
 4643 011c 01       		.uleb128 0x1
 4644 011d 13       		.uleb128 0x13
 4645 011e 00       		.byte	0
 4646 011f 00       		.byte	0
 4647 0120 19       		.uleb128 0x19
 4648 0121 0D       		.uleb128 0xd
 4649 0122 00       		.byte	0
 4650 0123 03       		.uleb128 0x3
 4651 0124 0E       		.uleb128 0xe
 4652 0125 3A       		.uleb128 0x3a
 4653 0126 0B       		.uleb128 0xb
 4654 0127 3B       		.uleb128 0x3b
 4655 0128 05       		.uleb128 0x5
 4656 0129 39       		.uleb128 0x39
 4657 012a 0B       		.uleb128 0xb
 4658 012b 49       		.uleb128 0x49
 4659 012c 13       		.uleb128 0x13
 4660 012d 38       		.uleb128 0x38
 4661 012e 0A       		.uleb128 0xa
ARM GAS  C:\Users\Aayush\AppData\Local\Temp\ccPGXf2s.s 			page 103


 4662 012f 00       		.byte	0
 4663 0130 00       		.byte	0
 4664 0131 1A       		.uleb128 0x1a
 4665 0132 0D       		.uleb128 0xd
 4666 0133 00       		.byte	0
 4667 0134 03       		.uleb128 0x3
 4668 0135 08       		.uleb128 0x8
 4669 0136 3A       		.uleb128 0x3a
 4670 0137 0B       		.uleb128 0xb
 4671 0138 3B       		.uleb128 0x3b
 4672 0139 05       		.uleb128 0x5
 4673 013a 39       		.uleb128 0x39
 4674 013b 0B       		.uleb128 0xb
 4675 013c 49       		.uleb128 0x49
 4676 013d 13       		.uleb128 0x13
 4677 013e 38       		.uleb128 0x38
 4678 013f 0A       		.uleb128 0xa
 4679 0140 00       		.byte	0
 4680 0141 00       		.byte	0
 4681 0142 1B       		.uleb128 0x1b
 4682 0143 13       		.uleb128 0x13
 4683 0144 01       		.byte	0x1
 4684 0145 0B       		.uleb128 0xb
 4685 0146 05       		.uleb128 0x5
 4686 0147 3A       		.uleb128 0x3a
 4687 0148 0B       		.uleb128 0xb
 4688 0149 3B       		.uleb128 0x3b
 4689 014a 05       		.uleb128 0x5
 4690 014b 39       		.uleb128 0x39
 4691 014c 0B       		.uleb128 0xb
 4692 014d 01       		.uleb128 0x1
 4693 014e 13       		.uleb128 0x13
 4694 014f 00       		.byte	0
 4695 0150 00       		.byte	0
 4696 0151 1C       		.uleb128 0x1c
 4697 0152 34       		.uleb128 0x34
 4698 0153 00       		.byte	0
 4699 0154 03       		.uleb128 0x3
 4700 0155 0E       		.uleb128 0xe
 4701 0156 3A       		.uleb128 0x3a
 4702 0157 0B       		.uleb128 0xb
 4703 0158 3B       		.uleb128 0x3b
 4704 0159 0B       		.uleb128 0xb
 4705 015a 39       		.uleb128 0x39
 4706 015b 0B       		.uleb128 0xb
 4707 015c 49       		.uleb128 0x49
 4708 015d 13       		.uleb128 0x13
 4709 015e 3F       		.uleb128 0x3f
 4710 015f 0C       		.uleb128 0xc
 4711 0160 3C       		.uleb128 0x3c
 4712 0161 0C       		.uleb128 0xc
 4713 0162 00       		.byte	0
 4714 0163 00       		.byte	0
 4715 0164 1D       		.uleb128 0x1d
 4716 0165 34       		.uleb128 0x34
 4717 0166 00       		.byte	0
 4718 0167 03       		.uleb128 0x3
ARM GAS  C:\Users\Aayush\AppData\Local\Temp\ccPGXf2s.s 			page 104


 4719 0168 0E       		.uleb128 0xe
 4720 0169 3A       		.uleb128 0x3a
 4721 016a 0B       		.uleb128 0xb
 4722 016b 3B       		.uleb128 0x3b
 4723 016c 0B       		.uleb128 0xb
 4724 016d 39       		.uleb128 0x39
 4725 016e 0B       		.uleb128 0xb
 4726 016f 49       		.uleb128 0x49
 4727 0170 13       		.uleb128 0x13
 4728 0171 3F       		.uleb128 0x3f
 4729 0172 0C       		.uleb128 0xc
 4730 0173 02       		.uleb128 0x2
 4731 0174 0A       		.uleb128 0xa
 4732 0175 00       		.byte	0
 4733 0176 00       		.byte	0
 4734 0177 1E       		.uleb128 0x1e
 4735 0178 34       		.uleb128 0x34
 4736 0179 00       		.byte	0
 4737 017a 03       		.uleb128 0x3
 4738 017b 08       		.uleb128 0x8
 4739 017c 3A       		.uleb128 0x3a
 4740 017d 0B       		.uleb128 0xb
 4741 017e 3B       		.uleb128 0x3b
 4742 017f 0B       		.uleb128 0xb
 4743 0180 39       		.uleb128 0x39
 4744 0181 0B       		.uleb128 0xb
 4745 0182 49       		.uleb128 0x49
 4746 0183 13       		.uleb128 0x13
 4747 0184 02       		.uleb128 0x2
 4748 0185 0A       		.uleb128 0xa
 4749 0186 00       		.byte	0
 4750 0187 00       		.byte	0
 4751 0188 1F       		.uleb128 0x1f
 4752 0189 2E       		.uleb128 0x2e
 4753 018a 00       		.byte	0
 4754 018b 3F       		.uleb128 0x3f
 4755 018c 0C       		.uleb128 0xc
 4756 018d 03       		.uleb128 0x3
 4757 018e 0E       		.uleb128 0xe
 4758 018f 3A       		.uleb128 0x3a
 4759 0190 0B       		.uleb128 0xb
 4760 0191 3B       		.uleb128 0x3b
 4761 0192 05       		.uleb128 0x5
 4762 0193 39       		.uleb128 0x39
 4763 0194 0B       		.uleb128 0xb
 4764 0195 27       		.uleb128 0x27
 4765 0196 0C       		.uleb128 0xc
 4766 0197 11       		.uleb128 0x11
 4767 0198 01       		.uleb128 0x1
 4768 0199 12       		.uleb128 0x12
 4769 019a 01       		.uleb128 0x1
 4770 019b 40       		.uleb128 0x40
 4771 019c 0A       		.uleb128 0xa
 4772 019d 9742     		.uleb128 0x2117
 4773 019f 0C       		.uleb128 0xc
 4774 01a0 00       		.byte	0
 4775 01a1 00       		.byte	0
ARM GAS  C:\Users\Aayush\AppData\Local\Temp\ccPGXf2s.s 			page 105


 4776 01a2 20       		.uleb128 0x20
 4777 01a3 2E       		.uleb128 0x2e
 4778 01a4 01       		.byte	0x1
 4779 01a5 3F       		.uleb128 0x3f
 4780 01a6 0C       		.uleb128 0xc
 4781 01a7 03       		.uleb128 0x3
 4782 01a8 0E       		.uleb128 0xe
 4783 01a9 3A       		.uleb128 0x3a
 4784 01aa 0B       		.uleb128 0xb
 4785 01ab 3B       		.uleb128 0x3b
 4786 01ac 0B       		.uleb128 0xb
 4787 01ad 39       		.uleb128 0x39
 4788 01ae 0B       		.uleb128 0xb
 4789 01af 27       		.uleb128 0x27
 4790 01b0 0C       		.uleb128 0xc
 4791 01b1 11       		.uleb128 0x11
 4792 01b2 01       		.uleb128 0x1
 4793 01b3 12       		.uleb128 0x12
 4794 01b4 01       		.uleb128 0x1
 4795 01b5 40       		.uleb128 0x40
 4796 01b6 06       		.uleb128 0x6
 4797 01b7 9642     		.uleb128 0x2116
 4798 01b9 0C       		.uleb128 0xc
 4799 01ba 01       		.uleb128 0x1
 4800 01bb 13       		.uleb128 0x13
 4801 01bc 00       		.byte	0
 4802 01bd 00       		.byte	0
 4803 01be 21       		.uleb128 0x21
 4804 01bf 34       		.uleb128 0x34
 4805 01c0 00       		.byte	0
 4806 01c1 03       		.uleb128 0x3
 4807 01c2 0E       		.uleb128 0xe
 4808 01c3 3A       		.uleb128 0x3a
 4809 01c4 0B       		.uleb128 0xb
 4810 01c5 3B       		.uleb128 0x3b
 4811 01c6 0B       		.uleb128 0xb
 4812 01c7 39       		.uleb128 0x39
 4813 01c8 0B       		.uleb128 0xb
 4814 01c9 49       		.uleb128 0x49
 4815 01ca 13       		.uleb128 0x13
 4816 01cb 02       		.uleb128 0x2
 4817 01cc 0A       		.uleb128 0xa
 4818 01cd 00       		.byte	0
 4819 01ce 00       		.byte	0
 4820 01cf 22       		.uleb128 0x22
 4821 01d0 1D       		.uleb128 0x1d
 4822 01d1 01       		.byte	0x1
 4823 01d2 31       		.uleb128 0x31
 4824 01d3 13       		.uleb128 0x13
 4825 01d4 11       		.uleb128 0x11
 4826 01d5 01       		.uleb128 0x1
 4827 01d6 12       		.uleb128 0x12
 4828 01d7 01       		.uleb128 0x1
 4829 01d8 58       		.uleb128 0x58
 4830 01d9 0B       		.uleb128 0xb
 4831 01da 59       		.uleb128 0x59
 4832 01db 05       		.uleb128 0x5
ARM GAS  C:\Users\Aayush\AppData\Local\Temp\ccPGXf2s.s 			page 106


 4833 01dc 57       		.uleb128 0x57
 4834 01dd 0B       		.uleb128 0xb
 4835 01de 00       		.byte	0
 4836 01df 00       		.byte	0
 4837 01e0 23       		.uleb128 0x23
 4838 01e1 05       		.uleb128 0x5
 4839 01e2 00       		.byte	0
 4840 01e3 31       		.uleb128 0x31
 4841 01e4 13       		.uleb128 0x13
 4842 01e5 02       		.uleb128 0x2
 4843 01e6 0A       		.uleb128 0xa
 4844 01e7 00       		.byte	0
 4845 01e8 00       		.byte	0
 4846 01e9 24       		.uleb128 0x24
 4847 01ea 2E       		.uleb128 0x2e
 4848 01eb 01       		.byte	0x1
 4849 01ec 03       		.uleb128 0x3
 4850 01ed 0E       		.uleb128 0xe
 4851 01ee 3A       		.uleb128 0x3a
 4852 01ef 0B       		.uleb128 0xb
 4853 01f0 3B       		.uleb128 0x3b
 4854 01f1 05       		.uleb128 0x5
 4855 01f2 39       		.uleb128 0x39
 4856 01f3 0B       		.uleb128 0xb
 4857 01f4 27       		.uleb128 0x27
 4858 01f5 0C       		.uleb128 0xc
 4859 01f6 20       		.uleb128 0x20
 4860 01f7 0B       		.uleb128 0xb
 4861 01f8 00       		.byte	0
 4862 01f9 00       		.byte	0
 4863 01fa 25       		.uleb128 0x25
 4864 01fb 05       		.uleb128 0x5
 4865 01fc 00       		.byte	0
 4866 01fd 03       		.uleb128 0x3
 4867 01fe 0E       		.uleb128 0xe
 4868 01ff 3A       		.uleb128 0x3a
 4869 0200 0B       		.uleb128 0xb
 4870 0201 3B       		.uleb128 0x3b
 4871 0202 05       		.uleb128 0x5
 4872 0203 39       		.uleb128 0x39
 4873 0204 0B       		.uleb128 0xb
 4874 0205 49       		.uleb128 0x49
 4875 0206 13       		.uleb128 0x13
 4876 0207 00       		.byte	0
 4877 0208 00       		.byte	0
 4878 0209 00       		.byte	0
 4879              		.section	.debug_loc,"",%progbits
 4880              	.Ldebug_loc0:
 4881              	.LLST0:
 4882 0000 00000000 		.4byte	.LFB60-.Ltext0
 4883 0004 02000000 		.4byte	.LCFI0-.Ltext0
 4884 0008 0200     		.2byte	0x2
 4885 000a 7D       		.byte	0x7d
 4886 000b 00       		.sleb128 0
 4887 000c 02000000 		.4byte	.LCFI0-.Ltext0
 4888 0010 04000000 		.4byte	.LCFI1-.Ltext0
 4889 0014 0200     		.2byte	0x2
ARM GAS  C:\Users\Aayush\AppData\Local\Temp\ccPGXf2s.s 			page 107


 4890 0016 7D       		.byte	0x7d
 4891 0017 04       		.sleb128 4
 4892 0018 04000000 		.4byte	.LCFI1-.Ltext0
 4893 001c 8C020000 		.4byte	.LCFI2-.Ltext0
 4894 0020 0200     		.2byte	0x2
 4895 0022 7D       		.byte	0x7d
 4896 0023 18       		.sleb128 24
 4897 0024 8C020000 		.4byte	.LCFI2-.Ltext0
 4898 0028 54030000 		.4byte	.LFE60-.Ltext0
 4899 002c 0200     		.2byte	0x2
 4900 002e 7D       		.byte	0x7d
 4901 002f 04       		.sleb128 4
 4902 0030 00000000 		.4byte	0
 4903 0034 00000000 		.4byte	0
 4904              		.section	.debug_aranges,"",%progbits
 4905 0000 1C000000 		.4byte	0x1c
 4906 0004 0200     		.2byte	0x2
 4907 0006 00000000 		.4byte	.Ldebug_info0
 4908 000a 04       		.byte	0x4
 4909 000b 00       		.byte	0
 4910 000c 0000     		.2byte	0
 4911 000e 0000     		.2byte	0
 4912 0010 00000000 		.4byte	.Ltext0
 4913 0014 58030000 		.4byte	.Letext0-.Ltext0
 4914 0018 00000000 		.4byte	0
 4915 001c 00000000 		.4byte	0
 4916              		.section	.debug_line,"",%progbits
 4917              	.Ldebug_line0:
 4918 0000 F1020000 		.section	.debug_str,"MS",%progbits,1
 4918      03009801 
 4918      00000201 
 4918      FB0E0D00 
 4918      01010101 
 4919              	.LASF48:
 4920 0000 656E426F 		.ascii	"enBooleanTrue\000"
 4920      6F6C6561 
 4920      6E547275 
 4920      6500
 4921              	.LASF158:
 4922 000e 64697265 		.ascii	"direction\000"
 4922      6374696F 
 4922      6E00
 4923              	.LASF193:
 4924 0018 70617269 		.ascii	"parity\000"
 4924      747900
 4925              	.LASF219:
 4926 001f 5046456E 		.ascii	"PFEnTimer0MatchAction\000"
 4926      54696D65 
 4926      72304D61 
 4926      74636841 
 4926      6374696F 
 4927              	.LASF227:
 4928 0035 6D617463 		.ascii	"matchAction\000"
 4928      68416374 
 4928      696F6E00 
 4929              	.LASF231:
 4930 0041 50464366 		.ascii	"PFCfgTimer0\000"
ARM GAS  C:\Users\Aayush\AppData\Local\Temp\ccPGXf2s.s 			page 108


 4930      6754696D 
 4930      65723000 
 4931              	.LASF345:
 4932 004d 64726976 		.ascii	"drive\000"
 4932      6500
 4933              	.LASF162:
 4934 0053 50464366 		.ascii	"PFCfgGpio\000"
 4934      67477069 
 4934      6F00
 4935              	.LASF77:
 4936 005d 504C4C30 		.ascii	"PLL0_IRQn\000"
 4936      5F495251 
 4936      6E00
 4937              	.LASF81:
 4938 0067 45494E54 		.ascii	"EINT2_IRQn\000"
 4938      325F4952 
 4938      516E00
 4939              	.LASF391:
 4940 0072 443A5C46 		.ascii	"D:\\Final year project\\Paint Application\\UserInte"
 4940      696E616C 
 4940      20796561 
 4940      72207072 
 4940      6F6A6563 
 4941 00a2 72666163 		.ascii	"rface\000"
 4941      6500
 4942              	.LASF25:
 4943 00a8 656E5374 		.ascii	"enStatusNotExist\000"
 4943      61747573 
 4943      4E6F7445 
 4943      78697374 
 4943      00
 4944              	.LASF306:
 4945 00b9 73706957 		.ascii	"spiWrite\000"
 4945      72697465 
 4945      00
 4946              	.LASF170:
 4947 00c2 5046456E 		.ascii	"PFEnUart0Baudrate\000"
 4947      55617274 
 4947      30426175 
 4947      64726174 
 4947      6500
 4948              	.LASF281:
 4949 00d4 656E4766 		.ascii	"enGfxOrientation_270\000"
 4949      784F7269 
 4949      656E7461 
 4949      74696F6E 
 4949      5F323730 
 4950              	.LASF348:
 4951 00e9 77666C61 		.ascii	"wflag\000"
 4951      6700
 4952              	.LASF191:
 4953 00ef 62617564 		.ascii	"baudrate\000"
 4953      72617465 
 4953      00
 4954              	.LASF228:
 4955 00f8 65784D61 		.ascii	"exMatchAction\000"
 4955      74636841 
ARM GAS  C:\Users\Aayush\AppData\Local\Temp\ccPGXf2s.s 			page 109


 4955      6374696F 
 4955      6E00
 4956              	.LASF143:
 4957 0106 656E4770 		.ascii	"enGpioPinModeNoPullUpDown\000"
 4957      696F5069 
 4957      6E4D6F64 
 4957      654E6F50 
 4957      756C6C55 
 4958              	.LASF153:
 4959 0120 5046456E 		.ascii	"PFEnAltFunction\000"
 4959      416C7446 
 4959      756E6374 
 4959      696F6E00 
 4960              	.LASF239:
 4961 0130 656E5370 		.ascii	"enSpi0Databits_11\000"
 4961      69304461 
 4961      74616269 
 4961      74735F31 
 4961      3100
 4962              	.LASF240:
 4963 0142 656E5370 		.ascii	"enSpi0Databits_12\000"
 4963      69304461 
 4963      74616269 
 4963      74735F31 
 4963      3200
 4964              	.LASF288:
 4965 0154 6770696F 		.ascii	"gpioReset\000"
 4965      52657365 
 4965      7400
 4966              	.LASF394:
 4967 015e 4E564943 		.ascii	"NVIC_SetPriority\000"
 4967      5F536574 
 4967      5072696F 
 4967      72697479 
 4967      00
 4968              	.LASF23:
 4969 016f 656E5374 		.ascii	"enStatusConfigConflict\000"
 4969      61747573 
 4969      436F6E66 
 4969      6967436F 
 4969      6E666C69 
 4970              	.LASF160:
 4971 0186 6F70656E 		.ascii	"openDrain\000"
 4971      44726169 
 4971      6E00
 4972              	.LASF195:
 4973 0190 696E7465 		.ascii	"interrupts\000"
 4973      72727570 
 4973      747300
 4974              	.LASF347:
 4975 019b 6E5F6661 		.ascii	"n_fats\000"
 4975      747300
 4976              	.LASF336:
 4977 01a2 64657647 		.ascii	"devGetStatus\000"
 4977      65745374 
 4977      61747573 
 4977      00
ARM GAS  C:\Users\Aayush\AppData\Local\Temp\ccPGXf2s.s 			page 110


 4978              	.LASF298:
 4979 01af 456E546F 		.ascii	"EnTouchPrecision\000"
 4979      75636850 
 4979      72656369 
 4979      73696F6E 
 4979      00
 4980              	.LASF223:
 4981 01c0 656E5469 		.ascii	"enTimer0ExtMatchCtrlTogglePin\000"
 4981      6D657230 
 4981      4578744D 
 4981      61746368 
 4981      4374726C 
 4982              	.LASF117:
 4983 01de 44465352 		.ascii	"DFSR\000"
 4983      00
 4984              	.LASF63:
 4985 01e3 54494D45 		.ascii	"TIMER1_IRQn\000"
 4985      52315F49 
 4985      52516E00 
 4986              	.LASF82:
 4987 01ef 45494E54 		.ascii	"EINT3_IRQn\000"
 4987      335F4952 
 4987      516E00
 4988              	.LASF88:
 4989 01fa 4932535F 		.ascii	"I2S_IRQn\000"
 4989      4952516E 
 4989      00
 4990              	.LASF393:
 4991 0203 61707049 		.ascii	"appInit\000"
 4991      6E697400 
 4992              	.LASF151:
 4993 020b 656E4770 		.ascii	"enGpioFunctionAlt2\000"
 4993      696F4675 
 4993      6E637469 
 4993      6F6E416C 
 4993      743200
 4994              	.LASF152:
 4995 021e 656E4770 		.ascii	"enGpioFunctionAlt3\000"
 4995      696F4675 
 4995      6E637469 
 4995      6F6E416C 
 4995      743300
 4996              	.LASF294:
 4997 0231 656E546F 		.ascii	"enTouchReferenceSelect_Single\000"
 4997      75636852 
 4997      65666572 
 4997      656E6365 
 4997      53656C65 
 4998              	.LASF196:
 4999 024f 50464366 		.ascii	"PFCfgUart0\000"
 4999      67556172 
 4999      743000
 5000              	.LASF262:
 5001 025a 64757479 		.ascii	"dutyCycle\000"
 5001      4379636C 
 5001      6500
 5002              	.LASF325:
ARM GAS  C:\Users\Aayush\AppData\Local\Temp\ccPGXf2s.s 			page 111


 5003 0264 6770696F 		.ascii	"gpioPower\000"
 5003      506F7765 
 5003      7200
 5004              	.LASF33:
 5005 026e 656E5374 		.ascii	"enStatusInvalidName\000"
 5005      61747573 
 5005      496E7661 
 5005      6C69644E 
 5005      616D6500 
 5006              	.LASF382:
 5007 0282 6B657970 		.ascii	"keypadKeyPortPin\000"
 5007      61644B65 
 5007      79506F72 
 5007      7450696E 
 5007      00
 5008              	.LASF268:
 5009 0293 50464366 		.ascii	"PFCfgI2c0\000"
 5009      67493263 
 5009      3000
 5010              	.LASF159:
 5011 029d 6D6F6465 		.ascii	"mode\000"
 5011      00
 5012              	.LASF363:
 5013 02a2 65647561 		.ascii	"eduarmUart0GpioCfg\000"
 5013      726D5561 
 5013      72743047 
 5013      70696F43 
 5013      666700
 5014              	.LASF95:
 5015 02b5 43414E41 		.ascii	"CANActivity_IRQn\000"
 5015      63746976 
 5015      6974795F 
 5015      4952516E 
 5015      00
 5016              	.LASF275:
 5017 02c6 63616C6C 		.ascii	"callbackList\000"
 5017      6261636B 
 5017      4C697374 
 5017      00
 5018              	.LASF300:
 5019 02d3 6770696F 		.ascii	"gpioTouchBusyPin\000"
 5019      546F7563 
 5019      68427573 
 5019      7950696E 
 5019      00
 5020              	.LASF327:
 5021 02e4 75736550 		.ascii	"usePowerControl\000"
 5021      6F776572 
 5021      436F6E74 
 5021      726F6C00 
 5022              	.LASF289:
 5023 02f4 6F726965 		.ascii	"orientation\000"
 5023      6E746174 
 5023      696F6E00 
 5024              	.LASF59:
 5025 0300 50656E64 		.ascii	"PendSV_IRQn\000"
 5025      53565F49 
ARM GAS  C:\Users\Aayush\AppData\Local\Temp\ccPGXf2s.s 			page 112


 5025      52516E00 
 5026              	.LASF386:
 5027 030c 6469736B 		.ascii	"diskId\000"
 5027      496400
 5028              	.LASF188:
 5029 0313 656E5561 		.ascii	"enUart0IntTxRx\000"
 5029      72743049 
 5029      6E745478 
 5029      527800
 5030              	.LASF333:
 5031 0322 70436667 		.ascii	"pCfgMmc\000"
 5031      4D6D6300 
 5032              	.LASF177:
 5033 032a 656E5561 		.ascii	"enUart0parityOdd\000"
 5033      72743070 
 5033      61726974 
 5033      794F6464 
 5033      00
 5034              	.LASF157:
 5035 033b 70696E73 		.ascii	"pins\000"
 5035      00
 5036              	.LASF364:
 5037 0340 65647561 		.ascii	"eduarmTouchIntGpioCfg\000"
 5037      726D546F 
 5037      75636849 
 5037      6E744770 
 5037      696F4366 
 5038              	.LASF139:
 5039 0356 656E4770 		.ascii	"enGpioDirOutput\000"
 5039      696F4469 
 5039      724F7574 
 5039      70757400 
 5040              	.LASF309:
 5041 0366 656E3132 		.ascii	"en120SamplesPerSecond\000"
 5041      3053616D 
 5041      706C6573 
 5041      50657253 
 5041      65636F6E 
 5042              	.LASF192:
 5043 037c 64617461 		.ascii	"databits\000"
 5043      62697473 
 5043      00
 5044              	.LASF303:
 5045 0385 70726563 		.ascii	"precsel\000"
 5045      73656C00 
 5046              	.LASF247:
 5047 038d 656E5370 		.ascii	"enSpi0Mode_1\000"
 5047      69304D6F 
 5047      64655F31 
 5047      00
 5048              	.LASF372:
 5049 039a 73706930 		.ascii	"spi0Cfg\000"
 5049      43666700 
 5050              	.LASF15:
 5051 03a2 656E5374 		.ascii	"enStatusError\000"
 5051      61747573 
 5051      4572726F 
ARM GAS  C:\Users\Aayush\AppData\Local\Temp\ccPGXf2s.s 			page 113


 5051      7200
 5052              	.LASF340:
 5053 03b0 616C6C6F 		.ascii	"allowWrite\000"
 5053      77577269 
 5053      746500
 5054              	.LASF318:
 5055 03bb 73616D70 		.ascii	"sampleRate\000"
 5055      6C655261 
 5055      746500
 5056              	.LASF76:
 5057 03c6 53535031 		.ascii	"SSP1_IRQn\000"
 5057      5F495251 
 5057      6E00
 5058              	.LASF229:
 5059 03d0 74696D65 		.ascii	"timer0Mode\000"
 5059      72304D6F 
 5059      646500
 5060              	.LASF121:
 5061 03db 4D4D4652 		.ascii	"MMFR\000"
 5061      00
 5062              	.LASF97:
 5063 03e0 49534552 		.ascii	"ISER\000"
 5063      00
 5064              	.LASF376:
 5065 03e5 65647561 		.ascii	"eduarmBuzzerGpioCfg\000"
 5065      726D4275 
 5065      7A7A6572 
 5065      4770696F 
 5065      43666700 
 5066              	.LASF12:
 5067 03f9 666C6F61 		.ascii	"float\000"
 5067      7400
 5068              	.LASF254:
 5069 03ff 656E5370 		.ascii	"enSpi0IntRxBuffHalfFull\000"
 5069      6930496E 
 5069      74527842 
 5069      75666648 
 5069      616C6646 
 5070              	.LASF310:
 5071 0417 656E3634 		.ascii	"en64SamplesPerSecond\000"
 5071      53616D70 
 5071      6C657350 
 5071      65725365 
 5071      636F6E64 
 5072              	.LASF100:
 5073 042c 52534552 		.ascii	"RSERVED1\000"
 5073      56454431 
 5073      00
 5074              	.LASF8:
 5075 0435 6C6F6E67 		.ascii	"long long unsigned int\000"
 5075      206C6F6E 
 5075      6720756E 
 5075      7369676E 
 5075      65642069 
 5076              	.LASF184:
 5077 044c 5046456E 		.ascii	"PFEnUart0StopBits\000"
 5077      55617274 
ARM GAS  C:\Users\Aayush\AppData\Local\Temp\ccPGXf2s.s 			page 114


 5077      3053746F 
 5077      70426974 
 5077      7300
 5078              	.LASF86:
 5079 045e 43414E5F 		.ascii	"CAN_IRQn\000"
 5079      4952516E 
 5079      00
 5080              	.LASF43:
 5081 0467 656E5374 		.ascii	"enStatusCrcError\000"
 5081      61747573 
 5081      43726345 
 5081      72726F72 
 5081      00
 5082              	.LASF392:
 5083 0478 65787449 		.ascii	"extIntTouchCallback\000"
 5083      6E74546F 
 5083      75636843 
 5083      616C6C62 
 5083      61636B00 
 5084              	.LASF346:
 5085 048c 6373697A 		.ascii	"csize\000"
 5085      6500
 5086              	.LASF224:
 5087 0492 5046456E 		.ascii	"PFEnTimer0ExtMatchCtrl\000"
 5087      54696D65 
 5087      72304578 
 5087      744D6174 
 5087      63684374 
 5088              	.LASF67:
 5089 04a9 55415254 		.ascii	"UART1_IRQn\000"
 5089      315F4952 
 5089      516E00
 5090              	.LASF222:
 5091 04b4 656E5469 		.ascii	"enTimer0ExtMatchCtrlSetPin\000"
 5091      6D657230 
 5091      4578744D 
 5091      61746368 
 5091      4374726C 
 5092              	.LASF197:
 5093 04cf 636F6D70 		.ascii	"compareValue\000"
 5093      61726556 
 5093      616C7565 
 5093      00
 5094              	.LASF46:
 5095 04dc 5046456E 		.ascii	"PFEnStatus\000"
 5095      53746174 
 5095      757300
 5096              	.LASF186:
 5097 04e7 656E5561 		.ascii	"enUart0IntRx\000"
 5097      72743049 
 5097      6E745278 
 5097      00
 5098              	.LASF265:
 5099 04f4 6F776E41 		.ascii	"ownAddress\000"
 5099      64647265 
 5099      737300
 5100              	.LASF377:
ARM GAS  C:\Users\Aayush\AppData\Local\Temp\ccPGXf2s.s 			page 115


 5101 04ff 62757A7A 		.ascii	"buzzerConfig\000"
 5101      6572436F 
 5101      6E666967 
 5101      00
 5102              	.LASF295:
 5103 050c 456E546F 		.ascii	"EnTouchReferenceSelect\000"
 5103      75636852 
 5103      65666572 
 5103      656E6365 
 5103      53656C65 
 5104              	.LASF24:
 5105 0523 656E5374 		.ascii	"enStatusAborted\000"
 5105      61747573 
 5105      41626F72 
 5105      74656400 
 5106              	.LASF315:
 5107 0533 656E3253 		.ascii	"en2SamplesPerSecond\000"
 5107      616D706C 
 5107      65735065 
 5107      72536563 
 5107      6F6E6400 
 5108              	.LASF367:
 5109 0547 65647561 		.ascii	"eduarmLcdGpioCfg\000"
 5109      726D4C63 
 5109      64477069 
 5109      6F436667 
 5109      00
 5110              	.LASF246:
 5111 0558 656E5370 		.ascii	"enSpi0Mode_0\000"
 5111      69304D6F 
 5111      64655F30 
 5111      00
 5112              	.LASF156:
 5113 0565 50467047 		.ascii	"PFpGpioPortPin\000"
 5113      70696F50 
 5113      6F727450 
 5113      696E00
 5114              	.LASF248:
 5115 0574 656E5370 		.ascii	"enSpi0Mode_2\000"
 5115      69304D6F 
 5115      64655F32 
 5115      00
 5116              	.LASF249:
 5117 0581 656E5370 		.ascii	"enSpi0Mode_3\000"
 5117      69304D6F 
 5117      64655F33 
 5117      00
 5118              	.LASF206:
 5119 058e 656E5469 		.ascii	"enTimer0ModeCounterCap0BothEdge\000"
 5119      6D657230 
 5119      4D6F6465 
 5119      436F756E 
 5119      74657243 
 5120              	.LASF145:
 5121 05ae 5046456E 		.ascii	"PFEnGpioPinMode\000"
 5121      4770696F 
 5121      50696E4D 
ARM GAS  C:\Users\Aayush\AppData\Local\Temp\ccPGXf2s.s 			page 116


 5121      6F646500 
 5122              	.LASF357:
 5123 05be 66617462 		.ascii	"fatbase\000"
 5123      61736500 
 5124              	.LASF267:
 5125 05c6 696E7445 		.ascii	"intEnable\000"
 5125      6E61626C 
 5125      6500
 5126              	.LASF389:
 5127 05d0 474E5520 		.ascii	"GNU C99 10.3.1 20210824 (release) -mcpu=cortex-m3 -"
 5127      43393920 
 5127      31302E33 
 5127      2E312032 
 5127      30323130 
 5128 0603 6D746875 		.ascii	"mthumb -mfloat-abi=soft -march=armv7-m -gdwarf-2 -O"
 5128      6D62202D 
 5128      6D666C6F 
 5128      61742D61 
 5128      62693D73 
 5129 0636 30202D73 		.ascii	"0 -std=gnu99 -fomit-frame-pointer\000"
 5129      74643D67 
 5129      6E753939 
 5129      202D666F 
 5129      6D69742D 
 5130              	.LASF245:
 5131 0658 5046456E 		.ascii	"PFEnSpi0Databits\000"
 5131      53706930 
 5131      44617461 
 5131      62697473 
 5131      00
 5132              	.LASF130:
 5133 0669 656E5063 		.ascii	"enPclkDiv_1\000"
 5133      6C6B4469 
 5133      765F3100 
 5134              	.LASF131:
 5135 0675 656E5063 		.ascii	"enPclkDiv_2\000"
 5135      6C6B4469 
 5135      765F3200 
 5136              	.LASF129:
 5137 0681 656E5063 		.ascii	"enPclkDiv_4\000"
 5137      6C6B4469 
 5137      765F3400 
 5138              	.LASF324:
 5139 068d 42757A7A 		.ascii	"BuzzerCfg\000"
 5139      65724366 
 5139      6700
 5140              	.LASF132:
 5141 0697 656E5063 		.ascii	"enPclkDiv_8\000"
 5141      6C6B4469 
 5141      765F3800 
 5142              	.LASF338:
 5143 06a3 64657657 		.ascii	"devWrite\000"
 5143      72697465 
 5143      00
 5144              	.LASF50:
 5145 06ac 50466361 		.ascii	"PFcallback\000"
 5145      6C6C6261 
ARM GAS  C:\Users\Aayush\AppData\Local\Temp\ccPGXf2s.s 			page 117


 5145      636B00
 5146              	.LASF22:
 5147 06b7 656E5374 		.ascii	"enStatusTimeout\000"
 5147      61747573 
 5147      54696D65 
 5147      6F757400 
 5148              	.LASF144:
 5149 06c7 656E4770 		.ascii	"enGpioPinModePullDown\000"
 5149      696F5069 
 5149      6E4D6F64 
 5149      6550756C 
 5149      6C446F77 
 5150              	.LASF291:
 5151 06dd 77696474 		.ascii	"width\000"
 5151      6800
 5152              	.LASF379:
 5153 06e3 746F7563 		.ascii	"touchConfig\000"
 5153      68436F6E 
 5153      66696700 
 5154              	.LASF311:
 5155 06ef 656E3332 		.ascii	"en32SamplesPerSecond\000"
 5155      53616D70 
 5155      6C657350 
 5155      65725365 
 5155      636F6E64 
 5156              	.LASF181:
 5157 0704 5046456E 		.ascii	"PFEnUart0Parity\000"
 5157      55617274 
 5157      30506172 
 5157      69747900 
 5158              	.LASF110:
 5159 0714 43505549 		.ascii	"CPUID\000"
 5159      4400
 5160              	.LASF256:
 5161 071a 5046456E 		.ascii	"PFEnSpi0Interrupt\000"
 5161      53706930 
 5161      496E7465 
 5161      72727570 
 5161      7400
 5162              	.LASF13:
 5163 072c 646F7562 		.ascii	"double\000"
 5163      6C6500
 5164              	.LASF279:
 5165 0733 656E4766 		.ascii	"enGfxOrientation_90\000"
 5165      784F7269 
 5165      656E7461 
 5165      74696F6E 
 5165      5F393000 
 5166              	.LASF344:
 5167 0747 66735F74 		.ascii	"fs_type\000"
 5167      79706500 
 5168              	.LASF354:
 5169 074f 63646972 		.ascii	"cdir\000"
 5169      00
 5170              	.LASF342:
 5171 0754 43666744 		.ascii	"CfgDisk\000"
 5171      69736B00 
ARM GAS  C:\Users\Aayush\AppData\Local\Temp\ccPGXf2s.s 			page 118


 5172              	.LASF164:
 5173 075c 656E5561 		.ascii	"enUart0Baudrate_4800\000"
 5173      72743042 
 5173      61756472 
 5173      6174655F 
 5173      34383030 
 5174              	.LASF166:
 5175 0771 656E5561 		.ascii	"enUart0Baudrate_19200\000"
 5175      72743042 
 5175      61756472 
 5175      6174655F 
 5175      31393230 
 5176              	.LASF41:
 5177 0787 656E5374 		.ascii	"enStatusMkfsAborted\000"
 5177      61747573 
 5177      4D6B6673 
 5177      41626F72 
 5177      74656400 
 5178              	.LASF120:
 5179 079b 41465352 		.ascii	"AFSR\000"
 5179      00
 5180              	.LASF20:
 5181 07a0 656E5374 		.ascii	"enStatusBusy\000"
 5181      61747573 
 5181      42757379 
 5181      00
 5182              	.LASF331:
 5183 07ad 73706945 		.ascii	"spiExchangeByte\000"
 5183      78636861 
 5183      6E676542 
 5183      79746500 
 5184              	.LASF258:
 5185 07bd 64617461 		.ascii	"datasize\000"
 5185      73697A65 
 5185      00
 5186              	.LASF125:
 5187 07c6 656E506C 		.ascii	"enPllClkSrcInternalRC\000"
 5187      6C436C6B 
 5187      53726349 
 5187      6E746572 
 5187      6E616C52 
 5188              	.LASF369:
 5189 07dc 72697443 		.ascii	"ritConfig\000"
 5189      6F6E6669 
 5189      6700
 5190              	.LASF253:
 5191 07e6 656E5370 		.ascii	"enSpi0IntRxTimeout\000"
 5191      6930496E 
 5191      74527854 
 5191      696D656F 
 5191      757400
 5192              	.LASF65:
 5193 07f9 54494D45 		.ascii	"TIMER3_IRQn\000"
 5193      52335F49 
 5193      52516E00 
 5194              	.LASF285:
 5195 0805 6770696F 		.ascii	"gpioRegSelect\000"
ARM GAS  C:\Users\Aayush\AppData\Local\Temp\ccPGXf2s.s 			page 119


 5195      52656753 
 5195      656C6563 
 5195      7400
 5196              	.LASF178:
 5197 0813 656E5561 		.ascii	"enUart0ParityEven\000"
 5197      72743050 
 5197      61726974 
 5197      79457665 
 5197      6E00
 5198              	.LASF201:
 5199 0825 72657365 		.ascii	"resetOnMatch\000"
 5199      744F6E4D 
 5199      61746368 
 5199      00
 5200              	.LASF187:
 5201 0832 656E5561 		.ascii	"enUart0IntTx\000"
 5201      72743049 
 5201      6E745478 
 5201      00
 5202              	.LASF36:
 5203 083f 656E5374 		.ascii	"enStatusInvalidObject\000"
 5203      61747573 
 5203      496E7661 
 5203      6C69644F 
 5203      626A6563 
 5204              	.LASF87:
 5205 0855 444D415F 		.ascii	"DMA_IRQn\000"
 5205      4952516E 
 5205      00
 5206              	.LASF141:
 5207 085e 656E4770 		.ascii	"enGpioPinModePullUp\000"
 5207      696F5069 
 5207      6E4D6F64 
 5207      6550756C 
 5207      6C557000 
 5208              	.LASF74:
 5209 0872 5350495F 		.ascii	"SPI_IRQn\000"
 5209      4952516E 
 5209      00
 5210              	.LASF116:
 5211 087b 48465352 		.ascii	"HFSR\000"
 5211      00
 5212              	.LASF217:
 5213 0880 656E5469 		.ascii	"enTimer0MatchActStopReset\000"
 5213      6D657230 
 5213      4D617463 
 5213      68416374 
 5213      53746F70 
 5214              	.LASF319:
 5215 089a 70493263 		.ascii	"pI2cWrite\000"
 5215      57726974 
 5215      6500
 5216              	.LASF124:
 5217 08a4 63686172 		.ascii	"char\000"
 5217      00
 5218              	.LASF133:
 5219 08a9 5046456E 		.ascii	"PFEnPclkDivider\000"
ARM GAS  C:\Users\Aayush\AppData\Local\Temp\ccPGXf2s.s 			page 120


 5219      50636C6B 
 5219      44697669 
 5219      64657200 
 5220              	.LASF113:
 5221 08b9 41495243 		.ascii	"AIRCR\000"
 5221      5200
 5222              	.LASF263:
 5223 08bf 656E6162 		.ascii	"enableAck\000"
 5223      6C654163 
 5223      6B00
 5224              	.LASF260:
 5225 08c9 50467043 		.ascii	"PFpCfgSpi0\000"
 5225      66675370 
 5225      693000
 5226              	.LASF10:
 5227 08d4 5046776F 		.ascii	"PFword\000"
 5227      726400
 5228              	.LASF320:
 5229 08db 70493263 		.ascii	"pI2cRead\000"
 5229      52656164 
 5229      00
 5230              	.LASF198:
 5231 08e4 636F6D70 		.ascii	"compareMask\000"
 5231      6172654D 
 5231      61736B00 
 5232              	.LASF165:
 5233 08f0 656E5561 		.ascii	"enUart0Baudrate_9600\000"
 5233      72743042 
 5233      61756472 
 5233      6174655F 
 5233      39363030 
 5234              	.LASF278:
 5235 0905 656E4766 		.ascii	"enGfxOrientation_0\000"
 5235      784F7269 
 5235      656E7461 
 5235      74696F6E 
 5235      5F3000
 5236              	.LASF214:
 5237 0918 656E5469 		.ascii	"enTimer0MatchActResetInt\000"
 5237      6D657230 
 5237      4D617463 
 5237      68416374 
 5237      52657365 
 5238              	.LASF328:
 5239 0931 75736543 		.ascii	"useCardDetect\000"
 5239      61726444 
 5239      65746563 
 5239      7400
 5240              	.LASF384:
 5241 093f 6469736B 		.ascii	"diskCfg\000"
 5241      43666700 
 5242              	.LASF385:
 5243 0947 73746174 		.ascii	"status\000"
 5243      757300
 5244              	.LASF96:
 5245 094e 4952516E 		.ascii	"IRQn_Type\000"
 5245      5F547970 
ARM GAS  C:\Users\Aayush\AppData\Local\Temp\ccPGXf2s.s 			page 121


 5245      6500
 5246              	.LASF370:
 5247 0958 74696D65 		.ascii	"timer0Config\000"
 5247      7230436F 
 5247      6E666967 
 5247      00
 5248              	.LASF351:
 5249 0965 6C617374 		.ascii	"last_clust\000"
 5249      5F636C75 
 5249      737400
 5250              	.LASF353:
 5251 0970 6673695F 		.ascii	"fsi_sector\000"
 5251      73656374 
 5251      6F7200
 5252              	.LASF142:
 5253 097b 656E4770 		.ascii	"enGpioPinModeRepeater\000"
 5253      696F5069 
 5253      6E4D6F64 
 5253      65526570 
 5253      65617465 
 5254              	.LASF148:
 5255 0991 5046456E 		.ascii	"PFEnOpenDrain\000"
 5255      4F70656E 
 5255      44726169 
 5255      6E00
 5256              	.LASF302:
 5257 099f 72656673 		.ascii	"refsel\000"
 5257      656C00
 5258              	.LASF40:
 5259 09a6 656E5374 		.ascii	"enStatusNoFilesystem\000"
 5259      61747573 
 5259      4E6F4669 
 5259      6C657379 
 5259      7374656D 
 5260              	.LASF352:
 5261 09bb 66726565 		.ascii	"free_clust\000"
 5261      5F636C75 
 5261      737400
 5262              	.LASF304:
 5263 09c6 73706952 		.ascii	"spiRegisterDevice\000"
 5263      65676973 
 5263      74657244 
 5263      65766963 
 5263      6500
 5264              	.LASF365:
 5265 09d8 65647561 		.ascii	"eduarmTouchGpioCfg\000"
 5265      726D546F 
 5265      75636847 
 5265      70696F43 
 5265      666700
 5266              	.LASF218:
 5267 09eb 656E5469 		.ascii	"enTimer0MatchActStopResetInt\000"
 5267      6D657230 
 5267      4D617463 
 5267      68416374 
 5267      53746F70 
 5268              	.LASF205:
ARM GAS  C:\Users\Aayush\AppData\Local\Temp\ccPGXf2s.s 			page 122


 5269 0a08 656E5469 		.ascii	"enTimer0ModeCounterCap0FallingEdge\000"
 5269      6D657230 
 5269      4D6F6465 
 5269      436F756E 
 5269      74657243 
 5270              	.LASF7:
 5271 0a2b 6C6F6E67 		.ascii	"long long int\000"
 5271      206C6F6E 
 5271      6720696E 
 5271      7400
 5272              	.LASF149:
 5273 0a39 656E4770 		.ascii	"enGpioFunctionGpio\000"
 5273      696F4675 
 5273      6E637469 
 5273      6F6E4770 
 5273      696F00
 5274              	.LASF329:
 5275 0a4c 73706952 		.ascii	"spiRegister\000"
 5275      65676973 
 5275      74657200 
 5276              	.LASF190:
 5277 0a58 636C6B44 		.ascii	"clkDiv\000"
 5277      697600
 5278              	.LASF89:
 5279 0a5f 454E4554 		.ascii	"ENET_IRQn\000"
 5279      5F495251 
 5279      6E00
 5280              	.LASF49:
 5281 0a69 5046456E 		.ascii	"PFEnBoolean\000"
 5281      426F6F6C 
 5281      65616E00 
 5282              	.LASF169:
 5283 0a75 656E5561 		.ascii	"enUart0Baudrate_115200\000"
 5283      72743042 
 5283      61756472 
 5283      6174655F 
 5283      31313532 
 5284              	.LASF140:
 5285 0a8c 5046456E 		.ascii	"PFEnDirection\000"
 5285      44697265 
 5285      6374696F 
 5285      6E00
 5286              	.LASF271:
 5287 0a9a 656E4569 		.ascii	"enEint1ModeHighLevel\000"
 5287      6E74314D 
 5287      6F646548 
 5287      6967684C 
 5287      6576656C 
 5288              	.LASF71:
 5289 0aaf 49324330 		.ascii	"I2C0_IRQn\000"
 5289      5F495251 
 5289      6E00
 5290              	.LASF299:
 5291 0ab9 6770696F 		.ascii	"gpioTouchIntPin\000"
 5291      546F7563 
 5291      68496E74 
 5291      50696E00 
ARM GAS  C:\Users\Aayush\AppData\Local\Temp\ccPGXf2s.s 			page 123


 5292              	.LASF45:
 5293 0ac9 656E5374 		.ascii	"enStatusNetDgramRejected\000"
 5293      61747573 
 5293      4E657444 
 5293      6772616D 
 5293      52656A65 
 5294              	.LASF115:
 5295 0ae2 43465352 		.ascii	"CFSR\000"
 5295      00
 5296              	.LASF69:
 5297 0ae7 55415254 		.ascii	"UART3_IRQn\000"
 5297      335F4952 
 5297      516E00
 5298              	.LASF330:
 5299 0af2 73706955 		.ascii	"spiUnregister\000"
 5299      6E726567 
 5299      69737465 
 5299      7200
 5300              	.LASF202:
 5301 0b00 50464366 		.ascii	"PFCfgRit\000"
 5301      67526974 
 5301      00
 5302              	.LASF194:
 5303 0b09 73746F70 		.ascii	"stopBits\000"
 5303      42697473 
 5303      00
 5304              	.LASF183:
 5305 0b12 656E5561 		.ascii	"enUart0StopBits_2\000"
 5305      72743053 
 5305      746F7042 
 5305      6974735F 
 5305      3200
 5306              	.LASF272:
 5307 0b24 656E4569 		.ascii	"enEint1ModeFallingEdge\000"
 5307      6E74314D 
 5307      6F646546 
 5307      616C6C69 
 5307      6E674564 
 5308              	.LASF270:
 5309 0b3b 656E4569 		.ascii	"enEint1ModeLowLevel\000"
 5309      6E74314D 
 5309      6F64654C 
 5309      6F774C65 
 5309      76656C00 
 5310              	.LASF375:
 5311 0b4f 61636365 		.ascii	"accelConfig\000"
 5311      6C436F6E 
 5311      66696700 
 5312              	.LASF92:
 5313 0b5b 5145495F 		.ascii	"QEI_IRQn\000"
 5313      4952516E 
 5313      00
 5314              	.LASF126:
 5315 0b64 656E506C 		.ascii	"enPllClkSrcMainOSC\000"
 5315      6C436C6B 
 5315      5372634D 
 5315      61696E4F 
ARM GAS  C:\Users\Aayush\AppData\Local\Temp\ccPGXf2s.s 			page 124


 5315      534300
 5316              	.LASF31:
 5317 0b77 656E5374 		.ascii	"enStatusNoFile\000"
 5317      61747573 
 5317      4E6F4669 
 5317      6C6500
 5318              	.LASF16:
 5319 0b86 656E5374 		.ascii	"enStatusInvArgs\000"
 5319      61747573 
 5319      496E7641 
 5319      72677300 
 5320              	.LASF47:
 5321 0b96 656E426F 		.ascii	"enBooleanFalse\000"
 5321      6F6C6561 
 5321      6E46616C 
 5321      736500
 5322              	.LASF93:
 5323 0ba5 504C4C31 		.ascii	"PLL1_IRQn\000"
 5323      5F495251 
 5323      6E00
 5324              	.LASF62:
 5325 0baf 54494D45 		.ascii	"TIMER0_IRQn\000"
 5325      52305F49 
 5325      52516E00 
 5326              	.LASF209:
 5327 0bbb 656E5469 		.ascii	"enTimer0ModeCounterCap1BothEdge\000"
 5327      6D657230 
 5327      4D6F6465 
 5327      436F756E 
 5327      74657243 
 5328              	.LASF317:
 5329 0bdb 456E5361 		.ascii	"EnSampleRate\000"
 5329      6D706C65 
 5329      52617465 
 5329      00
 5330              	.LASF283:
 5331 0be8 6770696F 		.ascii	"gpioData\000"
 5331      44617461 
 5331      00
 5332              	.LASF83:
 5333 0bf1 4144435F 		.ascii	"ADC_IRQn\000"
 5333      4952516E 
 5333      00
 5334              	.LASF17:
 5335 0bfa 656E5374 		.ascii	"enStatusInvState\000"
 5335      61747573 
 5335      496E7653 
 5335      74617465 
 5335      00
 5336              	.LASF3:
 5337 0c0b 73686F72 		.ascii	"short int\000"
 5337      7420696E 
 5337      7400
 5338              	.LASF55:
 5339 0c15 42757346 		.ascii	"BusFault_IRQn\000"
 5339      61756C74 
 5339      5F495251 
ARM GAS  C:\Users\Aayush\AppData\Local\Temp\ccPGXf2s.s 			page 125


 5339      6E00
 5340              	.LASF27:
 5341 0c23 656E5374 		.ascii	"enStatusBoardErr\000"
 5341      61747573 
 5341      426F6172 
 5341      64457272 
 5341      00
 5342              	.LASF84:
 5343 0c34 424F445F 		.ascii	"BOD_IRQn\000"
 5343      4952516E 
 5343      00
 5344              	.LASF85:
 5345 0c3d 5553425F 		.ascii	"USB_IRQn\000"
 5345      4952516E 
 5345      00
 5346              	.LASF225:
 5347 0c46 70726573 		.ascii	"prescaler\000"
 5347      63616C65 
 5347      7200
 5348              	.LASF297:
 5349 0c50 656E546F 		.ascii	"enTouchPrecision_12bit\000"
 5349      75636850 
 5349      72656369 
 5349      73696F6E 
 5349      5F313262 
 5350              	.LASF290:
 5351 0c67 68656967 		.ascii	"height\000"
 5351      687400
 5352              	.LASF42:
 5353 0c6e 656E5374 		.ascii	"enStatusNetNoRouteFound\000"
 5353      61747573 
 5353      4E65744E 
 5353      6F526F75 
 5353      7465466F 
 5354              	.LASF103:
 5355 0c86 49435052 		.ascii	"ICPR\000"
 5355      00
 5356              	.LASF94:
 5357 0c8b 55534241 		.ascii	"USBActivity_IRQn\000"
 5357      63746976 
 5357      6974795F 
 5357      4952516E 
 5357      00
 5358              	.LASF261:
 5359 0c9c 62617564 		.ascii	"baudRate\000"
 5359      52617465 
 5359      00
 5360              	.LASF44:
 5361 0ca5 656E5374 		.ascii	"enStatusNetNoService\000"
 5361      61747573 
 5361      4E65744E 
 5361      6F536572 
 5361      76696365 
 5362              	.LASF180:
 5363 0cba 656E5561 		.ascii	"enUart0ParityZero\000"
 5363      72743050 
 5363      61726974 
ARM GAS  C:\Users\Aayush\AppData\Local\Temp\ccPGXf2s.s 			page 126


 5363      795A6572 
 5363      6F00
 5364              	.LASF163:
 5365 0ccc 656E5561 		.ascii	"enUart0Baudrate_2400\000"
 5365      72743042 
 5365      61756472 
 5365      6174655F 
 5365      32343030 
 5366              	.LASF361:
 5367 0ce1 46617446 		.ascii	"FatFs\000"
 5367      7300
 5368              	.LASF210:
 5369 0ce7 5046456E 		.ascii	"PFEnTimer0Mode\000"
 5369      54696D65 
 5369      72304D6F 
 5369      646500
 5370              	.LASF387:
 5371 0cf6 4952516E 		.ascii	"IRQn\000"
 5371      00
 5372              	.LASF179:
 5373 0cfb 656E5561 		.ascii	"enUart0ParityOne\000"
 5373      72743050 
 5373      61726974 
 5373      794F6E65 
 5373      00
 5374              	.LASF355:
 5375 0d0c 73656374 		.ascii	"sects_fat\000"
 5375      735F6661 
 5375      7400
 5376              	.LASF108:
 5377 0d16 53544952 		.ascii	"STIR\000"
 5377      00
 5378              	.LASF220:
 5379 0d1b 656E5469 		.ascii	"enTimer0ExtMatchCtrlNone\000"
 5379      6D657230 
 5379      4578744D 
 5379      61746368 
 5379      4374726C 
 5380              	.LASF215:
 5381 0d34 656E5469 		.ascii	"enTimer0MatchActStop\000"
 5381      6D657230 
 5381      4D617463 
 5381      68416374 
 5381      53746F70 
 5382              	.LASF118:
 5383 0d49 4D4D4641 		.ascii	"MMFAR\000"
 5383      5200
 5384              	.LASF2:
 5385 0d4f 756E7369 		.ascii	"unsigned char\000"
 5385      676E6564 
 5385      20636861 
 5385      7200
 5386              	.LASF161:
 5387 0d5d 616C7446 		.ascii	"altFuction\000"
 5387      75637469 
 5387      6F6E00
 5388              	.LASF78:
ARM GAS  C:\Users\Aayush\AppData\Local\Temp\ccPGXf2s.s 			page 127


 5389 0d68 5254435F 		.ascii	"RTC_IRQn\000"
 5389      4952516E 
 5389      00
 5390              	.LASF322:
 5391 0d71 4366674D 		.ascii	"CfgMma7660\000"
 5391      6D613736 
 5391      363000
 5392              	.LASF312:
 5393 0d7c 656E3136 		.ascii	"en16SamplesPerSecond\000"
 5393      53616D70 
 5393      6C657350 
 5393      65725365 
 5393      636F6E64 
 5394              	.LASF98:
 5395 0d91 52455345 		.ascii	"RESERVED0\000"
 5395      52564544 
 5395      3000
 5396              	.LASF207:
 5397 0d9b 656E5469 		.ascii	"enTimer0ModeCounterCap1RisingEdge\000"
 5397      6D657230 
 5397      4D6F6465 
 5397      436F756E 
 5397      74657243 
 5398              	.LASF114:
 5399 0dbd 53484353 		.ascii	"SHCSR\000"
 5399      5200
 5400              	.LASF381:
 5401 0dc3 65787449 		.ascii	"extIntTouchConfig\000"
 5401      6E74546F 
 5401      75636843 
 5401      6F6E6669 
 5401      6700
 5402              	.LASF106:
 5403 0dd5 52455345 		.ascii	"RESERVED4\000"
 5403      52564544 
 5403      3400
 5404              	.LASF107:
 5405 0ddf 52455345 		.ascii	"RESERVED5\000"
 5405      52564544 
 5405      3500
 5406              	.LASF32:
 5407 0de9 656E5374 		.ascii	"enStatusNoPath\000"
 5407      61747573 
 5407      4E6F5061 
 5407      746800
 5408              	.LASF269:
 5409 0df8 50467043 		.ascii	"PFpCfgI2c0\000"
 5409      66674932 
 5409      633000
 5410              	.LASF305:
 5411 0e03 73706943 		.ascii	"spiChipSelect\000"
 5411      68697053 
 5411      656C6563 
 5411      7400
 5412              	.LASF307:
 5413 0e11 73706952 		.ascii	"spiRead\000"
 5413      65616400 
ARM GAS  C:\Users\Aayush\AppData\Local\Temp\ccPGXf2s.s 			page 128


 5414              	.LASF293:
 5415 0e19 656E546F 		.ascii	"enTouchReferenceSelect_Differential\000"
 5415      75636852 
 5415      65666572 
 5415      656E6365 
 5415      53656C65 
 5416              	.LASF5:
 5417 0e3d 6C6F6E67 		.ascii	"long int\000"
 5417      20696E74 
 5417      00
 5418              	.LASF127:
 5419 0e46 656E506C 		.ascii	"enPllClkSrcRtcOSC\000"
 5419      6C436C6B 
 5419      53726352 
 5419      74634F53 
 5419      4300
 5420              	.LASF138:
 5421 0e58 656E4770 		.ascii	"enGpioDirInput\000"
 5421      696F4469 
 5421      72496E70 
 5421      757400
 5422              	.LASF378:
 5423 0e67 6C636444 		.ascii	"lcdDisplayConfig\000"
 5423      6973706C 
 5423      6179436F 
 5423      6E666967 
 5423      00
 5424              	.LASF314:
 5425 0e78 656E3453 		.ascii	"en4SamplesPerSecond\000"
 5425      616D706C 
 5425      65735065 
 5425      72536563 
 5425      6F6E6400 
 5426              	.LASF34:
 5427 0e8c 656E5374 		.ascii	"enStatusAccessDenied\000"
 5427      61747573 
 5427      41636365 
 5427      73734465 
 5427      6E696564 
 5428              	.LASF388:
 5429 0ea1 7072696F 		.ascii	"priority\000"
 5429      72697479 
 5429      00
 5430              	.LASF150:
 5431 0eaa 656E4770 		.ascii	"enGpioFunctionAlt1\000"
 5431      696F4675 
 5431      6E637469 
 5431      6F6E416C 
 5431      743100
 5432              	.LASF66:
 5433 0ebd 55415254 		.ascii	"UART0_IRQn\000"
 5433      305F4952 
 5433      516E00
 5434              	.LASF29:
 5435 0ec8 656E5374 		.ascii	"enStatusInternalError\000"
 5435      61747573 
 5435      496E7465 
ARM GAS  C:\Users\Aayush\AppData\Local\Temp\ccPGXf2s.s 			page 129


 5435      726E616C 
 5435      4572726F 
 5436              	.LASF176:
 5437 0ede 656E5561 		.ascii	"enUart0ParityNone\000"
 5437      72743050 
 5437      61726974 
 5437      794E6F6E 
 5437      6500
 5438              	.LASF250:
 5439 0ef0 5046456E 		.ascii	"PFEnSpi0Mode\000"
 5439      53706930 
 5439      4D6F6465 
 5439      00
 5440              	.LASF266:
 5441 0efd 61646472 		.ascii	"addrMask\000"
 5441      4D61736B 
 5441      00
 5442              	.LASF52:
 5443 0f06 4E6F6E4D 		.ascii	"NonMaskableInt_IRQn\000"
 5443      61736B61 
 5443      626C6549 
 5443      6E745F49 
 5443      52516E00 
 5444              	.LASF280:
 5445 0f1a 656E4766 		.ascii	"enGfxOrientation_180\000"
 5445      784F7269 
 5445      656E7461 
 5445      74696F6E 
 5445      5F313830 
 5446              	.LASF332:
 5447 0f2f 4366674D 		.ascii	"CfgMmc\000"
 5447      6D6300
 5448              	.LASF54:
 5449 0f36 4D656D6F 		.ascii	"MemoryManagement_IRQn\000"
 5449      72794D61 
 5449      6E616765 
 5449      6D656E74 
 5449      5F495251 
 5450              	.LASF37:
 5451 0f4c 656E5374 		.ascii	"enStatusWriteProtected\000"
 5451      61747573 
 5451      57726974 
 5451      6550726F 
 5451      74656374 
 5452              	.LASF277:
 5453 0f63 50464366 		.ascii	"PFCfgEint1\000"
 5453      6745696E 
 5453      743100
 5454              	.LASF264:
 5455 0f6e 656E6162 		.ascii	"enableGenCall\000"
 5455      6C654765 
 5455      6E43616C 
 5455      6C00
 5456              	.LASF64:
 5457 0f7c 54494D45 		.ascii	"TIMER2_IRQn\000"
 5457      52325F49 
 5457      52516E00 
ARM GAS  C:\Users\Aayush\AppData\Local\Temp\ccPGXf2s.s 			page 130


 5458              	.LASF147:
 5459 0f88 656E4770 		.ascii	"enGpioOpenDrainEnable\000"
 5459      696F4F70 
 5459      656E4472 
 5459      61696E45 
 5459      6E61626C 
 5460              	.LASF28:
 5461 0f9e 656E5374 		.ascii	"enStatusDiskError\000"
 5461      61747573 
 5461      4469736B 
 5461      4572726F 
 5461      7200
 5462              	.LASF72:
 5463 0fb0 49324331 		.ascii	"I2C1_IRQn\000"
 5463      5F495251 
 5463      6E00
 5464              	.LASF109:
 5465 0fba 4E564943 		.ascii	"NVIC_Type\000"
 5465      5F547970 
 5465      6500
 5466              	.LASF358:
 5467 0fc4 64697262 		.ascii	"dirbase\000"
 5467      61736500 
 5468              	.LASF313:
 5469 0fcc 656E3853 		.ascii	"en8SamplesPerSecond\000"
 5469      616D706C 
 5469      65735065 
 5469      72536563 
 5469      6F6E6400 
 5470              	.LASF119:
 5471 0fe0 42464152 		.ascii	"BFAR\000"
 5471      00
 5472              	.LASF79:
 5473 0fe5 45494E54 		.ascii	"EINT0_IRQn\000"
 5473      305F4952 
 5473      516E00
 5474              	.LASF0:
 5475 0ff0 756E7369 		.ascii	"unsigned int\000"
 5475      676E6564 
 5475      20696E74 
 5475      00
 5476              	.LASF80:
 5477 0ffd 45494E54 		.ascii	"EINT1_IRQn\000"
 5477      315F4952 
 5477      516E00
 5478              	.LASF350:
 5479 1008 6E5F726F 		.ascii	"n_rootdir\000"
 5479      6F746469 
 5479      7200
 5480              	.LASF112:
 5481 1012 56544F52 		.ascii	"VTOR\000"
 5481      00
 5482              	.LASF136:
 5483 1017 706C6C43 		.ascii	"pllClkSrc\000"
 5483      6C6B5372 
 5483      6300
 5484              	.LASF337:
ARM GAS  C:\Users\Aayush\AppData\Local\Temp\ccPGXf2s.s 			page 131


 5485 1021 64657652 		.ascii	"devRead\000"
 5485      65616400 
 5486              	.LASF232:
 5487 1029 656E5370 		.ascii	"enSpi0Databits_4\000"
 5487      69304461 
 5487      74616269 
 5487      74735F34 
 5487      00
 5488              	.LASF233:
 5489 103a 656E5370 		.ascii	"enSpi0Databits_5\000"
 5489      69304461 
 5489      74616269 
 5489      74735F35 
 5489      00
 5490              	.LASF234:
 5491 104b 656E5370 		.ascii	"enSpi0Databits_6\000"
 5491      69304461 
 5491      74616269 
 5491      74735F36 
 5491      00
 5492              	.LASF235:
 5493 105c 656E5370 		.ascii	"enSpi0Databits_7\000"
 5493      69304461 
 5493      74616269 
 5493      74735F37 
 5493      00
 5494              	.LASF236:
 5495 106d 656E5370 		.ascii	"enSpi0Databits_8\000"
 5495      69304461 
 5495      74616269 
 5495      74735F38 
 5495      00
 5496              	.LASF237:
 5497 107e 656E5370 		.ascii	"enSpi0Databits_9\000"
 5497      69304461 
 5497      74616269 
 5497      74735F39 
 5497      00
 5498              	.LASF274:
 5499 108f 5046456E 		.ascii	"PFEnEint1Mode\000"
 5499      45696E74 
 5499      314D6F64 
 5499      6500
 5500              	.LASF60:
 5501 109d 53797354 		.ascii	"SysTick_IRQn\000"
 5501      69636B5F 
 5501      4952516E 
 5501      00
 5502              	.LASF90:
 5503 10aa 5249545F 		.ascii	"RIT_IRQn\000"
 5503      4952516E 
 5503      00
 5504              	.LASF284:
 5505 10b3 6770696F 		.ascii	"gpioChipSelect\000"
 5505      43686970 
 5505      53656C65 
 5505      637400
ARM GAS  C:\Users\Aayush\AppData\Local\Temp\ccPGXf2s.s 			page 132


 5506              	.LASF230:
 5507 10c2 696E7465 		.ascii	"interrupt\000"
 5507      72727570 
 5507      7400
 5508              	.LASF111:
 5509 10cc 49435352 		.ascii	"ICSR\000"
 5509      00
 5510              	.LASF73:
 5511 10d1 49324332 		.ascii	"I2C2_IRQn\000"
 5511      5F495251 
 5511      6E00
 5512              	.LASF6:
 5513 10db 6C6F6E67 		.ascii	"long unsigned int\000"
 5513      20756E73 
 5513      69676E65 
 5513      6420696E 
 5513      7400
 5514              	.LASF9:
 5515 10ed 50466279 		.ascii	"PFbyte\000"
 5515      746500
 5516              	.LASF362:
 5517 10f4 65647561 		.ascii	"eduarmPushButtonGpioCfg\000"
 5517      726D5075 
 5517      73684275 
 5517      74746F6E 
 5517      4770696F 
 5518              	.LASF168:
 5519 110c 656E5561 		.ascii	"enUart0Baudrate_57600\000"
 5519      72743042 
 5519      61756472 
 5519      6174655F 
 5519      35373630 
 5520              	.LASF212:
 5521 1122 656E5469 		.ascii	"enTimer0MatchActInterrupt\000"
 5521      6D657230 
 5521      4D617463 
 5521      68416374 
 5521      496E7465 
 5522              	.LASF349:
 5523 113c 6673695F 		.ascii	"fsi_flag\000"
 5523      666C6167 
 5523      00
 5524              	.LASF137:
 5525 1145 50464366 		.ascii	"PFCfgClk\000"
 5525      67436C6B 
 5525      00
 5526              	.LASF19:
 5527 114e 656E5374 		.ascii	"enStatusNotConfigured\000"
 5527      61747573 
 5527      4E6F7443 
 5527      6F6E6669 
 5527      67757265 
 5528              	.LASF154:
 5529 1164 706F7274 		.ascii	"port\000"
 5529      00
 5530              	.LASF204:
 5531 1169 656E5469 		.ascii	"enTimer0ModeCounterCap0RisingEdge\000"
ARM GAS  C:\Users\Aayush\AppData\Local\Temp\ccPGXf2s.s 			page 133


 5531      6D657230 
 5531      4D6F6465 
 5531      436F756E 
 5531      74657243 
 5532              	.LASF373:
 5533 118b 65647561 		.ascii	"eduarmMma7660GpioCfg\000"
 5533      726D4D6D 
 5533      61373636 
 5533      30477069 
 5533      6F436667 
 5534              	.LASF321:
 5535 11a0 696E7465 		.ascii	"interruptStatus\000"
 5535      72727570 
 5535      74537461 
 5535      74757300 
 5536              	.LASF360:
 5537 11b0 77696E73 		.ascii	"winsect\000"
 5537      65637400 
 5538              	.LASF257:
 5539 11b8 6D617374 		.ascii	"masterMode\000"
 5539      65724D6F 
 5539      646500
 5540              	.LASF26:
 5541 11c3 656E5374 		.ascii	"enStatusUnknown\000"
 5541      61747573 
 5541      556E6B6E 
 5541      6F776E00 
 5542              	.LASF213:
 5543 11d3 656E5469 		.ascii	"enTimer0MatchActReset\000"
 5543      6D657230 
 5543      4D617463 
 5543      68416374 
 5543      52657365 
 5544              	.LASF58:
 5545 11e9 44656275 		.ascii	"DebugMonitor_IRQn\000"
 5545      674D6F6E 
 5545      69746F72 
 5545      5F495251 
 5545      6E00
 5546              	.LASF56:
 5547 11fb 55736167 		.ascii	"UsageFault_IRQn\000"
 5547      65466175 
 5547      6C745F49 
 5547      52516E00 
 5548              	.LASF308:
 5549 120b 43666754 		.ascii	"CfgTouch\000"
 5549      6F756368 
 5549      00
 5550              	.LASF286:
 5551 1214 6770696F 		.ascii	"gpioWrite\000"
 5551      57726974 
 5551      6500
 5552              	.LASF189:
 5553 121e 5046456E 		.ascii	"PFEnUart0Interrupt\000"
 5553      55617274 
 5553      30496E74 
 5553      65727275 
ARM GAS  C:\Users\Aayush\AppData\Local\Temp\ccPGXf2s.s 			page 134


 5553      707400
 5554              	.LASF135:
 5555 1231 6F736346 		.ascii	"oscFreq\000"
 5555      72657100 
 5556              	.LASF61:
 5557 1239 5744545F 		.ascii	"WDT_IRQn\000"
 5557      4952516E 
 5557      00
 5558              	.LASF167:
 5559 1242 656E5561 		.ascii	"enUart0Baudrate_38400\000"
 5559      72743042 
 5559      61756472 
 5559      6174655F 
 5559      33383430 
 5560              	.LASF182:
 5561 1258 656E5561 		.ascii	"enUart0StopBits_1\000"
 5561      72743053 
 5561      746F7042 
 5561      6974735F 
 5561      3100
 5562              	.LASF18:
 5563 126a 656E5374 		.ascii	"enStatusNotSupported\000"
 5563      61747573 
 5563      4E6F7453 
 5563      7570706F 
 5563      72746564 
 5564              	.LASF57:
 5565 127f 53564361 		.ascii	"SVCall_IRQn\000"
 5565      6C6C5F49 
 5565      52516E00 
 5566              	.LASF323:
 5567 128b 62757A7A 		.ascii	"buzzerPin\000"
 5567      65725069 
 5567      6E00
 5568              	.LASF123:
 5569 1295 5343425F 		.ascii	"SCB_Type\000"
 5569      54797065 
 5569      00
 5570              	.LASF226:
 5571 129e 6D617463 		.ascii	"matchValue\000"
 5571      6856616C 
 5571      756500
 5572              	.LASF301:
 5573 12a9 6770696F 		.ascii	"gpioTouchCsGpio\000"
 5573      546F7563 
 5573      68437347 
 5573      70696F00 
 5574              	.LASF38:
 5575 12b9 656E5374 		.ascii	"enStatusInvalidDrive\000"
 5575      61747573 
 5575      496E7661 
 5575      6C696444 
 5575      72697665 
 5576              	.LASF75:
 5577 12ce 53535030 		.ascii	"SSP0_IRQn\000"
 5577      5F495251 
 5577      6E00
ARM GAS  C:\Users\Aayush\AppData\Local\Temp\ccPGXf2s.s 			page 135


 5578              	.LASF91:
 5579 12d8 4D435057 		.ascii	"MCPWM_IRQn\000"
 5579      4D5F4952 
 5579      516E00
 5580              	.LASF99:
 5581 12e3 49434552 		.ascii	"ICER\000"
 5581      00
 5582              	.LASF356:
 5583 12e8 6D61785F 		.ascii	"max_clust\000"
 5583      636C7573 
 5583      7400
 5584              	.LASF11:
 5585 12f2 50466477 		.ascii	"PFdword\000"
 5585      6F726400 
 5586              	.LASF30:
 5587 12fa 656E5374 		.ascii	"enStatusDiskNotReady\000"
 5587      61747573 
 5587      4469736B 
 5587      4E6F7452 
 5587      65616479 
 5588              	.LASF175:
 5589 130f 5046456E 		.ascii	"PFEnUart0Databits\000"
 5589      55617274 
 5589      30446174 
 5589      61626974 
 5589      7300
 5590              	.LASF146:
 5591 1321 656E4770 		.ascii	"enGpioOpenDrainDisable\000"
 5591      696F4F70 
 5591      656E4472 
 5591      61696E44 
 5591      69736162 
 5592              	.LASF105:
 5593 1338 49414252 		.ascii	"IABR\000"
 5593      00
 5594              	.LASF68:
 5595 133d 55415254 		.ascii	"UART2_IRQn\000"
 5595      325F4952 
 5595      516E00
 5596              	.LASF380:
 5597 1348 65787449 		.ascii	"extInt1CallbackArray\000"
 5597      6E743143 
 5597      616C6C62 
 5597      61636B41 
 5597      72726179 
 5598              	.LASF374:
 5599 135d 69326330 		.ascii	"i2c0Cfg\000"
 5599      43666700 
 5600              	.LASF259:
 5601 1365 50464366 		.ascii	"PFCfgSpi0\000"
 5601      67537069 
 5601      3000
 5602              	.LASF70:
 5603 136f 50574D31 		.ascii	"PWM1_IRQn\000"
 5603      5F495251 
 5603      6E00
 5604              	.LASF238:
ARM GAS  C:\Users\Aayush\AppData\Local\Temp\ccPGXf2s.s 			page 136


 5605 1379 656E5370 		.ascii	"enSpi0Databits_10\000"
 5605      69304461 
 5605      74616269 
 5605      74735F31 
 5605      3000
 5606              	.LASF51:
 5607 138b 52657365 		.ascii	"Reset_IRQn\000"
 5607      745F4952 
 5607      516E00
 5608              	.LASF155:
 5609 1396 50464770 		.ascii	"PFGpioPortPin\000"
 5609      696F506F 
 5609      72745069 
 5609      6E00
 5610              	.LASF241:
 5611 13a4 656E5370 		.ascii	"enSpi0Databits_13\000"
 5611      69304461 
 5611      74616269 
 5611      74735F31 
 5611      3300
 5612              	.LASF242:
 5613 13b6 656E5370 		.ascii	"enSpi0Databits_14\000"
 5613      69304461 
 5613      74616269 
 5613      74735F31 
 5613      3400
 5614              	.LASF243:
 5615 13c8 656E5370 		.ascii	"enSpi0Databits_15\000"
 5615      69304461 
 5615      74616269 
 5615      74735F31 
 5615      3500
 5616              	.LASF244:
 5617 13da 656E5370 		.ascii	"enSpi0Databits_16\000"
 5617      69304461 
 5617      74616269 
 5617      74735F31 
 5617      3600
 5618              	.LASF252:
 5619 13ec 656E5370 		.ascii	"enSpi0IntRxOverrun\000"
 5619      6930496E 
 5619      7452784F 
 5619      76657272 
 5619      756E00
 5620              	.LASF282:
 5621 13ff 456E4766 		.ascii	"EnGfxOrientation\000"
 5621      784F7269 
 5621      656E7461 
 5621      74696F6E 
 5621      00
 5622              	.LASF292:
 5623 1410 43666747 		.ascii	"CfgGfx\000"
 5623      667800
 5624              	.LASF200:
 5625 1417 68616C74 		.ascii	"haltOnBreak\000"
 5625      4F6E4272 
 5625      65616B00 
ARM GAS  C:\Users\Aayush\AppData\Local\Temp\ccPGXf2s.s 			page 137


 5626              	.LASF211:
 5627 1423 656E5469 		.ascii	"enTimer0MatchActNone\000"
 5627      6D657230 
 5627      4D617463 
 5627      68416374 
 5627      4E6F6E65 
 5628              	.LASF1:
 5629 1438 7369676E 		.ascii	"signed char\000"
 5629      65642063 
 5629      68617200 
 5630              	.LASF4:
 5631 1444 73686F72 		.ascii	"short unsigned int\000"
 5631      7420756E 
 5631      7369676E 
 5631      65642069 
 5631      6E7400
 5632              	.LASF343:
 5633 1457 70436667 		.ascii	"pCfgDisk\000"
 5633      4469736B 
 5633      00
 5634              	.LASF359:
 5635 1460 64617461 		.ascii	"database\000"
 5635      62617365 
 5635      00
 5636              	.LASF208:
 5637 1469 656E5469 		.ascii	"enTimer0ModeCounterCap1FallingEdge\000"
 5637      6D657230 
 5637      4D6F6465 
 5637      436F756E 
 5637      74657243 
 5638              	.LASF368:
 5639 148c 636C6B43 		.ascii	"clkConfig\000"
 5639      6F6E6669 
 5639      6700
 5640              	.LASF128:
 5641 1496 5046456E 		.ascii	"PFEnClkSrc\000"
 5641      436C6B53 
 5641      726300
 5642              	.LASF53:
 5643 14a1 48617264 		.ascii	"HardFault_IRQn\000"
 5643      4661756C 
 5643      745F4952 
 5643      516E00
 5644              	.LASF273:
 5645 14b0 656E4569 		.ascii	"enEint1ModeRisingEdge\000"
 5645      6E74314D 
 5645      6F646552 
 5645      6973696E 
 5645      67456467 
 5646              	.LASF255:
 5647 14c6 656E5370 		.ascii	"enSpi0IntTxBuffHalfEmpty\000"
 5647      6930496E 
 5647      74547842 
 5647      75666648 
 5647      616C6645 
 5648              	.LASF296:
 5649 14df 656E546F 		.ascii	"enTouchPrecision_8bit\000"
ARM GAS  C:\Users\Aayush\AppData\Local\Temp\ccPGXf2s.s 			page 138


 5649      75636850 
 5649      72656369 
 5649      73696F6E 
 5649      5F386269 
 5650              	.LASF134:
 5651 14f5 63707546 		.ascii	"cpuFreqHz\000"
 5651      72657148 
 5651      7A00
 5652              	.LASF101:
 5653 14ff 49535052 		.ascii	"ISPR\000"
 5653      00
 5654              	.LASF339:
 5655 1504 64657649 		.ascii	"devIoCtrl\000"
 5655      6F437472 
 5655      6C00
 5656              	.LASF14:
 5657 150e 656E5374 		.ascii	"enStatusSuccess\000"
 5657      61747573 
 5657      53756363 
 5657      65737300 
 5658              	.LASF185:
 5659 151e 656E5561 		.ascii	"enUart0IntNone\000"
 5659      72743049 
 5659      6E744E6F 
 5659      6E6500
 5660              	.LASF371:
 5661 152d 75617274 		.ascii	"uart0Config\000"
 5661      30436F6E 
 5661      66696700 
 5662              	.LASF326:
 5663 1539 6770696F 		.ascii	"gpioCardDetect\000"
 5663      43617264 
 5663      44657465 
 5663      637400
 5664              	.LASF366:
 5665 1548 65647561 		.ascii	"eduarmSdcardGpioCfg\000"
 5665      726D5364 
 5665      63617264 
 5665      4770696F 
 5665      43666700 
 5666              	.LASF122:
 5667 155c 49534152 		.ascii	"ISAR\000"
 5667      00
 5668              	.LASF102:
 5669 1561 52455345 		.ascii	"RESERVED2\000"
 5669      52564544 
 5669      3200
 5670              	.LASF390:
 5671 156b 2E2E2F2E 		.ascii	"../../Source/appInit.c\000"
 5671      2E2F536F 
 5671      75726365 
 5671      2F617070 
 5671      496E6974 
 5672              	.LASF104:
 5673 1582 52455345 		.ascii	"RESERVED3\000"
 5673      52564544 
 5673      3300
ARM GAS  C:\Users\Aayush\AppData\Local\Temp\ccPGXf2s.s 			page 139


 5674              	.LASF251:
 5675 158c 656E5370 		.ascii	"enSpi0IntNone\000"
 5675      6930496E 
 5675      744E6F6E 
 5675      6500
 5676              	.LASF199:
 5677 159a 63616C6C 		.ascii	"callback\000"
 5677      6261636B 
 5677      00
 5678              	.LASF316:
 5679 15a3 656E3153 		.ascii	"en1SamplesPerSecond\000"
 5679      616D706C 
 5679      65735065 
 5679      72536563 
 5679      6F6E6400 
 5680              	.LASF203:
 5681 15b7 656E5469 		.ascii	"enTimer0ModeTimer\000"
 5681      6D657230 
 5681      4D6F6465 
 5681      54696D65 
 5681      7200
 5682              	.LASF276:
 5683 15c9 63616C6C 		.ascii	"callbackCount\000"
 5683      6261636B 
 5683      436F756E 
 5683      7400
 5684              	.LASF334:
 5685 15d7 64657643 		.ascii	"devConfig\000"
 5685      6F6E6669 
 5685      6700
 5686              	.LASF171:
 5687 15e1 656E5561 		.ascii	"enUart0Databits_5\000"
 5687      72743044 
 5687      61746162 
 5687      6974735F 
 5687      3500
 5688              	.LASF172:
 5689 15f3 656E5561 		.ascii	"enUart0Databits_6\000"
 5689      72743044 
 5689      61746162 
 5689      6974735F 
 5689      3600
 5690              	.LASF173:
 5691 1605 656E5561 		.ascii	"enUart0Databits_7\000"
 5691      72743044 
 5691      61746162 
 5691      6974735F 
 5691      3700
 5692              	.LASF174:
 5693 1617 656E5561 		.ascii	"enUart0Databits_8\000"
 5693      72743044 
 5693      61746162 
 5693      6974735F 
 5693      3800
 5694              	.LASF216:
 5695 1629 656E5469 		.ascii	"enTimer0MatchActStopInt\000"
 5695      6D657230 
ARM GAS  C:\Users\Aayush\AppData\Local\Temp\ccPGXf2s.s 			page 140


 5695      4D617463 
 5695      68416374 
 5695      53746F70 
 5696              	.LASF35:
 5697 1641 656E5374 		.ascii	"enStatusFileAlreadyExist\000"
 5697      61747573 
 5697      46696C65 
 5697      416C7265 
 5697      61647945 
 5698              	.LASF341:
 5699 165a 616C6C6F 		.ascii	"allowIoCtrl\000"
 5699      77496F43 
 5699      74726C00 
 5700              	.LASF335:
 5701 1666 6465764F 		.ascii	"devOpen\000"
 5701      70656E00 
 5702              	.LASF21:
 5703 166e 656E5374 		.ascii	"enStatusNoMem\000"
 5703      61747573 
 5703      4E6F4D65 
 5703      6D00
 5704              	.LASF287:
 5705 167c 6770696F 		.ascii	"gpioRead\000"
 5705      52656164 
 5705      00
 5706              	.LASF221:
 5707 1685 656E5469 		.ascii	"enTimer0ExtMatchCtrlClearPin\000"
 5707      6D657230 
 5707      4578744D 
 5707      61746368 
 5707      4374726C 
 5708              	.LASF383:
 5709 16a2 6D6D6343 		.ascii	"mmcCfg\000"
 5709      666700
 5710              	.LASF39:
 5711 16a9 656E5374 		.ascii	"enStatusNotEnabled\000"
 5711      61747573 
 5711      4E6F7445 
 5711      6E61626C 
 5711      656400
 5712              		.ident	"GCC: (GNU Arm Embedded Toolchain 10.3-2021.10) 10.3.1 20210824 (release)"
ARM GAS  C:\Users\Aayush\AppData\Local\Temp\ccPGXf2s.s 			page 141


DEFINED SYMBOLS
                            *ABS*:00000000 appInit.c
C:\Users\Aayush\AppData\Local\Temp\ccPGXf2s.s:62     .data:00000000 clkConfig
C:\Users\Aayush\AppData\Local\Temp\ccPGXf2s.s:59     .data:00000000 $d
C:\Users\Aayush\AppData\Local\Temp\ccPGXf2s.s:74     .data:0000000c ritConfig
C:\Users\Aayush\AppData\Local\Temp\ccPGXf2s.s:92     .data:0000001c timer0Config
C:\Users\Aayush\AppData\Local\Temp\ccPGXf2s.s:123    .data:00000040 uart0Config
C:\Users\Aayush\AppData\Local\Temp\ccPGXf2s.s:140    .data:00000048 spi0Cfg
C:\Users\Aayush\AppData\Local\Temp\ccPGXf2s.s:158    .data:00000054 eduarmMma7660GpioCfg
C:\Users\Aayush\AppData\Local\Temp\ccPGXf2s.s:187    .data:0000006c i2c0Cfg
C:\Users\Aayush\AppData\Local\Temp\ccPGXf2s.s:209    .data:00000084 accelConfig
C:\Users\Aayush\AppData\Local\Temp\ccPGXf2s.s:224    .data:00000094 eduarmBuzzerGpioCfg
C:\Users\Aayush\AppData\Local\Temp\ccPGXf2s.s:241    .data:000000a0 buzzerConfig
C:\Users\Aayush\AppData\Local\Temp\ccPGXf2s.s:251    .data:000000a8 lcdDisplayConfig
C:\Users\Aayush\AppData\Local\Temp\ccPGXf2s.s:322    .data:00000118 touchConfig
C:\Users\Aayush\AppData\Local\Temp\ccPGXf2s.s:355    .data:00000144 extInt1CallbackArray
C:\Users\Aayush\AppData\Local\Temp\ccPGXf2s.s:1069   .text:00000354 extIntTouchCallback
C:\Users\Aayush\AppData\Local\Temp\ccPGXf2s.s:361    .data:00000148 extIntTouchConfig
C:\Users\Aayush\AppData\Local\Temp\ccPGXf2s.s:373    .data:00000150 keypadKeyPortPin
C:\Users\Aayush\AppData\Local\Temp\ccPGXf2s.s:398    .data:00000178 mmcCfg
C:\Users\Aayush\AppData\Local\Temp\ccPGXf2s.s:435    .data:000001ac diskCfg
C:\Users\Aayush\AppData\Local\Temp\ccPGXf2s.s:454    .bss:00000000 $d
C:\Users\Aayush\AppData\Local\Temp\ccPGXf2s.s:455    .bss:00000000 fat
C:\Users\Aayush\AppData\Local\Temp\ccPGXf2s.s:459    .rodata:00000000 $d
C:\Users\Aayush\AppData\Local\Temp\ccPGXf2s.s:536    .text:00000000 $t
C:\Users\Aayush\AppData\Local\Temp\ccPGXf2s.s:542    .text:00000000 appInit
C:\Users\Aayush\AppData\Local\Temp\ccPGXf2s.s:1011   .text:00000290 $d
C:\Users\Aayush\AppData\Local\Temp\ccPGXf2s.s:1063   .text:00000354 $t

UNDEFINED SYMBOLS
pfTickUpdate
lcdRenderer
pfI2c0Write
pfI2c0Read
pfSpi0RegisterDevice
pfSpi0ChipSelect
pfSpi0Write
pfSpi0Read
pfSpi0UnregisterDevice
pfSpi0ExchangeByte
mmcOpen
mmcGetStatus
mmcRead
mmcWrite
mmcIoCtrl
pfSysSetCpuClock
pfGpioInit
pfUart0Open
pfRitOpen
pfUart0WriteString
pfRitStart
pfTickSetTimerPeriod
pfTimer0Open
pfTimer0Start
pfSpi0Open
pfI2c0Open
buzzerOpen
ARM GAS  C:\Users\Aayush\AppData\Local\Temp\ccPGXf2s.s 			page 142


gfxOpen
touchOpen
mma7660Open
pfEint1Open
keypadKeyOpen
diskOpen
fsMount
eduarmUart0GpioCfg
eduarmLcdGpioCfg
eduarmTouchGpioCfg
eduarmTouchIntGpioCfg
eduarmSdcardGpioCfg
eduarmPushButtonGpioCfg
